

Microchip MPLAB XC8 Assembler V2.32 build 20210201212658 
                                                                                               Fri Sep 24 16:08:21 2021

Microchip MPLAB XC8 C Compiler v2.32 (Free license) build 20210201212658 Og1 
     1                           	processor	16F15224
     2                           	pagewidth 120
     3                           	opt	flic
     4                           	psect	idataBANK0,global,class=CODE,delta=2,noexec
     5                           	psect	stringtext1,global,class=STRCODE,delta=2,noexec
     6                           	psect	stringtext2,global,class=STRCODE,delta=2,noexec
     7                           	psect	stringtext3,global,class=STRCODE,delta=2,noexec
     8                           	psect	cinit,global,class=CODE,merge=1,delta=2
     9                           	psect	bitbssCOMMON,global,bit,class=COMMON,space=1,delta=1,noexec
    10                           	psect	bssCOMMON,global,class=COMMON,space=1,delta=1,noexec
    11                           	psect	bssBANK0,global,class=BANK0,space=1,delta=1,noexec
    12                           	psect	dataBANK0,global,class=BANK0,space=1,delta=1,noexec
    13                           	psect	clrtext,global,class=CODE,delta=2
    14                           	psect	cstackCOMMON,global,class=COMMON,space=1,delta=1,noexec
    15                           	psect	cstackBANK0,global,class=BANK0,space=1,delta=1,noexec
    16                           	psect	maintext,global,class=CODE,merge=1,split=1,delta=2
    17                           	psect	text1,local,class=CODE,merge=1,delta=2
    18                           	psect	text2,local,class=CODE,merge=1,delta=2
    19                           	psect	text3,local,class=CODE,merge=1,delta=2
    20                           	psect	text4,local,class=CODE,merge=1,delta=2
    21                           	psect	text5,local,class=CODE,merge=1,delta=2
    22                           	psect	text6,local,class=CODE,merge=1,delta=2
    23                           	psect	text7,local,class=CODE,merge=1,delta=2,group=2
    24                           	psect	text8,local,class=CODE,merge=1,delta=2,group=1
    25                           	psect	intentry,global,class=CODE,delta=2
    26                           	psect	config,global,abs,ovrld,class=CONFIG,space=4,delta=2,noexec
    27                           	dabs	1,0x7E,2
    28  0000                     
    29                           ; Version 2.35
    30                           ; Generated 01/06/2021 GMT
    31                           ; 
    32                           ; Copyright © 2021, Microchip Technology Inc. and its subsidiaries ("Microchip")
    33                           ; All rights reserved.
    34                           ; 
    35                           ; This software is developed by Microchip Technology Inc. and its subsidiaries ("Microch
      +                          ip").
    36                           ; 
    37                           ; Redistribution and use in source and binary forms, with or without modification, are
    38                           ; permitted provided that the following conditions are met:
    39                           ; 
    40                           ;     1. Redistributions of source code must retain the above copyright notice, this lis
      +                          t of
    41                           ;        conditions and the following disclaimer.
    42                           ; 
    43                           ;     2. Redistributions in binary form must reproduce the above copyright notice, this 
      +                          list
    44                           ;        of conditions and the following disclaimer in the documentation and/or other
    45                           ;        materials provided with the distribution. Publication is not required when
    46                           ;        this file is used in an embedded application.
    47                           ; 
    48                           ;     3. Microchip's name may not be used to endorse or promote products derived from th
      +                          is
    49                           ;        software without specific prior written permission.
    50                           ; 
    51                           ; THIS SOFTWARE IS PROVIDED BY MICROCHIP "AS IS" AND ANY EXPRESS OR IMPLIED WARRANTIES,
    52                           ; INCLUDING, BUT NOT LIMITED TO, THE IMPLIED WARRANTIES OF MERCHANTABILITY AND FITNESS F
      +                          OR
    53                           ; PURPOSE ARE DISCLAIMED.  IN NO EVENT SHALL MICROCHIP BE LIABLE FOR ANY DIRECT, INDIREC
      +                          T,
    54                           ; INCIDENTAL, SPECIAL, EXEMPLARY, OR CONSEQUENTIAL DAMAGES (INCLUDING BUT NOT LIMITED TO
    55                           ; PROCUREMENT OF SUBSTITUTE GOODS OR SERVICES; LOSS OF USE, DATA OR PROFITS; OR BUSINESS
    56                           ; INTERRUPTION) HOWSOEVER CAUSED AND ON ANY THEORY OF LIABILITY, WHETHER IN CONTRACT, ST
      +                          RICT
    57                           ; LIABILITY, OR TORT (INCLUDING NEGLIGENCE OR OTHERWISE) ARISING IN ANY WAY OUT OF THE U
      +                          SE OF
    58                           ; THIS SOFTWARE, EVEN IF ADVISED OF THE POSSIBILITY OF SUCH DAMAGE.
    59                           ; 
    60                           ; 
    61                           ; Code-generator required, PIC16F15224 Definitions
    62                           ; 
    63                           ; SFR Addresses
    64  0000                     	;# 
    65  0001                     	;# 
    66  0002                     	;# 
    67  0003                     	;# 
    68  0004                     	;# 
    69  0005                     	;# 
    70  0006                     	;# 
    71  0007                     	;# 
    72  0008                     	;# 
    73  0009                     	;# 
    74  000A                     	;# 
    75  000B                     	;# 
    76  000C                     	;# 
    77  000E                     	;# 
    78  0012                     	;# 
    79  0014                     	;# 
    80  0018                     	;# 
    81  001A                     	;# 
    82  009A                     	;# 
    83  009B                     	;# 
    84  009B                     	;# 
    85  009C                     	;# 
    86  009D                     	;# 
    87  009E                     	;# 
    88  009F                     	;# 
    89  010E                     	;# 
    90  010F                     	;# 
    91  0119                     	;# 
    92  011A                     	;# 
    93  011B                     	;# 
    94  011B                     	;# 
    95  011C                     	;# 
    96  011D                     	;# 
    97  011E                     	;# 
    98  011F                     	;# 
    99  018C                     	;# 
   100  018D                     	;# 
   101  018E                     	;# 
   102  018F                     	;# 
   103  0190                     	;# 
   104  0191                     	;# 
   105  0192                     	;# 
   106  020C                     	;# 
   107  020D                     	;# 
   108  020E                     	;# 
   109  020E                     	;# 
   110  020F                     	;# 
   111  020F                     	;# 
   112  0210                     	;# 
   113  0210                     	;# 
   114  0211                     	;# 
   115  0211                     	;# 
   116  028C                     	;# 
   117  028C                     	;# 
   118  028D                     	;# 
   119  028D                     	;# 
   120  028E                     	;# 
   121  028F                     	;# 
   122  0290                     	;# 
   123  0291                     	;# 
   124  030C                     	;# 
   125  030C                     	;# 
   126  030D                     	;# 
   127  030E                     	;# 
   128  030F                     	;# 
   129  0310                     	;# 
   130  0310                     	;# 
   131  0311                     	;# 
   132  0312                     	;# 
   133  0313                     	;# 
   134  0314                     	;# 
   135  0314                     	;# 
   136  0315                     	;# 
   137  0316                     	;# 
   138  0318                     	;# 
   139  0318                     	;# 
   140  0319                     	;# 
   141  031A                     	;# 
   142  059C                     	;# 
   143  059C                     	;# 
   144  059D                     	;# 
   145  059D                     	;# 
   146  059E                     	;# 
   147  059F                     	;# 
   148  070C                     	;# 
   149  070D                     	;# 
   150  070E                     	;# 
   151  0716                     	;# 
   152  0717                     	;# 
   153  0718                     	;# 
   154  080C                     	;# 
   155  0811                     	;# 
   156  0813                     	;# 
   157  0814                     	;# 
   158  081A                     	;# 
   159  081A                     	;# 
   160  081B                     	;# 
   161  081C                     	;# 
   162  081C                     	;# 
   163  081D                     	;# 
   164  081E                     	;# 
   165  081F                     	;# 
   166  088E                     	;# 
   167  0890                     	;# 
   168  0891                     	;# 
   169  0892                     	;# 
   170  0893                     	;# 
   171  090C                     	;# 
   172  1E8F                     	;# 
   173  1E90                     	;# 
   174  1E91                     	;# 
   175  1E92                     	;# 
   176  1E93                     	;# 
   177  1E9C                     	;# 
   178  1EA1                     	;# 
   179  1EA2                     	;# 
   180  1EC3                     	;# 
   181  1EC5                     	;# 
   182  1EC6                     	;# 
   183  1EC7                     	;# 
   184  1ECB                     	;# 
   185  1ECB                     	;# 
   186  1ECB                     	;# 
   187  1ECC                     	;# 
   188  1ECC                     	;# 
   189  1ECC                     	;# 
   190  1F10                     	;# 
   191  1F11                     	;# 
   192  1F12                     	;# 
   193  1F14                     	;# 
   194  1F15                     	;# 
   195  1F20                     	;# 
   196  1F21                     	;# 
   197  1F22                     	;# 
   198  1F23                     	;# 
   199  1F24                     	;# 
   200  1F25                     	;# 
   201  1F38                     	;# 
   202  1F39                     	;# 
   203  1F3A                     	;# 
   204  1F3B                     	;# 
   205  1F3C                     	;# 
   206  1F3D                     	;# 
   207  1F3E                     	;# 
   208  1F3F                     	;# 
   209  1F4E                     	;# 
   210  1F4F                     	;# 
   211  1F50                     	;# 
   212  1F51                     	;# 
   213  1F52                     	;# 
   214  1F53                     	;# 
   215  1F54                     	;# 
   216  1F55                     	;# 
   217  1FE4                     	;# 
   218  1FE5                     	;# 
   219  1FE6                     	;# 
   220  1FE7                     	;# 
   221  1FE8                     	;# 
   222  1FE8                     	;# 
   223  1FE9                     	;# 
   224  1FEA                     	;# 
   225  1FEB                     	;# 
   226  1FED                     	;# 
   227  1FEE                     	;# 
   228  1FEF                     	;# 
   229                           
   230                           	psect	idataBANK0
   231  0FD0                     __pidataBANK0:
   232                           
   233                           ;initializer for _noGate
   234  0FD0  3401               	retlw	1
   235  0FD1  3400               	retlw	0
   236                           
   237                           ;initializer for _debugging
   238  0FD2  3401               	retlw	1
   239                           
   240                           	psect	stringtext1
   241  0128                     __pstringtext1:
   242  0128                     _gargoyles:
   243  0128  341E               	retlw	30
   244  0129  3400               	retlw	0
   245  012A  343E               	retlw	62
   246  012B  3406               	retlw	6
   247  012C  341C               	retlw	28
   248  012D  3400               	retlw	0
   249  012E  3466               	retlw	102
   250  012F  3401               	retlw	1
   251  0130  3400               	retlw	0
   252  0131  3400               	retlw	0
   253  0132  3428               	retlw	40
   254  0133  3400               	retlw	0
   255  0134  341A               	retlw	26
   256  0135  3400               	retlw	0
   257  0136  3466               	retlw	102
   258  0137  3401               	retlw	1
   259  0138  3400               	retlw	0
   260  0139  3400               	retlw	0
   261  013A  3428               	retlw	40
   262  013B  3400               	retlw	0
   263  013C  3419               	retlw	25
   264  013D  3400               	retlw	0
   265  013E  3466               	retlw	102
   266  013F  3401               	retlw	1
   267  0140  3400               	retlw	0
   268  0141  3400               	retlw	0
   269  0142  3428               	retlw	40
   270  0143  3400               	retlw	0
   271  0144  3417               	retlw	23
   272  0145  3400               	retlw	0
   273  0146  3466               	retlw	102
   274  0147  3401               	retlw	1
   275  0148  3400               	retlw	0
   276  0149  3400               	retlw	0
   277  014A  3428               	retlw	40
   278  014B  3400               	retlw	0
   279  014C  341F               	retlw	31
   280  014D  3400               	retlw	0
   281  014E  34AE               	retlw	174
   282  014F  3404               	retlw	4
   283  0150  341E               	retlw	30
   284  0151  3400               	retlw	0
   285  0152  34C6               	retlw	198
   286  0153  3400               	retlw	0
   287  0154  341C               	retlw	28
   288  0155  3400               	retlw	0
   289  0156  34C6               	retlw	198
   290  0157  3400               	retlw	0
   291  0158  3419               	retlw	25
   292  0159  3400               	retlw	0
   293  015A  3469               	retlw	105
   294  015B  3405               	retlw	5
   295  015C  3400               	retlw	0
   296  015D  3400               	retlw	0
   297  015E  3450               	retlw	80
   298  015F  3400               	retlw	0
   299  0160  341E               	retlw	30
   300  0161  3400               	retlw	0
   301  0162  343E               	retlw	62
   302  0163  3406               	retlw	6
   303  0164  341A               	retlw	26
   304  0165  3400               	retlw	0
   305  0166  347A               	retlw	122
   306  0167  3401               	retlw	1
   307  0168  3400               	retlw	0
   308  0169  3400               	retlw	0
   309  016A  3414               	retlw	20
   310  016B  3400               	retlw	0
   311  016C  341C               	retlw	28
   312  016D  3400               	retlw	0
   313  016E  347A               	retlw	122
   314  016F  3401               	retlw	1
   315  0170  3400               	retlw	0
   316  0171  3400               	retlw	0
   317  0172  3414               	retlw	20
   318  0173  3400               	retlw	0
   319  0174  341E               	retlw	30
   320  0175  3400               	retlw	0
   321  0176  347A               	retlw	122
   322  0177  3401               	retlw	1
   323  0178  3400               	retlw	0
   324  0179  3400               	retlw	0
   325  017A  3414               	retlw	20
   326  017B  3400               	retlw	0
   327  017C  341C               	retlw	28
   328  017D  3400               	retlw	0
   329  017E  347A               	retlw	122
   330  017F  3401               	retlw	1
   331  0180  3400               	retlw	0
   332  0181  3400               	retlw	0
   333  0182  3414               	retlw	20
   334  0183  3400               	retlw	0
   335  0184  341C               	retlw	28
   336  0185  3400               	retlw	0
   337  0186  34F6               	retlw	246
   338  0187  3402               	retlw	2
   339  0188  3400               	retlw	0
   340  0189  3400               	retlw	0
   341  018A  3428               	retlw	40
   342  018B  3400               	retlw	0
   343  018C  341F               	retlw	31
   344  018D  3400               	retlw	0
   345  018E  34F6               	retlw	246
   346  018F  3402               	retlw	2
   347  0190  3400               	retlw	0
   348  0191  3400               	retlw	0
   349  0192  3428               	retlw	40
   350  0193  3400               	retlw	0
   351  0194  3422               	retlw	34
   352  0195  3400               	retlw	0
   353  0196  3469               	retlw	105
   354  0197  3405               	retlw	5
   355  0198  3400               	retlw	0
   356  0199  3400               	retlw	0
   357  019A  3450               	retlw	80
   358  019B  3400               	retlw	0
   359  019C  341A               	retlw	26
   360  019D  3400               	retlw	0
   361  019E  340A               	retlw	10
   362  019F  3403               	retlw	3
   363  01A0  3400               	retlw	0
   364  01A1  3400               	retlw	0
   365  01A2  3414               	retlw	20
   366  01A3  3400               	retlw	0
   367  01A4  3419               	retlw	25
   368  01A5  3400               	retlw	0
   369  01A6  347A               	retlw	122
   370  01A7  3401               	retlw	1
   371  01A8  3400               	retlw	0
   372  01A9  3400               	retlw	0
   373  01AA  3414               	retlw	20
   374  01AB  3400               	retlw	0
   375  01AC  3417               	retlw	23
   376  01AD  3400               	retlw	0
   377  01AE  3466               	retlw	102
   378  01AF  3401               	retlw	1
   379  01B0  3400               	retlw	0
   380  01B1  3400               	retlw	0
   381  01B2  3428               	retlw	40
   382  01B3  3400               	retlw	0
   383  01B4  3419               	retlw	25
   384  01B5  3400               	retlw	0
   385  01B6  341E               	retlw	30
   386  01B7  3403               	retlw	3
   387  01B8  341C               	retlw	28
   388  01B9  3400               	retlw	0
   389  01BA  34F6               	retlw	246
   390  01BB  3402               	retlw	2
   391  01BC  3400               	retlw	0
   392  01BD  3400               	retlw	0
   393  01BE  3428               	retlw	40
   394  01BF  3400               	retlw	0
   395  01C0  341C               	retlw	28
   396  01C1  3400               	retlw	0
   397  01C2  34F6               	retlw	246
   398  01C3  3402               	retlw	2
   399  01C4  3400               	retlw	0
   400  01C5  3400               	retlw	0
   401  01C6  3428               	retlw	40
   402  01C7  3400               	retlw	0
   403  01C8  341A               	retlw	26
   404  01C9  3400               	retlw	0
   405  01CA  3466               	retlw	102
   406  01CB  3401               	retlw	1
   407  01CC  3400               	retlw	0
   408  01CD  3400               	retlw	0
   409  01CE  3428               	retlw	40
   410  01CF  3400               	retlw	0
   411  01D0  3419               	retlw	25
   412  01D1  3400               	retlw	0
   413  01D2  3466               	retlw	102
   414  01D3  3401               	retlw	1
   415  01D4  3400               	retlw	0
   416  01D5  3400               	retlw	0
   417  01D6  3428               	retlw	40
   418  01D7  3400               	retlw	0
   419  01D8  341A               	retlw	26
   420  01D9  3400               	retlw	0
   421  01DA  341E               	retlw	30
   422  01DB  3403               	retlw	3
   423  01DC  341E               	retlw	30
   424  01DD  3400               	retlw	0
   425  01DE  34F6               	retlw	246
   426  01DF  3402               	retlw	2
   427  01E0  3400               	retlw	0
   428  01E1  3400               	retlw	0
   429  01E2  3428               	retlw	40
   430  01E3  3400               	retlw	0
   431  01E4  341E               	retlw	30
   432  01E5  3400               	retlw	0
   433  01E6  34F6               	retlw	246
   434  01E7  3402               	retlw	2
   435  01E8  3400               	retlw	0
   436  01E9  3400               	retlw	0
   437  01EA  3428               	retlw	40
   438  01EB  3400               	retlw	0
   439  01EC  341D               	retlw	29
   440  01ED  3400               	retlw	0
   441  01EE  3466               	retlw	102
   442  01EF  3401               	retlw	1
   443  01F0  3400               	retlw	0
   444  01F1  3400               	retlw	0
   445  01F2  3428               	retlw	40
   446  01F3  3400               	retlw	0
   447  01F4  341B               	retlw	27
   448  01F5  3400               	retlw	0
   449  01F6  3466               	retlw	102
   450  01F7  3401               	retlw	1
   451  01F8  3400               	retlw	0
   452  01F9  3400               	retlw	0
   453  01FA  3428               	retlw	40
   454  01FB  3400               	retlw	0
   455  01FC  341D               	retlw	29
   456  01FD  3400               	retlw	0
   457  01FE  341E               	retlw	30
   458  01FF  3403               	retlw	3
   459  0200  3420               	retlw	32
   460  0201  3400               	retlw	0
   461  0202  34F6               	retlw	246
   462  0203  3402               	retlw	2
   463  0204  3400               	retlw	0
   464  0205  3400               	retlw	0
   465  0206  3428               	retlw	40
   466  0207  3400               	retlw	0
   467  0208  3420               	retlw	32
   468  0209  3400               	retlw	0
   469  020A  34F6               	retlw	246
   470  020B  3402               	retlw	2
   471  020C  3400               	retlw	0
   472  020D  3400               	retlw	0
   473  020E  3428               	retlw	40
   474  020F  3400               	retlw	0
   475  0210  341E               	retlw	30
   476  0211  3400               	retlw	0
   477  0212  3466               	retlw	102
   478  0213  3401               	retlw	1
   479  0214  3400               	retlw	0
   480  0215  3400               	retlw	0
   481  0216  3428               	retlw	40
   482  0217  3400               	retlw	0
   483  0218  341D               	retlw	29
   484  0219  3400               	retlw	0
   485  021A  3466               	retlw	102
   486  021B  3401               	retlw	1
   487  021C  3400               	retlw	0
   488  021D  3400               	retlw	0
   489  021E  3428               	retlw	40
   490  021F  3400               	retlw	0
   491  0220  3422               	retlw	34
   492  0221  3400               	retlw	0
   493  0222  34EE               	retlw	238
   494  0223  3405               	retlw	5
   495  0224  3400               	retlw	0
   496  0225  3400               	retlw	0
   497  0226  3450               	retlw	80
   498  0227  3400               	retlw	0
   499  0228  341E               	retlw	30
   500  0229  3400               	retlw	0
   501  022A  343E               	retlw	62
   502  022B  3406               	retlw	6
   503  022C  341C               	retlw	28
   504  022D  3400               	retlw	0
   505  022E  3466               	retlw	102
   506  022F  3401               	retlw	1
   507  0230  3400               	retlw	0
   508  0231  3400               	retlw	0
   509  0232  3428               	retlw	40
   510  0233  3400               	retlw	0
   511  0234  341A               	retlw	26
   512  0235  3400               	retlw	0
   513  0236  3466               	retlw	102
   514  0237  3401               	retlw	1
   515  0238  3400               	retlw	0
   516  0239  3400               	retlw	0
   517  023A  3428               	retlw	40
   518  023B  3400               	retlw	0
   519  023C  3419               	retlw	25
   520  023D  3400               	retlw	0
   521  023E  3466               	retlw	102
   522  023F  3401               	retlw	1
   523  0240  3400               	retlw	0
   524  0241  3400               	retlw	0
   525  0242  3428               	retlw	40
   526  0243  3400               	retlw	0
   527  0244  3417               	retlw	23
   528  0245  3400               	retlw	0
   529  0246  3466               	retlw	102
   530  0247  3401               	retlw	1
   531  0248  3400               	retlw	0
   532  0249  3400               	retlw	0
   533  024A  3428               	retlw	40
   534  024B  3400               	retlw	0
   535  024C  341F               	retlw	31
   536  024D  3400               	retlw	0
   537  024E  34AE               	retlw	174
   538  024F  3404               	retlw	4
   539  0250  341E               	retlw	30
   540  0251  3400               	retlw	0
   541  0252  34C6               	retlw	198
   542  0253  3400               	retlw	0
   543  0254  341C               	retlw	28
   544  0255  3400               	retlw	0
   545  0256  34C6               	retlw	198
   546  0257  3400               	retlw	0
   547  0258  3419               	retlw	25
   548  0259  3400               	retlw	0
   549  025A  3469               	retlw	105
   550  025B  3405               	retlw	5
   551  025C  3400               	retlw	0
   552  025D  3400               	retlw	0
   553  025E  3450               	retlw	80
   554  025F  3400               	retlw	0
   555  0260  341E               	retlw	30
   556  0261  3400               	retlw	0
   557  0262  343E               	retlw	62
   558  0263  3406               	retlw	6
   559  0264  341A               	retlw	26
   560  0265  3400               	retlw	0
   561  0266  347A               	retlw	122
   562  0267  3401               	retlw	1
   563  0268  3400               	retlw	0
   564  0269  3400               	retlw	0
   565  026A  3414               	retlw	20
   566  026B  3400               	retlw	0
   567  026C  341C               	retlw	28
   568  026D  3400               	retlw	0
   569  026E  347A               	retlw	122
   570  026F  3401               	retlw	1
   571  0270  3400               	retlw	0
   572  0271  3400               	retlw	0
   573  0272  3414               	retlw	20
   574  0273  3400               	retlw	0
   575  0274  341E               	retlw	30
   576  0275  3400               	retlw	0
   577  0276  347A               	retlw	122
   578  0277  3401               	retlw	1
   579  0278  3400               	retlw	0
   580  0279  3400               	retlw	0
   581  027A  3414               	retlw	20
   582  027B  3400               	retlw	0
   583  027C  341C               	retlw	28
   584  027D  3400               	retlw	0
   585  027E  347A               	retlw	122
   586  027F  3401               	retlw	1
   587  0280  3400               	retlw	0
   588  0281  3400               	retlw	0
   589  0282  3414               	retlw	20
   590  0283  3400               	retlw	0
   591  0284  341C               	retlw	28
   592  0285  3400               	retlw	0
   593  0286  34F6               	retlw	246
   594  0287  3402               	retlw	2
   595  0288  3400               	retlw	0
   596  0289  3400               	retlw	0
   597  028A  3428               	retlw	40
   598  028B  3400               	retlw	0
   599  028C  341F               	retlw	31
   600  028D  3400               	retlw	0
   601  028E  34F6               	retlw	246
   602  028F  3402               	retlw	2
   603  0290  3400               	retlw	0
   604  0291  3400               	retlw	0
   605  0292  3428               	retlw	40
   606  0293  3400               	retlw	0
   607  0294  3422               	retlw	34
   608  0295  3400               	retlw	0
   609  0296  34B9               	retlw	185
   610  0297  3405               	retlw	5
   611  0298  3400               	retlw	0
   612  0299  3400               	retlw	0
   613  029A  3428               	retlw	40
   614  029B  3400               	retlw	0
   615  029C  3423               	retlw	35
   616  029D  3400               	retlw	0
   617  029E  340A               	retlw	10
   618  029F  3403               	retlw	3
   619  02A0  3400               	retlw	0
   620  02A1  3400               	retlw	0
   621  02A2  3414               	retlw	20
   622  02A3  3400               	retlw	0
   623  02A4  3423               	retlw	35
   624  02A5  3400               	retlw	0
   625  02A6  346F               	retlw	111
   626  02A7  3400               	retlw	0
   627  02A8  3400               	retlw	0
   628  02A9  3400               	retlw	0
   629  02AA  3414               	retlw	20
   630  02AB  3400               	retlw	0
   631  02AC  3423               	retlw	35
   632  02AD  3400               	retlw	0
   633  02AE  346F               	retlw	111
   634  02AF  3400               	retlw	0
   635  02B0  3400               	retlw	0
   636  02B1  3400               	retlw	0
   637  02B2  3414               	retlw	20
   638  02B3  3400               	retlw	0
   639  02B4  3423               	retlw	35
   640  02B5  3400               	retlw	0
   641  02B6  346F               	retlw	111
   642  02B7  3400               	retlw	0
   643  02B8  3400               	retlw	0
   644  02B9  3400               	retlw	0
   645  02BA  3414               	retlw	20
   646  02BB  3400               	retlw	0
   647  02BC  3423               	retlw	35
   648  02BD  3400               	retlw	0
   649  02BE  340A               	retlw	10
   650  02BF  3403               	retlw	3
   651  02C0  3400               	retlw	0
   652  02C1  3400               	retlw	0
   653  02C2  3414               	retlw	20
   654  02C3  3400               	retlw	0
   655  02C4  3423               	retlw	35
   656  02C5  3400               	retlw	0
   657  02C6  346F               	retlw	111
   658  02C7  3400               	retlw	0
   659  02C8  3400               	retlw	0
   660  02C9  3400               	retlw	0
   661  02CA  3414               	retlw	20
   662  02CB  3400               	retlw	0
   663  02CC  3423               	retlw	35
   664  02CD  3400               	retlw	0
   665  02CE  346F               	retlw	111
   666  02CF  3400               	retlw	0
   667  02D0  3400               	retlw	0
   668  02D1  3400               	retlw	0
   669  02D2  3414               	retlw	20
   670  02D3  3400               	retlw	0
   671  02D4  3423               	retlw	35
   672  02D5  3400               	retlw	0
   673  02D6  346F               	retlw	111
   674  02D7  3400               	retlw	0
   675  02D8  3400               	retlw	0
   676  02D9  3400               	retlw	0
   677  02DA  3414               	retlw	20
   678  02DB  3400               	retlw	0
   679  02DC  3423               	retlw	35
   680  02DD  3400               	retlw	0
   681  02DE  346F               	retlw	111
   682  02DF  3400               	retlw	0
   683  02E0  3400               	retlw	0
   684  02E1  3400               	retlw	0
   685  02E2  3414               	retlw	20
   686  02E3  3400               	retlw	0
   687  02E4  3423               	retlw	35
   688  02E5  3400               	retlw	0
   689  02E6  341E               	retlw	30
   690  02E7  3403               	retlw	3
   691  02E8                     __end_of_gargoyles:
   692                           
   693                           	psect	stringtext2
   694  04ED                     __pstringtext2:
   695  04ED                     _sheRa:
   696  04ED  340B               	retlw	11
   697  04EE  3400               	retlw	0
   698  04EF  34D8               	retlw	216
   699  04F0  3400               	retlw	0
   700  04F1  340D               	retlw	13
   701  04F2  3400               	retlw	0
   702  04F3  34D8               	retlw	216
   703  04F4  3400               	retlw	0
   704  04F5  340E               	retlw	14
   705  04F6  3400               	retlw	0
   706  04F7  349C               	retlw	156
   707  04F8  3401               	retlw	1
   708  04F9  3400               	retlw	0
   709  04FA  3400               	retlw	0
   710  04FB  3415               	retlw	21
   711  04FC  3400               	retlw	0
   712  04FD  3412               	retlw	18
   713  04FE  3400               	retlw	0
   714  04FF  34A7               	retlw	167
   715  0500  3401               	retlw	1
   716  0501  3400               	retlw	0
   717  0502  3400               	retlw	0
   718  0503  3415               	retlw	21
   719  0504  3400               	retlw	0
   720  0505  3413               	retlw	19
   721  0506  3400               	retlw	0
   722  0507  348B               	retlw	139
   723  0508  3402               	retlw	2
   724  0509  3412               	retlw	18
   725  050A  3400               	retlw	0
   726  050B  346B               	retlw	107
   727  050C  3400               	retlw	0
   728  050D  3410               	retlw	16
   729  050E  3400               	retlw	0
   730  050F  346B               	retlw	107
   731  0510  3400               	retlw	0
   732  0511  3412               	retlw	18
   733  0512  3400               	retlw	0
   734  0513  3464               	retlw	100
   735  0514  3403               	retlw	3
   736  0515  3400               	retlw	0
   737  0516  3400               	retlw	0
   738  0517  34B1               	retlw	177
   739  0518  3401               	retlw	1
   740  0519  340B               	retlw	11
   741  051A  3400               	retlw	0
   742  051B  34D8               	retlw	216
   743  051C  3400               	retlw	0
   744  051D  340D               	retlw	13
   745  051E  3400               	retlw	0
   746  051F  34D8               	retlw	216
   747  0520  3400               	retlw	0
   748  0521  340E               	retlw	14
   749  0522  3400               	retlw	0
   750  0523  34B1               	retlw	177
   751  0524  3401               	retlw	1
   752  0525  3412               	retlw	18
   753  0526  3400               	retlw	0
   754  0527  34B1               	retlw	177
   755  0528  3401               	retlw	1
   756  0529  3417               	retlw	23
   757  052A  3400               	retlw	0
   758  052B  349C               	retlw	156
   759  052C  3401               	retlw	1
   760  052D  3400               	retlw	0
   761  052E  3400               	retlw	0
   762  052F  3415               	retlw	21
   763  0530  3400               	retlw	0
   764  0531  3415               	retlw	21
   765  0532  3400               	retlw	0
   766  0533  349C               	retlw	156
   767  0534  3401               	retlw	1
   768  0535  3400               	retlw	0
   769  0536  3400               	retlw	0
   770  0537  3415               	retlw	21
   771  0538  3400               	retlw	0
   772  0539  3412               	retlw	18
   773  053A  3400               	retlw	0
   774  053B  3464               	retlw	100
   775  053C  3403               	retlw	3
   776  053D  3400               	retlw	0
   777  053E  3400               	retlw	0
   778  053F  34B1               	retlw	177
   779  0540  3401               	retlw	1
   780  0541  340B               	retlw	11
   781  0542  3400               	retlw	0
   782  0543  34D8               	retlw	216
   783  0544  3400               	retlw	0
   784  0545  340D               	retlw	13
   785  0546  3400               	retlw	0
   786  0547  34D8               	retlw	216
   787  0548  3400               	retlw	0
   788  0549  340E               	retlw	14
   789  054A  3400               	retlw	0
   790  054B  34B1               	retlw	177
   791  054C  3401               	retlw	1
   792  054D  3412               	retlw	18
   793  054E  3400               	retlw	0
   794  054F  34B1               	retlw	177
   795  0550  3401               	retlw	1
   796  0551  3413               	retlw	19
   797  0552  3400               	retlw	0
   798  0553  348B               	retlw	139
   799  0554  3402               	retlw	2
   800  0555  3412               	retlw	18
   801  0556  3400               	retlw	0
   802  0557  346B               	retlw	107
   803  0558  3400               	retlw	0
   804  0559  3410               	retlw	16
   805  055A  3400               	retlw	0
   806  055B  346B               	retlw	107
   807  055C  3400               	retlw	0
   808  055D  3412               	retlw	18
   809  055E  3400               	retlw	0
   810  055F  3464               	retlw	100
   811  0560  3403               	retlw	3
   812  0561  3413               	retlw	19
   813  0562  3400               	retlw	0
   814  0563  342F               	retlw	47
   815  0564  3401               	retlw	1
   816  0565  3400               	retlw	0
   817  0566  3400               	retlw	0
   818  0567  3415               	retlw	21
   819  0568  3400               	retlw	0
   820  0569  3412               	retlw	18
   821  056A  3400               	retlw	0
   822  056B  342F               	retlw	47
   823  056C  3401               	retlw	1
   824  056D  3400               	retlw	0
   825  056E  3400               	retlw	0
   826  056F  3415               	retlw	21
   827  0570  3400               	retlw	0
   828  0571  3413               	retlw	19
   829  0572  3400               	retlw	0
   830  0573  34C2               	retlw	194
   831  0574  3400               	retlw	0
   832  0575  3400               	retlw	0
   833  0576  3400               	retlw	0
   834  0577  3415               	retlw	21
   835  0578  3400               	retlw	0
   836  0579  3415               	retlw	21
   837  057A  3400               	retlw	0
   838  057B  348B               	retlw	139
   839  057C  3402               	retlw	2
   840  057D  3412               	retlw	18
   841  057E  3400               	retlw	0
   842  057F  3462               	retlw	98
   843  0580  3400               	retlw	0
   844  0581  3410               	retlw	16
   845  0582  3400               	retlw	0
   846  0583  346B               	retlw	107
   847  0584  3400               	retlw	0
   848  0585  3412               	retlw	18
   849  0586  3400               	retlw	0
   850  0587  34CA               	retlw	202
   851  0588  3406               	retlw	6
   852  0589  3400               	retlw	0
   853  058A  3400               	retlw	0
   854  058B  34B1               	retlw	177
   855  058C  3401               	retlw	1
   856  058D  3414               	retlw	20
   857  058E  3400               	retlw	0
   858  058F  34D8               	retlw	216
   859  0590  3400               	retlw	0
   860  0591  3416               	retlw	22
   861  0592  3400               	retlw	0
   862  0593  34D8               	retlw	216
   863  0594  3400               	retlw	0
   864  0595  3417               	retlw	23
   865  0596  3400               	retlw	0
   866  0597  34B1               	retlw	177
   867  0598  3401               	retlw	1
   868  0599  341B               	retlw	27
   869  059A  3400               	retlw	0
   870  059B  34B1               	retlw	177
   871  059C  3401               	retlw	1
   872  059D  341C               	retlw	28
   873  059E  3400               	retlw	0
   874  059F  348B               	retlw	139
   875  05A0  3402               	retlw	2
   876  05A1  341B               	retlw	27
   877  05A2  3400               	retlw	0
   878  05A3  346B               	retlw	107
   879  05A4  3400               	retlw	0
   880  05A5  3419               	retlw	25
   881  05A6  3400               	retlw	0
   882  05A7  346B               	retlw	107
   883  05A8  3400               	retlw	0
   884  05A9  341B               	retlw	27
   885  05AA  3400               	retlw	0
   886  05AB  344E               	retlw	78
   887  05AC  3403               	retlw	3
   888  05AD  3400               	retlw	0
   889  05AE  3400               	retlw	0
   890  05AF  3415               	retlw	21
   891  05B0  3400               	retlw	0
   892  05B1  341C               	retlw	28
   893  05B2  3400               	retlw	0
   894  05B3  342F               	retlw	47
   895  05B4  3401               	retlw	1
   896  05B5  3400               	retlw	0
   897  05B6  3400               	retlw	0
   898  05B7  3415               	retlw	21
   899  05B8  3400               	retlw	0
   900  05B9  341B               	retlw	27
   901  05BA  3400               	retlw	0
   902  05BB  342F               	retlw	47
   903  05BC  3401               	retlw	1
   904  05BD  3400               	retlw	0
   905  05BE  3400               	retlw	0
   906  05BF  3415               	retlw	21
   907  05C0  3400               	retlw	0
   908  05C1  341C               	retlw	28
   909  05C2  3400               	retlw	0
   910  05C3  34C2               	retlw	194
   911  05C4  3400               	retlw	0
   912  05C5  3400               	retlw	0
   913  05C6  3400               	retlw	0
   914  05C7  3415               	retlw	21
   915  05C8  3400               	retlw	0
   916  05C9  341E               	retlw	30
   917  05CA  3400               	retlw	0
   918  05CB  3475               	retlw	117
   919  05CC  3402               	retlw	2
   920  05CD  3400               	retlw	0
   921  05CE  3400               	retlw	0
   922  05CF  3415               	retlw	21
   923  05D0  3400               	retlw	0
   924  05D1  3420               	retlw	32
   925  05D2  3400               	retlw	0
   926  05D3  346B               	retlw	107
   927  05D4  3400               	retlw	0
   928  05D5  3422               	retlw	34
   929  05D6  3400               	retlw	0
   930  05D7  346B               	retlw	107
   931  05D8  3400               	retlw	0
   932  05D9  3423               	retlw	35
   933  05DA  3400               	retlw	0
   934  05DB  34CA               	retlw	202
   935  05DC  3406               	retlw	6
   936  05DD                     __end_of_sheRa:
   937                           
   938                           	psect	stringtext3
   939  07F7                     __pstringtext3:
   940  07F7                     _notes:
   941  07F7  34ED               	retlw	237
   942  07F8  34E0               	retlw	224
   943  07F9  34D3               	retlw	211
   944  07FA  34C7               	retlw	199
   945  07FB  34BD               	retlw	189
   946  07FC  34B2               	retlw	178
   947  07FD  34A8               	retlw	168
   948  07FE  349E               	retlw	158
   949  07FF  3496               	retlw	150
   950  0800  348D               	retlw	141
   951  0801  3485               	retlw	133
   952  0802  347D               	retlw	125
   953  0803  3476               	retlw	118
   954  0804  3470               	retlw	112
   955  0805  346A               	retlw	106
   956  0806  3463               	retlw	99
   957  0807  345E               	retlw	94
   958  0808  3459               	retlw	89
   959  0809  3454               	retlw	84
   960  080A  344F               	retlw	79
   961  080B  344B               	retlw	75
   962  080C  3446               	retlw	70
   963  080D  3442               	retlw	66
   964  080E  343F               	retlw	63
   965  080F  343B               	retlw	59
   966  0810  3438               	retlw	56
   967  0811  3434               	retlw	52
   968  0812  3432               	retlw	50
   969  0813  342F               	retlw	47
   970  0814  342C               	retlw	44
   971  0815  342A               	retlw	42
   972  0816  3427               	retlw	39
   973  0817  3425               	retlw	37
   974  0818  3423               	retlw	35
   975  0819  3421               	retlw	33
   976  081A  341F               	retlw	31
   977  081B                     __end_of_notes:
   978  000C                     _PORTA	set	12
   979  000C                     _PORTAbits	set	12
   980  005F                     _GIE	set	95
   981  005E                     _PEIE	set	94
   982  00D5                     _LATC5	set	213
   983  00D4                     _LATC4	set	212
   984  00D3                     _LATC3	set	211
   985  00D2                     _LATC2	set	210
   986  00D1                     _LATC1	set	209
   987  00D0                     _LATC0	set	208
   988  00C2                     _LATA2	set	194
   989  00C1                     _LATA1	set	193
   990  00A5                     _TRISC5	set	165
   991  00A4                     _TRISC4	set	164
   992  00A3                     _TRISC3	set	163
   993  00A2                     _TRISC2	set	162
   994  00A1                     _TRISC1	set	161
   995  00A0                     _TRISC0	set	160
   996  0095                     _TRISA5	set	149
   997  0094                     _TRISA4	set	148
   998  0093                     _TRISA3	set	147
   999  0092                     _TRISA2	set	146
  1000  0091                     _TRISA1	set	145
  1001  0090                     _TRISA0	set	144
  1002  009B                     _ADRES	set	155
  1003  009D                     _ADCON0bits	set	157
  1004  009E                     _ADCON1bits	set	158
  1005  020C                     _TMR1L	set	524
  1006  020D                     _TMR1H	set	525
  1007  0211                     _T1CLKbits	set	529
  1008  020E                     _T1CONbits	set	526
  1009  028F                     _T2HLTbits	set	655
  1010  028E                     _T2CONbits	set	654
  1011  0290                     _T2CLKCON	set	656
  1012  0314                     _PWM3DC	set	788
  1013  031A                     _PWM4CON	set	794
  1014  0316                     _PWM3CON	set	790
  1015  0316                     _PWM3CONbits	set	790
  1016  059D                     _TMR0H	set	1437
  1017  059F                     _T0CON1bits	set	1439
  1018  059E                     _T0CON0bits	set	1438
  1019  070C                     _PIR0bits	set	1804
  1020  070D                     _PIR1bits	set	1805
  1021  38B4                     _IOCIE	set	14516
  1022  38B0                     _INTE	set	14512
  1023  38BD                     _TMR1IE	set	14525
  1024  38B5                     _TMR0IE	set	14517
  1025  081C                     _NVMDAT	set	2076
  1026  081A                     _NVMADR	set	2074
  1027  081E                     _NVMCON1bits	set	2078
  1028  0891                     _OSCENbits	set	2193
  1029  0893                     _OSCFRQbits	set	2195
  1030  090C                     _FVRCONbits	set	2316
  1031  1F22                     _RC2PPS	set	7970
  1032  1F4E                     _ANSELC	set	8014
  1033  1F38                     _ANSELAbits	set	7992
  1034  F9FB                     _IOCAF3	set	63995
  1035  F9F8                     _IOCAF0	set	63992
  1036  F9FC                     _IOCAF4	set	63996
  1037  F9EC                     _IOCAP4	set	63980
  1038  F9F4                     _IOCAN4	set	63988
  1039  F9EB                     _IOCAP3	set	63979
  1040  F9F3                     _IOCAN3	set	63987
  1041  F9E8                     _IOCAP0	set	63976
  1042  F9F0                     _IOCAN0	set	63984
  1043  F9CC                     _WPUA4	set	63948
  1044  F9CB                     _WPUA3	set	63947
  1045  F9C8                     _WPUA0	set	63944
  1046                           
  1047                           	psect	cinit
  1048  010D                     start_initialization:	
  1049                           ; #config settings
  1050                           
  1051  010D                     __initialization:
  1052                           
  1053                           ; Initialize objects allocated to BANK0
  1054  010D  318F  27D0  3181   	fcall	__pidataBANK0	;fetch initializer
  1055  0110  00E2               	movwf	__pdataBANK0& (0+127)
  1056  0111  318F  27D1  3181   	fcall	__pidataBANK0+1	;fetch initializer
  1057  0114  00E3               	movwf	(__pdataBANK0+1)& (0+127)
  1058  0115  318F  27D2  3181   	fcall	__pidataBANK0+2	;fetch initializer
  1059  0118  00E4               	movwf	(__pdataBANK0+2)& (0+127)
  1060                           
  1061                           ; Clear objects allocated to BITCOMMON
  1062  0119  01FC               	clrf	(__pbitbssCOMMON/(0+8))& (0+127)
  1063                           
  1064                           ; Clear objects allocated to COMMON
  1065  011A  01FA               	clrf	__pbssCOMMON& (0+127)
  1066  011B  01FB               	clrf	(__pbssCOMMON+1)& (0+127)
  1067                           
  1068                           ; Clear objects allocated to BANK0
  1069  011C  3020               	movlw	low __pbssBANK0
  1070  011D  0084               	movwf	4
  1071  011E  3000               	movlw	high __pbssBANK0
  1072  011F  0085               	movwf	5
  1073  0120  302F               	movlw	47
  1074  0121  318F  27D3  3181   	fcall	clear_ram0
  1075  0124                     end_of_initialization:	
  1076                           ;End of C runtime variable initialization code
  1077                           
  1078  0124                     __end_of__initialization:
  1079  0124  107E               	bcf	int$flags,0	;clear compiler interrupt flag (level 1)
  1080  0125  0140               	movlb	0
  1081  0126  3182  2AE8         	ljmp	_main	;jump to C main() function
  1082                           
  1083                           	psect	bitbssCOMMON
  1084  03E0                     __pbitbssCOMMON:
  1085  03E0                     _pinState:
  1086  03E0                     	ds	1
  1087                           
  1088                           	psect	bssCOMMON
  1089  007A                     __pbssCOMMON:
  1090  007A                     _i:
  1091  007A                     	ds	2
  1092                           
  1093                           	psect	bssBANK0
  1094  0020                     __pbssBANK0:
  1095  0020                     _calibrationMV:
  1096  0020                     	ds	2
  1097  0022                     _adcVolts:
  1098  0022                     	ds	2
  1099  0024                     _battVolts:
  1100  0024                     	ds	2
  1101  0026                     _charging:
  1102  0026                     	ds	2
  1103  0028                     _gotTheTouch:
  1104  0028                     	ds	2
  1105  002A                     _lidOpen:
  1106  002A                     	ds	2
  1107  002C                     _lowPowerMode:
  1108  002C                     	ds	2
  1109  002E                     _showCharge:
  1110  002E                     	ds	2
  1111  0030                     _poweredOn:
  1112  0030                     	ds	2
  1113  0032                     _genericDelay:
  1114  0032                     	ds	2
  1115  0034                     _playIndex:
  1116  0034                     	ds	2
  1117  0036                     _postscaler:
  1118  0036                     	ds	2
  1119  0038                     _abortAbort:
  1120  0038                     	ds	2
  1121  003A                     _gate:
  1122  003A                     	ds	2
  1123  003C                     _forceArc:
  1124  003C                     	ds	2
  1125  003E                     _chargeCycle:
  1126  003E                     	ds	1
  1127  003F                     _runIndex:
  1128  003F                     	ds	1
  1129  0040                     _fadeUp:
  1130  0040                     	ds	1
  1131  0041                     _buttonDebounce:
  1132  0041                     	ds	1
  1133  0042                     _clockDivider:
  1134  0042                     	ds	1
  1135  0043                     _aPorts:
  1136  0043                     	ds	12
  1137                           
  1138                           	psect	dataBANK0
  1139  0062                     __pdataBANK0:
  1140  0062                     _noGate:
  1141  0062                     	ds	2
  1142  0064                     _debugging:
  1143  0064                     	ds	1
  1144                           
  1145                           	psect	clrtext
  1146  0FD3                     clear_ram0:	
  1147                           ;	Called with FSR0 containing the base address, and
  1148                           ;	WREG with the size to clear
  1149                           
  1150  0FD3  0064               	clrwdt	;clear the watchdog before getting into this loop
  1151  0FD4                     clrloop0:
  1152  0FD4  0180               	clrf	0	;clear RAM location pointed to by FSR
  1153  0FD5  3101               	addfsr 0,1
  1154  0FD6  0B89               	decfsz	9,f	;Have we reached the end of clearing yet?
  1155  0FD7  2FD4               	goto	clrloop0	;have we reached the end yet?
  1156  0FD8  3400               	retlw	0	;all done for this memory range, return
  1157                           
  1158                           	psect	cstackCOMMON
  1159  0070                     __pcstackCOMMON:
  1160  0070                     ?_fade:
  1161  0070                     ?_chargeIndicator:	
  1162                           ; 1 bytes @ 0x0
  1163                           
  1164  0070                     ?_doTheArc:	
  1165                           ; 1 bytes @ 0x0
  1166                           
  1167  0070                     ?_goToLPmode:	
  1168                           ; 1 bytes @ 0x0
  1169                           
  1170  0070                     ?_isr:	
  1171                           ; 1 bytes @ 0x0
  1172                           
  1173  0070                     ??_isr:	
  1174                           ; 1 bytes @ 0x0
  1175                           
  1176                           
  1177                           ; 1 bytes @ 0x0
  1178  0070                     	ds	1
  1179  0071                     ?_ButtonDebounceInit:
  1180  0071                     ?_blockingDelay:	
  1181                           ; 1 bytes @ 0x1
  1182                           
  1183  0071                     ??_fade:	
  1184                           ; 1 bytes @ 0x1
  1185                           
  1186  0071                     ?_playNote:	
  1187                           ; 1 bytes @ 0x1
  1188                           
  1189  0071                     ?___aldiv:	
  1190                           ; 1 bytes @ 0x1
  1191                           
  1192  0071                     ButtonDebounceInit@pulledUpButtons:	
  1193                           ; 4 bytes @ 0x1
  1194                           
  1195  0071                     blockingDelay@mSecs:	
  1196                           ; 1 bytes @ 0x1
  1197                           
  1198  0071                     playNote@note:	
  1199                           ; 2 bytes @ 0x1
  1200                           
  1201  0071                     ___aldiv@divisor:	
  1202                           ; 2 bytes @ 0x1
  1203                           
  1204                           
  1205                           ; 4 bytes @ 0x1
  1206  0071                     	ds	1
  1207  0072                     ??_ButtonDebounceInit:
  1208                           
  1209                           ; 1 bytes @ 0x2
  1210  0072                     	ds	1
  1211  0073                     ??_blockingDelay:
  1212  0073                     ButtonDebounceInit@i:	
  1213                           ; 1 bytes @ 0x3
  1214                           
  1215  0073                     playNote@duration:	
  1216                           ; 1 bytes @ 0x3
  1217                           
  1218                           
  1219                           ; 2 bytes @ 0x3
  1220  0073                     	ds	1
  1221  0074                     ButtonDebounceInit@port:
  1222                           
  1223                           ; 1 bytes @ 0x4
  1224  0074                     	ds	1
  1225  0075                     ??_doTheArc:
  1226  0075                     ??_goToLPmode:	
  1227                           ; 1 bytes @ 0x5
  1228                           
  1229  0075                     ??_playNote:	
  1230                           ; 1 bytes @ 0x5
  1231                           
  1232  0075                     ___aldiv@dividend:	
  1233                           ; 1 bytes @ 0x5
  1234                           
  1235                           
  1236                           ; 4 bytes @ 0x5
  1237  0075                     	ds	4
  1238  0079                     ??___aldiv:
  1239                           
  1240                           ; 1 bytes @ 0x9
  1241  0079                     	ds	1
  1242                           
  1243                           	psect	cstackBANK0
  1244  004F                     __pcstackBANK0:
  1245  004F                     ___aldiv@counter:
  1246                           
  1247                           ; 1 bytes @ 0x0
  1248  004F                     	ds	1
  1249  0050                     ___aldiv@sign:
  1250                           
  1251                           ; 1 bytes @ 0x1
  1252  0050                     	ds	1
  1253  0051                     ___aldiv@quotient:
  1254                           
  1255                           ; 4 bytes @ 0x2
  1256  0051                     	ds	4
  1257  0055                     ??_chargeIndicator:
  1258                           
  1259                           ; 1 bytes @ 0x6
  1260  0055                     	ds	4
  1261  0059                     _chargeIndicator$1249:
  1262                           
  1263                           ; 4 bytes @ 0xA
  1264  0059                     	ds	4
  1265  005D                     ?_main:
  1266  005D                     main@argc:	
  1267                           ; 2 bytes @ 0xE
  1268                           
  1269                           
  1270                           ; 2 bytes @ 0xE
  1271  005D                     	ds	2
  1272  005F                     main@argv:
  1273                           
  1274                           ; 2 bytes @ 0x10
  1275  005F                     	ds	2
  1276  0061                     ??_main:
  1277                           
  1278                           ; 1 bytes @ 0x12
  1279  0061                     	ds	1
  1280                           
  1281                           	psect	maintext
  1282  02E8                     __pmaintext:	
  1283 ;;
  1284 ;;Main: autosize = 0, tempsize = 1, incstack = 0, save=0
  1285 ;;
  1286 ;; *************** function _main *****************
  1287 ;; Defined at:
  1288 ;;		line 370 in file "main.c"
  1289 ;; Parameters:    Size  Location     Type
  1290 ;;  argc            2   14[BANK0 ] int 
  1291 ;;  argv            2   16[BANK0 ] PTR PTR unsigned char 
  1292 ;; Auto vars:     Size  Location     Type
  1293 ;;		None
  1294 ;; Return value:  Size  Location     Type
  1295 ;;                  2   14[BANK0 ] int 
  1296 ;; Registers used:
  1297 ;;		wreg, fsr0l, fsr0h, fsr1l, fsr1h, status,2, status,0, pclath, cstack
  1298 ;; Tracked objects:
  1299 ;;		On entry : B3F/0
  1300 ;;		On exit  : 0/0
  1301 ;;		Unchanged: 0/0
  1302 ;; Data sizes:     COMMON   BANK0   BANK1   BANK2   BANK3   BANK4   BANK5   BANK6
  1303 ;;      Params:         0       4       0       0       0       0       0       0
  1304 ;;      Locals:         0       0       0       0       0       0       0       0
  1305 ;;      Temps:          0       1       0       0       0       0       0       0
  1306 ;;      Totals:         0       5       0       0       0       0       0       0
  1307 ;;Total ram usage:        5 bytes
  1308 ;; Hardware stack levels required when called: 3
  1309 ;; This function calls:
  1310 ;;		_ButtonDebounceInit
  1311 ;;		_blockingDelay
  1312 ;;		_chargeIndicator
  1313 ;;		_doTheArc
  1314 ;;		_fade
  1315 ;;		_goToLPmode
  1316 ;; This function is called by:
  1317 ;;		Startup code after reset
  1318 ;; This function uses a non-reentrant model
  1319 ;;
  1320                           
  1321                           
  1322                           ;psect for function _main
  1323  02E8                     _main:
  1324  02E8                     l2002:	
  1325                           ;incstack = 0
  1326                           ; Regs used in _main: [wreg-fsr1h+status,2+status,0+pclath+cstack]
  1327                           
  1328                           
  1329                           ;main.c: 374:     ANSELAbits.ANSA0 = 0;
  1330  02E8  017E               	movlb	62	; select bank62
  1331  02E9  1038               	bcf	56,0	;volatile
  1332                           
  1333                           ;main.c: 375:     ANSELAbits.ANSA1 = 0;
  1334  02EA  10B8               	bcf	56,1	;volatile
  1335                           
  1336                           ;main.c: 376:     ANSELAbits.ANSA2 = 0;
  1337  02EB  1138               	bcf	56,2	;volatile
  1338                           
  1339                           ;main.c: 378:     ANSELAbits.ANSA4 = 0;
  1340  02EC  1238               	bcf	56,4	;volatile
  1341  02ED                     l2004:
  1342                           
  1343                           ;main.c: 385:     ANSELC = 0x0;
  1344  02ED  01CE               	clrf	78	;volatile
  1345  02EE                     l2006:
  1346                           
  1347                           ;main.c: 389:     TRISA0 = 1;
  1348  02EE  0140               	movlb	0	; select bank0
  1349  02EF  1412               	bsf	18,0	;volatile
  1350  02F0                     l2008:
  1351                           
  1352                           ;main.c: 390:     WPUA0 = 1;
  1353  02F0  017E               	movlb	62	; select bank62
  1354  02F1  1439               	bsf	57,0	;volatile
  1355  02F2                     l2010:
  1356                           
  1357                           ;main.c: 391:     TRISA1 = 0;
  1358  02F2  0140               	movlb	0	; select bank0
  1359  02F3  1092               	bcf	18,1	;volatile
  1360  02F4                     l2012:
  1361                           
  1362                           ;main.c: 392:     TRISA2 = 0;
  1363  02F4  1112               	bcf	18,2	;volatile
  1364  02F5                     l2014:
  1365                           
  1366                           ;main.c: 393:     TRISA3 = 1;
  1367  02F5  1592               	bsf	18,3	;volatile
  1368  02F6                     l2016:
  1369                           
  1370                           ;main.c: 394:     WPUA3 = 1;
  1371  02F6  017E               	movlb	62	; select bank62
  1372  02F7  15B9               	bsf	57,3	;volatile
  1373  02F8                     l2018:
  1374                           
  1375                           ;main.c: 395:     TRISA4 = 1;
  1376  02F8  0140               	movlb	0	; select bank0
  1377  02F9  1612               	bsf	18,4	;volatile
  1378  02FA                     l2020:
  1379                           
  1380                           ;main.c: 396:     WPUA4 = 1;
  1381  02FA  017E               	movlb	62	; select bank62
  1382  02FB  1639               	bsf	57,4	;volatile
  1383  02FC                     l2022:
  1384                           
  1385                           ;main.c: 397:     TRISA5 = 1;
  1386  02FC  0140               	movlb	0	; select bank0
  1387  02FD  1692               	bsf	18,5	;volatile
  1388  02FE                     l2024:
  1389                           
  1390                           ;main.c: 398:     TRISC0 = 0;
  1391  02FE  1014               	bcf	20,0	;volatile
  1392  02FF                     l2026:
  1393                           
  1394                           ;main.c: 399:     TRISC1 = 0;
  1395  02FF  1094               	bcf	20,1	;volatile
  1396  0300                     l2028:
  1397                           
  1398                           ;main.c: 400:     TRISC2 = 0;
  1399  0300  1114               	bcf	20,2	;volatile
  1400  0301                     l2030:
  1401                           
  1402                           ;main.c: 401:     TRISC3 = 0;
  1403  0301  1194               	bcf	20,3	;volatile
  1404  0302                     l2032:
  1405                           
  1406                           ;main.c: 402:     TRISC4 = 0;
  1407  0302  1214               	bcf	20,4	;volatile
  1408  0303                     l2034:
  1409                           
  1410                           ;main.c: 403:     TRISC5 = 0;
  1411  0303  1294               	bcf	20,5	;volatile
  1412  0304                     l2036:
  1413                           
  1414                           ;main.c: 406:     LATA1 = 1;
  1415  0304  1498               	bsf	24,1	;volatile
  1416  0305                     l2038:
  1417                           
  1418                           ;main.c: 407:     LATA2 = 1;
  1419  0305  1518               	bsf	24,2	;volatile
  1420  0306                     l2040:
  1421                           
  1422                           ;main.c: 408:     LATC0 = 1;
  1423  0306  141A               	bsf	26,0	;volatile
  1424  0307                     l2042:
  1425                           
  1426                           ;main.c: 409:     LATC1 = 1;
  1427  0307  149A               	bsf	26,1	;volatile
  1428  0308                     l2044:
  1429                           
  1430                           ;main.c: 410:     LATC2 = 1;
  1431  0308  151A               	bsf	26,2	;volatile
  1432  0309                     l2046:
  1433                           
  1434                           ;main.c: 411:     LATC3 = 0;
  1435  0309  119A               	bcf	26,3	;volatile
  1436  030A                     l2048:
  1437                           
  1438                           ;main.c: 412:     LATC4 = 0;
  1439  030A  121A               	bcf	26,4	;volatile
  1440  030B                     l2050:
  1441                           
  1442                           ;main.c: 413:     LATC5 = 0;
  1443  030B  129A               	bcf	26,5	;volatile
  1444  030C                     l2052:
  1445                           
  1446                           ;main.c: 416:     ButtonDebounceInit(&aPorts, (0x0001) | (0x0008));
  1447  030C  3009               	movlw	9
  1448  030D  00E1               	movwf	??_main
  1449  030E  0861               	movf	??_main,w
  1450  030F  00F1               	movwf	ButtonDebounceInit@pulledUpButtons
  1451  0310  3043               	movlw	(low (_aPorts| 0))& (0+255)
  1452  0311  3187  27CC  3182   	fcall	_ButtonDebounceInit
  1453  0314                     l2054:
  1454                           
  1455                           ;main.c: 423:     OSCFRQbits.FRQ = 0b101;
  1456  0314  0151               	movlb	17	; select bank17
  1457  0315  0813               	movf	19,w	;volatile
  1458  0316  39F8               	andlw	-8
  1459  0317  3805               	iorlw	5
  1460  0318  0093               	movwf	19	;volatile
  1461  0319                     l2056:
  1462                           
  1463                           ;main.c: 424:     OSCENbits.HFOEN = 1;
  1464  0319  1711               	bsf	17,6	;volatile
  1465  031A                     l2058:
  1466                           
  1467                           ;main.c: 430:     T0CON0bits.MD16 = 0;
  1468  031A  014B               	movlb	11	; select bank11
  1469  031B  121E               	bcf	30,4	;volatile
  1470  031C                     l2060:
  1471                           
  1472                           ;main.c: 431:     T0CON0bits.OUTPS = 0b0000;
  1473  031C  30F0               	movlw	-16
  1474  031D  059E               	andwf	30,f	;volatile
  1475  031E                     l2062:
  1476                           
  1477                           ;main.c: 432:     T0CON1bits.CS = 0b010;
  1478  031E  081F               	movf	31,w	;volatile
  1479  031F  391F               	andlw	-225
  1480  0320  3840               	iorlw	64
  1481  0321  009F               	movwf	31	;volatile
  1482  0322                     l2064:
  1483                           
  1484                           ;main.c: 433:     T0CON1bits.ASYNC = 0;
  1485  0322  121F               	bcf	31,4	;volatile
  1486  0323                     l2066:
  1487                           
  1488                           ;main.c: 434:     T0CON1bits.CKPS = 0b0110;
  1489  0323  081F               	movf	31,w	;volatile
  1490  0324  39F0               	andlw	-16
  1491  0325  3806               	iorlw	6
  1492  0326  009F               	movwf	31	;volatile
  1493  0327                     l2068:
  1494                           
  1495                           ;main.c: 435:     T0CON0bits.EN = 1;
  1496  0327  179E               	bsf	30,7	;volatile
  1497  0328                     l2070:
  1498                           
  1499                           ;main.c: 439:     T1CONbits.CKPS = 0b00;
  1500  0328  30CF               	movlw	-49
  1501  0329  0144               	movlb	4	; select bank4
  1502  032A  058E               	andwf	14,f	;volatile
  1503  032B                     l2072:
  1504                           
  1505                           ;main.c: 440:     T1CONbits.RD16 = 0;
  1506  032B  108E               	bcf	14,1	;volatile
  1507  032C                     l2074:
  1508                           
  1509                           ;main.c: 441:     T1CLKbits.CS = 0b00001;
  1510  032C  3001               	movlw	1
  1511  032D  0091               	movwf	17	;volatile
  1512  032E                     l2076:
  1513                           
  1514                           ;main.c: 442:     TMR1H = 0xFE;
  1515  032E  30FE               	movlw	254
  1516  032F  008D               	movwf	13	;volatile
  1517  0330                     l2078:
  1518                           
  1519                           ;main.c: 443:     TMR1L = 0x55;
  1520  0330  3055               	movlw	85
  1521  0331  008C               	movwf	12	;volatile
  1522  0332                     l2080:
  1523                           
  1524                           ;main.c: 444:     T1CONbits.ON = 1;
  1525  0332  140E               	bsf	14,0	;volatile
  1526  0333                     l2082:
  1527                           
  1528                           ;main.c: 448:     T2CLKCON = 0b001;
  1529  0333  3001               	movlw	1
  1530  0334  0145               	movlb	5	; select bank5
  1531  0335  0090               	movwf	16	;volatile
  1532  0336                     l2084:
  1533                           
  1534                           ;main.c: 449:     T2CONbits.T2CKPS = 0b110;
  1535  0336  080E               	movf	14,w	;volatile
  1536  0337  398F               	andlw	-113
  1537  0338  3860               	iorlw	96
  1538  0339  008E               	movwf	14	;volatile
  1539  033A                     l2086:
  1540                           
  1541                           ;main.c: 450:     T2HLTbits.PSYNC = 1;
  1542  033A  178F               	bsf	15,7	;volatile
  1543  033B                     l2088:
  1544                           
  1545                           ;main.c: 453:     T2CONbits.TMR2ON = 1;
  1546  033B  178E               	bsf	14,7	;volatile
  1547  033C                     l2090:
  1548                           
  1549                           ;main.c: 456:     TMR0IE = 1;
  1550  033C  014E               	movlb	14	; select bank14
  1551  033D  1696               	bsf	22,5	;volatile
  1552  033E                     l2092:
  1553                           
  1554                           ;main.c: 457:     TMR1IE = 1;
  1555  033E  1697               	bsf	23,5	;volatile
  1556  033F                     l2094:
  1557                           
  1558                           ;main.c: 461:     FVRCONbits.ADFVR = 0b01;
  1559  033F  0152               	movlb	18	; select bank18
  1560  0340  080C               	movf	12,w	;volatile
  1561  0341  39FC               	andlw	-4
  1562  0342  3801               	iorlw	1
  1563  0343  008C               	movwf	12	;volatile
  1564  0344                     l2096:
  1565                           
  1566                           ;main.c: 462:     FVRCONbits.FVREN = 1;
  1567  0344  178C               	bsf	12,7	;volatile
  1568  0345                     l2098:
  1569                           
  1570                           ;main.c: 466:     if (!debugging) NVMCON1bits.NVMREGS = 1;
  1571  0345  0140               	movlb	0	; select bank0
  1572  0346  0864               	movf	_debugging,w
  1573  0347  1D03               	btfss	3,2
  1574  0348  2B4A               	goto	u1971
  1575  0349  2B4B               	goto	u1970
  1576  034A                     u1971:
  1577  034A  2B4D               	goto	l215
  1578  034B                     u1970:
  1579  034B                     l2100:
  1580  034B  0150               	movlb	16	; select bank16
  1581  034C  171E               	bsf	30,6	;volsfr
  1582  034D                     l215:
  1583                           
  1584                           ;main.c: 467:     NVMADR = 0x8118;
  1585  034D  3081               	movlw	129
  1586  034E  0150               	movlb	16	; select bank16
  1587  034F  009B               	movwf	27	;volatile
  1588  0350  3018               	movlw	24
  1589  0351  009A               	movwf	26	;volatile
  1590                           
  1591                           ;main.c: 468:     NVMCON1bits.RD = 1;
  1592  0352  141E               	bsf	30,0	;volsfr
  1593  0353                     l2102:
  1594                           
  1595                           ;main.c: 469:     if (!debugging) while (NVMCON1bits.RD == 1);
  1596  0353  0140               	movlb	0	; select bank0
  1597  0354  0864               	movf	_debugging,w
  1598  0355  1D03               	btfss	3,2
  1599  0356  2B58               	goto	u1981
  1600  0357  2B59               	goto	u1980
  1601  0358                     u1981:
  1602  0358  2B5E               	goto	l2106
  1603  0359                     u1980:
  1604  0359                     l217:
  1605  0359  0150               	movlb	16	; select bank16
  1606  035A  181E               	btfsc	30,0	;volsfr
  1607  035B  2B5D               	goto	u1991
  1608  035C  2B5E               	goto	u1990
  1609  035D                     u1991:
  1610  035D  2B59               	goto	l217
  1611  035E                     u1990:
  1612  035E                     l2106:
  1613                           
  1614                           ;main.c: 470:     calibrationMV = NVMDAT;
  1615  035E  0150               	movlb	16	; select bank16
  1616  035F  081D               	movf	29,w	;volatile
  1617  0360  0140               	movlb	0	; select bank0
  1618  0361  00A1               	movwf	_calibrationMV+1
  1619  0362  0150               	movlb	16	; select bank16
  1620  0363  081C               	movf	28,w	;volatile
  1621  0364  0140               	movlb	0	; select bank0
  1622  0365  00A0               	movwf	_calibrationMV
  1623  0366                     l2108:
  1624                           
  1625                           ;main.c: 471:     if (!debugging) NVMCON1bits.NVMREGS = 0;
  1626  0366  0864               	movf	_debugging,w
  1627  0367  1D03               	btfss	3,2
  1628  0368  2B6A               	goto	u2001
  1629  0369  2B6B               	goto	u2000
  1630  036A                     u2001:
  1631  036A  2B6D               	goto	l2112
  1632  036B                     u2000:
  1633  036B                     l2110:
  1634  036B  0150               	movlb	16	; select bank16
  1635  036C  131E               	bcf	30,6	;volsfr
  1636  036D                     l2112:
  1637                           
  1638                           ;main.c: 474:     ADCON1bits.CS = 0b110;
  1639  036D  0141               	movlb	1	; select bank1
  1640  036E  081E               	movf	30,w	;volatile
  1641  036F  398F               	andlw	-113
  1642  0370  3860               	iorlw	96
  1643  0371  009E               	movwf	30	;volatile
  1644                           
  1645                           ;main.c: 475:     ADCON1bits.PREF = 0b00;
  1646  0372  30FC               	movlw	-4
  1647  0373  059E               	andwf	30,f	;volatile
  1648                           
  1649                           ;main.c: 476:     ADCON0bits.CHS = 0b011110;
  1650  0374  081D               	movf	29,w	;volatile
  1651  0375  3903               	andlw	-253
  1652  0376  3878               	iorlw	120
  1653  0377  009D               	movwf	29	;volatile
  1654  0378                     l2114:
  1655                           
  1656                           ;main.c: 477:     ADCON1bits.FM = 1;
  1657  0378  179E               	bsf	30,7	;volatile
  1658                           
  1659                           ;main.c: 480:     if (!debugging) ADCON0bits.ON = 1;
  1660  0379  0140               	movlb	0	; select bank0
  1661  037A  0864               	movf	_debugging,w
  1662  037B  1D03               	btfss	3,2
  1663  037C  2B7E               	goto	u2011
  1664  037D  2B7F               	goto	u2010
  1665  037E                     u2011:
  1666  037E  2B81               	goto	l221
  1667  037F                     u2010:
  1668  037F                     l2116:
  1669  037F  0141               	movlb	1	; select bank1
  1670  0380  141D               	bsf	29,0	;volatile
  1671  0381                     l221:
  1672                           
  1673                           ;main.c: 493:     IOCAN0 = 1;
  1674  0381  017E               	movlb	62	; select bank62
  1675  0382  143E               	bsf	62,0	;volatile
  1676                           
  1677                           ;main.c: 494:     IOCAP0 = 1;
  1678  0383  143D               	bsf	61,0	;volatile
  1679                           
  1680                           ;main.c: 495:     IOCAN3 = 1;
  1681  0384  15BE               	bsf	62,3	;volatile
  1682                           
  1683                           ;main.c: 496:     IOCAP3 = 1;
  1684  0385  15BD               	bsf	61,3	;volatile
  1685                           
  1686                           ;main.c: 497:     IOCAN4 = 1;
  1687  0386  163E               	bsf	62,4	;volatile
  1688                           
  1689                           ;main.c: 498:     IOCAP4 = 1;
  1690  0387  163D               	bsf	61,4	;volatile
  1691                           
  1692                           ;main.c: 501:     INTE = 0;
  1693  0388  014E               	movlb	14	; select bank14
  1694  0389  1016               	bcf	22,0	;volatile
  1695                           
  1696                           ;main.c: 503:     PEIE = 1;
  1697  038A  170B               	bsf	11,6	;volatile
  1698                           
  1699                           ;main.c: 504:     IOCIE = 1;
  1700  038B  1616               	bsf	22,4	;volatile
  1701                           
  1702                           ;main.c: 505:     GIE = 1;
  1703  038C  178B               	bsf	11,7	;volatile
  1704                           
  1705                           ;main.c: 508:     LATC2 = 0;
  1706  038D  0140               	movlb	0	; select bank0
  1707  038E  111A               	bcf	26,2	;volatile
  1708  038F                     l2118:
  1709                           
  1710                           ;main.c: 509:     blockingDelay(100);
  1711  038F  3064               	movlw	100
  1712  0390  00F1               	movwf	blockingDelay@mSecs
  1713  0391  3000               	movlw	0
  1714  0392  00F2               	movwf	blockingDelay@mSecs+1
  1715  0393  318F  27D9  3182   	fcall	_blockingDelay
  1716  0396                     l2120:
  1717                           
  1718                           ;main.c: 510:     LATC2 = 1;
  1719  0396  0140               	movlb	0	; select bank0
  1720  0397  151A               	bsf	26,2	;volatile
  1721                           
  1722                           ;main.c: 511:     blockingDelay(100);
  1723  0398  3064               	movlw	100
  1724  0399  00F1               	movwf	blockingDelay@mSecs
  1725  039A  3000               	movlw	0
  1726  039B  00F2               	movwf	blockingDelay@mSecs+1
  1727  039C  318F  27D9  3182   	fcall	_blockingDelay
  1728  039F                     l2122:
  1729                           
  1730                           ;main.c: 512:     LATC2 = 0;
  1731  039F  0140               	movlb	0	; select bank0
  1732  03A0  111A               	bcf	26,2	;volatile
  1733                           
  1734                           ;main.c: 513:     blockingDelay(100);
  1735  03A1  3064               	movlw	100
  1736  03A2  00F1               	movwf	blockingDelay@mSecs
  1737  03A3  3000               	movlw	0
  1738  03A4  00F2               	movwf	blockingDelay@mSecs+1
  1739  03A5  318F  27D9  3182   	fcall	_blockingDelay
  1740  03A8                     l2124:
  1741                           
  1742                           ;main.c: 514:     LATC2 = 1;
  1743  03A8  0140               	movlb	0	; select bank0
  1744  03A9  151A               	bsf	26,2	;volatile
  1745                           
  1746                           ;main.c: 515:     blockingDelay(100);
  1747  03AA  3064               	movlw	100
  1748  03AB  00F1               	movwf	blockingDelay@mSecs
  1749  03AC  3000               	movlw	0
  1750  03AD  00F2               	movwf	blockingDelay@mSecs+1
  1751  03AE  318F  27D9  3182   	fcall	_blockingDelay
  1752  03B1                     l2126:
  1753                           
  1754                           ;main.c: 516:     LATC2 = 0;
  1755  03B1  0140               	movlb	0	; select bank0
  1756  03B2  111A               	bcf	26,2	;volatile
  1757                           
  1758                           ;main.c: 517:     blockingDelay(100);
  1759  03B3  3064               	movlw	100
  1760  03B4  00F1               	movwf	blockingDelay@mSecs
  1761  03B5  3000               	movlw	0
  1762  03B6  00F2               	movwf	blockingDelay@mSecs+1
  1763  03B7  318F  27D9  3182   	fcall	_blockingDelay
  1764  03BA                     l2128:
  1765                           
  1766                           ;main.c: 518:     LATC2 = 1;
  1767  03BA  0140               	movlb	0	; select bank0
  1768  03BB  151A               	bsf	26,2	;volatile
  1769  03BC                     l2130:
  1770                           
  1771                           ;main.c: 522:         forceArc = 0;
  1772  03BC  0140               	movlb	0	; select bank0
  1773  03BD  01BC               	clrf	_forceArc
  1774  03BE  01BD               	clrf	_forceArc+1
  1775  03BF                     l2132:
  1776                           
  1777                           ;main.c: 523:         if (fadeUp > 0) {
  1778  03BF  0840               	movf	_fadeUp,w
  1779  03C0  1903               	btfsc	3,2
  1780  03C1  2BC3               	goto	u2021
  1781  03C2  2BC4               	goto	u2020
  1782  03C3                     u2021:
  1783  03C3  2BC8               	goto	l2136
  1784  03C4                     u2020:
  1785  03C4                     l2134:
  1786                           
  1787                           ;main.c: 524:             fade();
  1788  03C4  3187  2749  3182   	fcall	_fade
  1789                           
  1790                           ;main.c: 525:         } else {
  1791  03C7  2BBC               	goto	l2130
  1792  03C8                     l2136:
  1793                           
  1794                           ;main.c: 526:             if (showCharge) chargeIndicator();
  1795  03C8  082E               	movf	_showCharge,w
  1796  03C9  042F               	iorwf	_showCharge+1,w
  1797  03CA  1903               	btfsc	3,2
  1798  03CB  2BCD               	goto	u2031
  1799  03CC  2BCE               	goto	u2030
  1800  03CD                     u2031:
  1801  03CD  2BD1               	goto	l2140
  1802  03CE                     u2030:
  1803  03CE                     l2138:
  1804  03CE  3185  25DD  3182   	fcall	_chargeIndicator
  1805  03D1                     l2140:
  1806                           
  1807                           ;main.c: 527:             if (poweredOn) {
  1808  03D1  0140               	movlb	0	; select bank0
  1809  03D2  0830               	movf	_poweredOn,w
  1810  03D3  0431               	iorwf	_poweredOn+1,w
  1811  03D4  1903               	btfsc	3,2
  1812  03D5  2BD7               	goto	u2041
  1813  03D6  2BD8               	goto	u2040
  1814  03D7                     u2041:
  1815  03D7  2BE4               	goto	l226
  1816  03D8                     u2040:
  1817  03D8                     l2142:
  1818                           
  1819                           ;main.c: 529:                 LATC2 = 0;
  1820  03D8  111A               	bcf	26,2	;volatile
  1821                           
  1822                           ;main.c: 531:                 LATC3 = 1;
  1823  03D9  159A               	bsf	26,3	;volatile
  1824  03DA                     l2144:
  1825                           
  1826                           ;main.c: 532:                 if (gotTheTouch) doTheArc();
  1827  03DA  0828               	movf	_gotTheTouch,w
  1828  03DB  0429               	iorwf	_gotTheTouch+1,w
  1829  03DC  1903               	btfsc	3,2
  1830  03DD  2BDF               	goto	u2051
  1831  03DE  2BE0               	goto	u2050
  1832  03DF                     u2051:
  1833  03DF  2BE6               	goto	l2148
  1834  03E0                     u2050:
  1835  03E0                     l2146:
  1836  03E0  3183  23F3  3182   	fcall	_doTheArc
  1837  03E3  2BE6               	goto	l2148
  1838  03E4                     l226:
  1839                           
  1840                           ;main.c: 535:                 LATC2 = 1;
  1841  03E4  151A               	bsf	26,2	;volatile
  1842                           
  1843                           ;main.c: 537:                 LATC3 = 0;
  1844  03E5  119A               	bcf	26,3	;volatile
  1845  03E6                     l2148:
  1846                           
  1847                           ;main.c: 539:             if (lowPowerMode) goToLPmode();
  1848  03E6  0140               	movlb	0	; select bank0
  1849  03E7  082C               	movf	_lowPowerMode,w
  1850  03E8  042D               	iorwf	_lowPowerMode+1,w
  1851  03E9  1903               	btfsc	3,2
  1852  03EA  2BEC               	goto	u2061
  1853  03EB  2BED               	goto	u2060
  1854  03EC                     u2061:
  1855  03EC  2BBC               	goto	l2130
  1856  03ED                     u2060:
  1857  03ED                     l2150:
  1858  03ED  318F  27EA  3182   	fcall	_goToLPmode
  1859  03F0  2BBC               	goto	l2130
  1860  03F1  3181  290B         	ljmp	start
  1861  03F3                     __end_of_main:
  1862                           
  1863                           	psect	text1
  1864  0FEA                     __ptext1:	
  1865 ;; *************** function _goToLPmode *****************
  1866 ;; Defined at:
  1867 ;;		line 774 in file "main.c"
  1868 ;; Parameters:    Size  Location     Type
  1869 ;;		None
  1870 ;; Auto vars:     Size  Location     Type
  1871 ;;		None
  1872 ;; Return value:  Size  Location     Type
  1873 ;;                  1    wreg      void 
  1874 ;; Registers used:
  1875 ;;		wreg, fsr0l, fsr0h, status,2, status,0, pclath, cstack
  1876 ;; Tracked objects:
  1877 ;;		On entry : 0/0
  1878 ;;		On exit  : 0/0
  1879 ;;		Unchanged: 0/0
  1880 ;; Data sizes:     COMMON   BANK0   BANK1   BANK2   BANK3   BANK4   BANK5   BANK6
  1881 ;;      Params:         0       0       0       0       0       0       0       0
  1882 ;;      Locals:         0       0       0       0       0       0       0       0
  1883 ;;      Temps:          0       0       0       0       0       0       0       0
  1884 ;;      Totals:         0       0       0       0       0       0       0       0
  1885 ;;Total ram usage:        0 bytes
  1886 ;; Hardware stack levels used: 1
  1887 ;; Hardware stack levels required when called: 2
  1888 ;; This function calls:
  1889 ;;		_playNote
  1890 ;; This function is called by:
  1891 ;;		_main
  1892 ;; This function uses a non-reentrant model
  1893 ;;
  1894                           
  1895                           
  1896                           ;psect for function _goToLPmode
  1897  0FEA                     _goToLPmode:
  1898  0FEA                     l1680:	
  1899                           ;incstack = 0
  1900                           ; Regs used in _goToLPmode: [wreg-fsr0h+status,2+status,0+pclath+cstack]
  1901                           
  1902                           
  1903                           ;main.c: 775:     forceArc = 0;
  1904  0FEA  0140               	movlb	0	; select bank0
  1905  0FEB  01BC               	clrf	_forceArc
  1906  0FEC  01BD               	clrf	_forceArc+1
  1907  0FED                     l1682:
  1908                           
  1909                           ;main.c: 776:     playNote(0, 100);
  1910  0FED  3000               	movlw	0
  1911  0FEE  00F1               	movwf	playNote@note
  1912  0FEF  00F2               	movwf	playNote@note+1
  1913  0FF0  3064               	movlw	100
  1914  0FF1  00F3               	movwf	playNote@duration
  1915  0FF2  3000               	movlw	0
  1916  0FF3  00F4               	movwf	playNote@duration+1
  1917  0FF4  3187  279A  318F   	fcall	_playNote
  1918  0FF7                     l1684:
  1919                           
  1920                           ;main.c: 778:     LATC3 = 0;
  1921  0FF7  0140               	movlb	0	; select bank0
  1922  0FF8  119A               	bcf	26,3	;volatile
  1923  0FF9                     l1686:
  1924                           
  1925                           ;main.c: 781:     LATA1 = 1;
  1926  0FF9  1498               	bsf	24,1	;volatile
  1927  0FFA                     l1688:
  1928                           
  1929                           ;main.c: 782:     LATA2 = 1;
  1930  0FFA  1518               	bsf	24,2	;volatile
  1931  0FFB                     l1690:
  1932                           
  1933                           ;main.c: 783:     LATC0 = 1;
  1934  0FFB  141A               	bsf	26,0	;volatile
  1935  0FFC                     l1692:
  1936                           
  1937                           ;main.c: 784:     LATC1 = 1;
  1938  0FFC  149A               	bsf	26,1	;volatile
  1939  0FFD                     l1694:
  1940                           
  1941                           ;main.c: 785:     LATC2 = 1;
  1942  0FFD  151A               	bsf	26,2	;volatile
  1943  0FFE  0063               	sleep	;# 
  1944  0FFF                     l316:
  1945  0FFF  0008               	return
  1946  1000                     __end_of_goToLPmode:
  1947                           
  1948                           	psect	text2
  1949  0749                     __ptext2:	
  1950 ;; *************** function _fade *****************
  1951 ;; Defined at:
  1952 ;;		line 804 in file "main.c"
  1953 ;; Parameters:    Size  Location     Type
  1954 ;;		None
  1955 ;; Auto vars:     Size  Location     Type
  1956 ;;		None
  1957 ;; Return value:  Size  Location     Type
  1958 ;;                  1    wreg      void 
  1959 ;; Registers used:
  1960 ;;		wreg, status,2, status,0
  1961 ;; Tracked objects:
  1962 ;;		On entry : 0/0
  1963 ;;		On exit  : 0/0
  1964 ;;		Unchanged: 0/0
  1965 ;; Data sizes:     COMMON   BANK0   BANK1   BANK2   BANK3   BANK4   BANK5   BANK6
  1966 ;;      Params:         0       0       0       0       0       0       0       0
  1967 ;;      Locals:         0       0       0       0       0       0       0       0
  1968 ;;      Temps:          0       0       0       0       0       0       0       0
  1969 ;;      Totals:         0       0       0       0       0       0       0       0
  1970 ;;Total ram usage:        0 bytes
  1971 ;; Hardware stack levels used: 1
  1972 ;; Hardware stack levels required when called: 1
  1973 ;; This function calls:
  1974 ;;		Nothing
  1975 ;; This function is called by:
  1976 ;;		_main
  1977 ;; This function uses a non-reentrant model
  1978 ;;
  1979                           
  1980                           
  1981                           ;psect for function _fade
  1982  0749                     _fade:
  1983  0749                     l1518:	
  1984                           ;incstack = 0
  1985                           ; Regs used in _fade: [wreg+status,2+status,0]
  1986                           
  1987                           
  1988                           ;main.c: 814:     if (fadeUp > 0) {
  1989  0749  0140               	movlb	0	; select bank0
  1990  074A  0840               	movf	_fadeUp,w
  1991  074B  1903               	btfsc	3,2
  1992  074C  2F4E               	goto	u1151
  1993  074D  2F4F               	goto	u1150
  1994  074E                     u1151:
  1995  074E  2F97               	goto	l1550
  1996  074F                     u1150:
  1997  074F                     l1520:
  1998                           
  1999                           ;main.c: 817:         if (fadeUp == 1) {
  2000  074F  0340               	decf	_fadeUp,w
  2001  0750  1D03               	btfss	3,2
  2002  0751  2F53               	goto	u1161
  2003  0752  2F54               	goto	u1160
  2004  0753                     u1161:
  2005  0753  2F82               	goto	l1538
  2006  0754                     u1160:
  2007  0754                     l1522:
  2008                           
  2009                           ;main.c: 818:             PWM3CONbits.EN = 1;
  2010  0754  0146               	movlb	6	; select bank6
  2011  0755  1796               	bsf	22,7	;volatile
  2012                           
  2013                           ;main.c: 819:             PWM3CONbits.POL = 1;
  2014  0756  1616               	bsf	22,4	;volatile
  2015  0757                     l1524:
  2016                           
  2017                           ;main.c: 823:             RC2PPS = 0x03;
  2018  0757  3003               	movlw	3
  2019  0758  017E               	movlb	62	; select bank62
  2020  0759  00A2               	movwf	34	;volatile
  2021  075A                     l1526:
  2022                           
  2023                           ;main.c: 826:             TRISC2 = 0;
  2024  075A  0140               	movlb	0	; select bank0
  2025  075B  1114               	bcf	20,2	;volatile
  2026                           
  2027                           ;main.c: 827:             i = 0x0040;
  2028  075C  3040               	movlw	64
  2029  075D  00FA               	movwf	_i
  2030  075E  3000               	movlw	0
  2031  075F  00FB               	movwf	_i+1
  2032  0760                     l324:	
  2033                           ;main.c: 828:             do {
  2034                           
  2035                           
  2036                           ;main.c: 829:                 genericDelay = 1;
  2037  0760  3001               	movlw	1
  2038  0761  0140               	movlb	0	; select bank0
  2039  0762  00B2               	movwf	_genericDelay
  2040  0763  3000               	movlw	0
  2041  0764  00B3               	movwf	_genericDelay+1
  2042  0765                     l1528:	
  2043                           ;main.c: 830:                 while (genericDelay > 0);
  2044                           
  2045  0765  0832               	movf	_genericDelay,w
  2046  0766  0433               	iorwf	_genericDelay+1,w
  2047  0767  1D03               	btfss	3,2
  2048  0768  2F6A               	goto	u1171
  2049  0769  2F6B               	goto	u1170
  2050  076A                     u1171:
  2051  076A  2F65               	goto	l1528
  2052  076B                     u1170:
  2053  076B                     l1530:
  2054                           
  2055                           ;main.c: 831:                 PWM3DC = i;
  2056  076B  087B               	movf	_i+1,w
  2057  076C  0146               	movlb	6	; select bank6
  2058  076D  0095               	movwf	21	;volatile
  2059  076E  087A               	movf	_i,w
  2060  076F  0094               	movwf	20	;volatile
  2061  0770                     l1532:
  2062                           
  2063                           ;main.c: 832:                 i = i + 64;
  2064  0770  087A               	movf	_i,w
  2065  0771  3E40               	addlw	64
  2066  0772  00FA               	movwf	_i
  2067  0773  3000               	movlw	0
  2068  0774  3D7B               	addwfc	_i+1,w
  2069  0775  00FB               	movwf	_i+1
  2070  0776                     l1534:
  2071                           
  2072                           ;main.c: 833:             } while (i < 0xFFC0);
  2073  0776  30FF               	movlw	255
  2074  0777  027B               	subwf	_i+1,w
  2075  0778  30C0               	movlw	192
  2076  0779  1903               	skipnz
  2077  077A  027A               	subwf	_i,w
  2078  077B  1C03               	skipc
  2079  077C  2F7E               	goto	u1181
  2080  077D  2F7F               	goto	u1180
  2081  077E                     u1181:
  2082  077E  2F60               	goto	l324
  2083  077F                     u1180:
  2084  077F                     l1536:
  2085                           
  2086                           ;main.c: 835:             RC2PPS = 0x00;
  2087  077F  017E               	movlb	62	; select bank62
  2088  0780  01A2               	clrf	34	;volatile
  2089                           
  2090                           ;main.c: 836:         }
  2091  0781  2F97               	goto	l1550
  2092  0782                     l1538:
  2093  0782  3002               	movlw	2
  2094  0783  0640               	xorwf	_fadeUp,w
  2095  0784  1D03               	btfss	3,2
  2096  0785  2F87               	goto	u1191
  2097  0786  2F88               	goto	u1190
  2098  0787                     u1191:
  2099  0787  2F89               	goto	l1542
  2100  0788                     u1190:
  2101  0788  2F97               	goto	l1550
  2102  0789                     l1542:
  2103  0789  3003               	movlw	3
  2104  078A  0640               	xorwf	_fadeUp,w
  2105  078B  1D03               	btfss	3,2
  2106  078C  2F8E               	goto	u1201
  2107  078D  2F8F               	goto	u1200
  2108  078E                     u1201:
  2109  078E  2F97               	goto	l329
  2110  078F                     u1200:
  2111  078F                     l1544:
  2112                           
  2113                           ;main.c: 844:             PWM3CON = 0x0;
  2114  078F  0146               	movlb	6	; select bank6
  2115  0790  0196               	clrf	22	;volatile
  2116  0791                     l1546:
  2117                           
  2118                           ;main.c: 845:             PWM3CON = 0b10010000;
  2119  0791  3090               	movlw	144
  2120  0792  0096               	movwf	22	;volatile
  2121  0793                     l1548:
  2122                           
  2123                           ;main.c: 846:             PWM4CON = 0x0;
  2124  0793  019A               	clrf	26	;volatile
  2125                           
  2126                           ;main.c: 847:             PWM4CON = 0b10010000;
  2127  0794  3090               	movlw	144
  2128  0795  009A               	movwf	26	;volatile
  2129  0796  2F97               	goto	l1550
  2130  0797                     l329:
  2131  0797                     l1550:
  2132                           
  2133                           ;main.c: 850:     fadeUp = 0;
  2134  0797  0140               	movlb	0	; select bank0
  2135  0798  01C0               	clrf	_fadeUp
  2136  0799                     l333:
  2137  0799  0008               	return
  2138  079A                     __end_of_fade:
  2139                           
  2140                           	psect	text3
  2141  03F3                     __ptext3:	
  2142 ;; *************** function _doTheArc *****************
  2143 ;; Defined at:
  2144 ;;		line 697 in file "main.c"
  2145 ;; Parameters:    Size  Location     Type
  2146 ;;		None
  2147 ;; Auto vars:     Size  Location     Type
  2148 ;;		None
  2149 ;; Return value:  Size  Location     Type
  2150 ;;                  1    wreg      void 
  2151 ;; Registers used:
  2152 ;;		wreg, fsr0l, fsr0h, status,2, status,0, pclath, cstack
  2153 ;; Tracked objects:
  2154 ;;		On entry : 0/0
  2155 ;;		On exit  : 0/0
  2156 ;;		Unchanged: 0/0
  2157 ;; Data sizes:     COMMON   BANK0   BANK1   BANK2   BANK3   BANK4   BANK5   BANK6
  2158 ;;      Params:         0       0       0       0       0       0       0       0
  2159 ;;      Locals:         0       0       0       0       0       0       0       0
  2160 ;;      Temps:          2       0       0       0       0       0       0       0
  2161 ;;      Totals:         2       0       0       0       0       0       0       0
  2162 ;;Total ram usage:        2 bytes
  2163 ;; Hardware stack levels used: 1
  2164 ;; Hardware stack levels required when called: 2
  2165 ;; This function calls:
  2166 ;;		_playNote
  2167 ;; This function is called by:
  2168 ;;		_main
  2169 ;; This function uses a non-reentrant model
  2170 ;;
  2171                           
  2172                           
  2173                           ;psect for function _doTheArc
  2174  03F3                     _doTheArc:
  2175  03F3                     l1610:	
  2176                           ;incstack = 0
  2177                           ; Regs used in _doTheArc: [wreg-fsr0h+status,2+status,0+pclath+cstack]
  2178                           
  2179                           
  2180                           ;main.c: 699:     forceArc = 1;
  2181  03F3  3001               	movlw	1
  2182  03F4  0140               	movlb	0	; select bank0
  2183  03F5  00BC               	movwf	_forceArc
  2184  03F6  3000               	movlw	0
  2185  03F7  00BD               	movwf	_forceArc+1
  2186  03F8                     l1612:
  2187                           
  2188                           ;main.c: 700:     runIndex++;
  2189  03F8  3001               	movlw	1
  2190  03F9  00F5               	movwf	??_doTheArc
  2191  03FA  0875               	movf	??_doTheArc,w
  2192  03FB  07BF               	addwf	_runIndex,f
  2193  03FC                     l1614:
  2194                           
  2195                           ;main.c: 701:     if (runIndex > 3) runIndex = 1;
  2196  03FC  3004               	movlw	4
  2197  03FD  023F               	subwf	_runIndex,w
  2198  03FE  1C03               	skipc
  2199  03FF  2C01               	goto	u1381
  2200  0400  2C02               	goto	u1380
  2201  0401                     u1381:
  2202  0401  2CD0               	goto	l1664
  2203  0402                     u1380:
  2204  0402                     l1616:
  2205  0402  01BF               	clrf	_runIndex
  2206  0403  0ABF               	incf	_runIndex,f
  2207  0404  2CD0               	goto	l1664
  2208  0405                     l266:	
  2209                           ;main.c: 703:         case 1:
  2210                           
  2211                           
  2212                           ;main.c: 705:             LATA1 = 0;
  2213  0405  1098               	bcf	24,1	;volatile
  2214                           
  2215                           ;main.c: 706:             LATA2 = 1;
  2216  0406  1518               	bsf	24,2	;volatile
  2217                           
  2218                           ;main.c: 707:             LATC0 = 1;
  2219  0407  141A               	bsf	26,0	;volatile
  2220                           
  2221                           ;main.c: 708:             LATC1 = 1;
  2222  0408  149A               	bsf	26,1	;volatile
  2223  0409                     l1618:	
  2224                           ;main.c: 709:             while (gotTheTouch && poweredOn);
  2225                           
  2226  0409  0828               	movf	_gotTheTouch,w
  2227  040A  0429               	iorwf	_gotTheTouch+1,w
  2228  040B  1903               	btfsc	3,2
  2229  040C  2C0E               	goto	u1391
  2230  040D  2C0F               	goto	u1390
  2231  040E                     u1391:
  2232  040E  2CE3               	goto	l1666
  2233  040F                     u1390:
  2234  040F                     l1620:
  2235  040F  0830               	movf	_poweredOn,w
  2236  0410  0431               	iorwf	_poweredOn+1,w
  2237  0411  1D03               	btfss	3,2
  2238  0412  2C14               	goto	u1401
  2239  0413  2C15               	goto	u1400
  2240  0414                     u1401:
  2241  0414  2C09               	goto	l1618
  2242  0415                     u1400:
  2243  0415  2CE3               	goto	l1666
  2244  0416                     l273:	
  2245                           ;main.c: 712:         case 2:
  2246                           
  2247                           
  2248                           ;main.c: 714:             LATA1 = 1;
  2249  0416  1498               	bsf	24,1	;volatile
  2250                           
  2251                           ;main.c: 715:             LATA2 = 0;
  2252  0417  1118               	bcf	24,2	;volatile
  2253                           
  2254                           ;main.c: 716:             LATC0 = 1;
  2255  0418  141A               	bsf	26,0	;volatile
  2256                           
  2257                           ;main.c: 717:             LATC1 = 1;
  2258  0419  149A               	bsf	26,1	;volatile
  2259  041A                     l1622:
  2260                           
  2261                           ;main.c: 719:             genericDelay = 1000;
  2262  041A  30E8               	movlw	232
  2263  041B  00B2               	movwf	_genericDelay
  2264  041C  3003               	movlw	3
  2265  041D  00B3               	movwf	_genericDelay+1
  2266  041E                     l1624:	
  2267                           ;main.c: 720:             while (genericDelay && poweredOn && gotTheTouch);
  2268                           
  2269  041E  0832               	movf	_genericDelay,w
  2270  041F  0433               	iorwf	_genericDelay+1,w
  2271  0420  1903               	btfsc	3,2
  2272  0421  2C23               	goto	u1411
  2273  0422  2C24               	goto	u1410
  2274  0423                     u1411:
  2275  0423  2C30               	goto	l1630
  2276  0424                     u1410:
  2277  0424                     l1626:
  2278  0424  0830               	movf	_poweredOn,w
  2279  0425  0431               	iorwf	_poweredOn+1,w
  2280  0426  1903               	btfsc	3,2
  2281  0427  2C29               	goto	u1421
  2282  0428  2C2A               	goto	u1420
  2283  0429                     u1421:
  2284  0429  2C30               	goto	l1630
  2285  042A                     u1420:
  2286  042A                     l1628:
  2287  042A  0828               	movf	_gotTheTouch,w
  2288  042B  0429               	iorwf	_gotTheTouch+1,w
  2289  042C  1D03               	btfss	3,2
  2290  042D  2C2F               	goto	u1431
  2291  042E  2C30               	goto	u1430
  2292  042F                     u1431:
  2293  042F  2C1E               	goto	l1624
  2294  0430                     u1430:
  2295  0430                     l1630:
  2296                           
  2297                           ;main.c: 721:             forceArc = 0;
  2298  0430  01BC               	clrf	_forceArc
  2299  0431  01BD               	clrf	_forceArc+1
  2300                           
  2301                           ;main.c: 722:             for (i = 0; i < sizeof (sheRa) && gotTheTouch && poweredOn; i+
      +                          +) playNote(sheRa[i][0], sheRa[i][1]);
  2302  0432  01FA               	clrf	_i
  2303  0433  01FB               	clrf	_i+1
  2304  0434  2C5C               	goto	l1636
  2305  0435                     l1632:
  2306  0435  087B               	movf	_i+1,w
  2307  0436  0085               	movwf	5
  2308  0437  087A               	movf	_i,w
  2309  0438  0084               	movwf	4
  2310  0439  3584               	lslf	4,f
  2311  043A  0D85               	rlf	5,f
  2312  043B  3584               	lslf	4,f
  2313  043C  0D85               	rlf	5,f
  2314  043D  30ED               	movlw	low (_sheRa| (0+32768))
  2315  043E  0784               	addwf	4,f
  2316  043F  3084               	movlw	high (_sheRa| (0+32768))
  2317  0440  3D85               	addwfc	5,f
  2318  0441  3F00               	moviw [0]fsr0
  2319  0442  00F1               	movwf	playNote@note
  2320  0443  3F01               	moviw [1]fsr0
  2321  0444  00F2               	movwf	playNote@note+1
  2322  0445  087B               	movf	_i+1,w
  2323  0446  0085               	movwf	5
  2324  0447  087A               	movf	_i,w
  2325  0448  0084               	movwf	4
  2326  0449  3584               	lslf	4,f
  2327  044A  0D85               	rlf	5,f
  2328  044B  3584               	lslf	4,f
  2329  044C  0D85               	rlf	5,f
  2330  044D  30EF               	movlw	low ((_sheRa+2)| (0+32768))
  2331  044E  0784               	addwf	4,f
  2332  044F  3084               	movlw	high ((_sheRa+2)| (0+32768))
  2333  0450  3D85               	addwfc	5,f
  2334  0451  3F00               	moviw [0]fsr0
  2335  0452  00F3               	movwf	playNote@duration
  2336  0453  3F01               	moviw [1]fsr0
  2337  0454  00F4               	movwf	playNote@duration+1
  2338  0455  3187  279A  3183   	fcall	_playNote
  2339  0458                     l1634:
  2340  0458  3001               	movlw	1
  2341  0459  07FA               	addwf	_i,f
  2342  045A  3000               	movlw	0
  2343  045B  3DFB               	addwfc	_i+1,f
  2344  045C                     l1636:
  2345  045C  3000               	movlw	0
  2346  045D  027B               	subwf	_i+1,w
  2347  045E  30F0               	movlw	240
  2348  045F  1903               	skipnz
  2349  0460  027A               	subwf	_i,w
  2350  0461  1803               	skipnc
  2351  0462  2C64               	goto	u1441
  2352  0463  2C65               	goto	u1440
  2353  0464                     u1441:
  2354  0464  2CE3               	goto	l1666
  2355  0465                     u1440:
  2356  0465                     l1638:
  2357  0465  0140               	movlb	0	; select bank0
  2358  0466  0828               	movf	_gotTheTouch,w
  2359  0467  0429               	iorwf	_gotTheTouch+1,w
  2360  0468  1903               	btfsc	3,2
  2361  0469  2C6B               	goto	u1451
  2362  046A  2C6C               	goto	u1450
  2363  046B                     u1451:
  2364  046B  2CE3               	goto	l1666
  2365  046C                     u1450:
  2366  046C                     l1640:
  2367  046C  0830               	movf	_poweredOn,w
  2368  046D  0431               	iorwf	_poweredOn+1,w
  2369  046E  1D03               	btfss	3,2
  2370  046F  2C71               	goto	u1461
  2371  0470  2C72               	goto	u1460
  2372  0471                     u1461:
  2373  0471  2C35               	goto	l1632
  2374  0472                     u1460:
  2375  0472  2CE3               	goto	l1666
  2376  0473                     l284:	
  2377                           ;main.c: 725:         case 3:
  2378                           
  2379                           
  2380                           ;main.c: 727:             LATA1 = 1;
  2381  0473  1498               	bsf	24,1	;volatile
  2382                           
  2383                           ;main.c: 728:             LATA2 = 1;
  2384  0474  1518               	bsf	24,2	;volatile
  2385                           
  2386                           ;main.c: 729:             LATC0 = 0;
  2387  0475  101A               	bcf	26,0	;volatile
  2388                           
  2389                           ;main.c: 730:             LATC1 = 1;
  2390  0476  149A               	bsf	26,1	;volatile
  2391  0477                     l1642:
  2392                           
  2393                           ;main.c: 732:             genericDelay = 1000;
  2394  0477  30E8               	movlw	232
  2395  0478  00B2               	movwf	_genericDelay
  2396  0479  3003               	movlw	3
  2397  047A  00B3               	movwf	_genericDelay+1
  2398  047B                     l1644:	
  2399                           ;main.c: 733:             while (genericDelay && poweredOn && gotTheTouch);
  2400                           
  2401  047B  0832               	movf	_genericDelay,w
  2402  047C  0433               	iorwf	_genericDelay+1,w
  2403  047D  1903               	btfsc	3,2
  2404  047E  2C80               	goto	u1471
  2405  047F  2C81               	goto	u1470
  2406  0480                     u1471:
  2407  0480  2C8D               	goto	l1650
  2408  0481                     u1470:
  2409  0481                     l1646:
  2410  0481  0830               	movf	_poweredOn,w
  2411  0482  0431               	iorwf	_poweredOn+1,w
  2412  0483  1903               	btfsc	3,2
  2413  0484  2C86               	goto	u1481
  2414  0485  2C87               	goto	u1480
  2415  0486                     u1481:
  2416  0486  2C8D               	goto	l1650
  2417  0487                     u1480:
  2418  0487                     l1648:
  2419  0487  0828               	movf	_gotTheTouch,w
  2420  0488  0429               	iorwf	_gotTheTouch+1,w
  2421  0489  1D03               	btfss	3,2
  2422  048A  2C8C               	goto	u1491
  2423  048B  2C8D               	goto	u1490
  2424  048C                     u1491:
  2425  048C  2C7B               	goto	l1644
  2426  048D                     u1490:
  2427  048D                     l1650:
  2428                           
  2429                           ;main.c: 734:             forceArc = 0;
  2430  048D  01BC               	clrf	_forceArc
  2431  048E  01BD               	clrf	_forceArc+1
  2432                           
  2433                           ;main.c: 735:             for (i = 0; i < sizeof (gargoyles) && gotTheTouch && poweredOn
      +                          ; i++) playNote(gargoyles[i][0], gargoyles[i][1]);
  2434  048F  01FA               	clrf	_i
  2435  0490  01FB               	clrf	_i+1
  2436  0491  2CB9               	goto	l1656
  2437  0492                     l1652:
  2438  0492  087B               	movf	_i+1,w
  2439  0493  0085               	movwf	5
  2440  0494  087A               	movf	_i,w
  2441  0495  0084               	movwf	4
  2442  0496  3584               	lslf	4,f
  2443  0497  0D85               	rlf	5,f
  2444  0498  3584               	lslf	4,f
  2445  0499  0D85               	rlf	5,f
  2446  049A  3028               	movlw	low (_gargoyles| (0+32768))
  2447  049B  0784               	addwf	4,f
  2448  049C  3081               	movlw	high (_gargoyles| (0+32768))
  2449  049D  3D85               	addwfc	5,f
  2450  049E  3F00               	moviw [0]fsr0
  2451  049F  00F1               	movwf	playNote@note
  2452  04A0  3F01               	moviw [1]fsr0
  2453  04A1  00F2               	movwf	playNote@note+1
  2454  04A2  087B               	movf	_i+1,w
  2455  04A3  0085               	movwf	5
  2456  04A4  087A               	movf	_i,w
  2457  04A5  0084               	movwf	4
  2458  04A6  3584               	lslf	4,f
  2459  04A7  0D85               	rlf	5,f
  2460  04A8  3584               	lslf	4,f
  2461  04A9  0D85               	rlf	5,f
  2462  04AA  302A               	movlw	low ((_gargoyles+2)| (0+32768))
  2463  04AB  0784               	addwf	4,f
  2464  04AC  3081               	movlw	high ((_gargoyles+2)| (0+32768))
  2465  04AD  3D85               	addwfc	5,f
  2466  04AE  3F00               	moviw [0]fsr0
  2467  04AF  00F3               	movwf	playNote@duration
  2468  04B0  3F01               	moviw [1]fsr0
  2469  04B1  00F4               	movwf	playNote@duration+1
  2470  04B2  3187  279A  3183   	fcall	_playNote
  2471  04B5                     l1654:
  2472  04B5  3001               	movlw	1
  2473  04B6  07FA               	addwf	_i,f
  2474  04B7  3000               	movlw	0
  2475  04B8  3DFB               	addwfc	_i+1,f
  2476  04B9                     l1656:
  2477  04B9  3001               	movlw	1
  2478  04BA  027B               	subwf	_i+1,w
  2479  04BB  30C0               	movlw	192
  2480  04BC  1903               	skipnz
  2481  04BD  027A               	subwf	_i,w
  2482  04BE  1803               	skipnc
  2483  04BF  2CC1               	goto	u1501
  2484  04C0  2CC2               	goto	u1500
  2485  04C1                     u1501:
  2486  04C1  2CE3               	goto	l1666
  2487  04C2                     u1500:
  2488  04C2                     l1658:
  2489  04C2  0140               	movlb	0	; select bank0
  2490  04C3  0828               	movf	_gotTheTouch,w
  2491  04C4  0429               	iorwf	_gotTheTouch+1,w
  2492  04C5  1903               	btfsc	3,2
  2493  04C6  2CC8               	goto	u1511
  2494  04C7  2CC9               	goto	u1510
  2495  04C8                     u1511:
  2496  04C8  2CE3               	goto	l1666
  2497  04C9                     u1510:
  2498  04C9                     l1660:
  2499  04C9  0830               	movf	_poweredOn,w
  2500  04CA  0431               	iorwf	_poweredOn+1,w
  2501  04CB  1D03               	btfss	3,2
  2502  04CC  2CCE               	goto	u1521
  2503  04CD  2CCF               	goto	u1520
  2504  04CE                     u1521:
  2505  04CE  2C92               	goto	l1652
  2506  04CF                     u1520:
  2507  04CF  2CE3               	goto	l1666
  2508  04D0                     l1664:
  2509  04D0  083F               	movf	_runIndex,w
  2510  04D1  00F5               	movwf	??_doTheArc
  2511  04D2  01F6               	clrf	??_doTheArc+1
  2512                           
  2513                           ; Switch on 2 bytes has been partitioned into a top level switch of size 1, and 1 sub-sw
      +                          itches
  2514                           ; Switch size 1, requested type "simple"
  2515                           ; Number of cases is 1, Range of values is 0 to 0
  2516                           ; switch strategies available:
  2517                           ; Name         Instructions Cycles
  2518                           ; simple_byte            4     3 (average)
  2519                           ; direct_byte            8     6 (fixed)
  2520                           ; jumptable            260     6 (fixed)
  2521                           ;	Chosen strategy is simple_byte
  2522  04D3  0876               	movf	??_doTheArc+1,w
  2523  04D4  3A00               	xorlw	0	; case 0
  2524  04D5  1903               	skipnz
  2525  04D6  2CD8               	goto	l2172
  2526  04D7  2CE3               	goto	l1666
  2527  04D8                     l2172:
  2528                           
  2529                           ; Switch size 1, requested type "simple"
  2530                           ; Number of cases is 3, Range of values is 1 to 3
  2531                           ; switch strategies available:
  2532                           ; Name         Instructions Cycles
  2533                           ; simple_byte           10     6 (average)
  2534                           ; direct_byte           15     9 (fixed)
  2535                           ; jumptable            263     9 (fixed)
  2536                           ;	Chosen strategy is simple_byte
  2537  04D8  0875               	movf	??_doTheArc,w
  2538  04D9  3A01               	xorlw	1	; case 1
  2539  04DA  1903               	skipnz
  2540  04DB  2C05               	goto	l266
  2541  04DC  3A03               	xorlw	3	; case 2
  2542  04DD  1903               	skipnz
  2543  04DE  2C16               	goto	l273
  2544  04DF  3A01               	xorlw	1	; case 3
  2545  04E0  1903               	skipnz
  2546  04E1  2C73               	goto	l284
  2547  04E2  2CE3               	goto	l1666
  2548  04E3                     l1666:
  2549                           
  2550                           ;main.c: 742:     forceArc = 0;
  2551  04E3  0140               	movlb	0	; select bank0
  2552  04E4  01BC               	clrf	_forceArc
  2553  04E5  01BD               	clrf	_forceArc+1
  2554                           
  2555                           ;main.c: 743:     gotTheTouch = 0;
  2556  04E6  01A8               	clrf	_gotTheTouch
  2557  04E7  01A9               	clrf	_gotTheTouch+1
  2558  04E8                     l1668:
  2559                           
  2560                           ;main.c: 745:     LATA1 = 1;
  2561  04E8  1498               	bsf	24,1	;volatile
  2562  04E9                     l1670:
  2563                           
  2564                           ;main.c: 746:     LATA2 = 1;
  2565  04E9  1518               	bsf	24,2	;volatile
  2566  04EA                     l1672:
  2567                           
  2568                           ;main.c: 747:     LATC0 = 1;
  2569  04EA  141A               	bsf	26,0	;volatile
  2570  04EB                     l1674:
  2571                           
  2572                           ;main.c: 748:     LATC1 = 1;
  2573  04EB  149A               	bsf	26,1	;volatile
  2574  04EC                     l296:
  2575  04EC  0008               	return
  2576  04ED                     __end_of_doTheArc:
  2577                           
  2578                           	psect	text4
  2579  079A                     __ptext4:	
  2580 ;; *************** function _playNote *****************
  2581 ;; Defined at:
  2582 ;;		line 760 in file "main.c"
  2583 ;; Parameters:    Size  Location     Type
  2584 ;;  note            2    1[COMMON] unsigned int 
  2585 ;;  duration        2    3[COMMON] unsigned int 
  2586 ;; Auto vars:     Size  Location     Type
  2587 ;;		None
  2588 ;; Return value:  Size  Location     Type
  2589 ;;                  1    wreg      void 
  2590 ;; Registers used:
  2591 ;;		wreg, fsr0l, fsr0h, status,2, status,0, pclath
  2592 ;; Tracked objects:
  2593 ;;		On entry : 0/0
  2594 ;;		On exit  : 0/0
  2595 ;;		Unchanged: 0/0
  2596 ;; Data sizes:     COMMON   BANK0   BANK1   BANK2   BANK3   BANK4   BANK5   BANK6
  2597 ;;      Params:         4       0       0       0       0       0       0       0
  2598 ;;      Locals:         0       0       0       0       0       0       0       0
  2599 ;;      Temps:          0       0       0       0       0       0       0       0
  2600 ;;      Totals:         4       0       0       0       0       0       0       0
  2601 ;;Total ram usage:        4 bytes
  2602 ;; Hardware stack levels used: 1
  2603 ;; Hardware stack levels required when called: 1
  2604 ;; This function calls:
  2605 ;;		Nothing
  2606 ;; This function is called by:
  2607 ;;		_doTheArc
  2608 ;;		_goToLPmode
  2609 ;; This function uses a non-reentrant model
  2610 ;;
  2611                           
  2612                           
  2613                           ;psect for function _playNote
  2614  079A                     _playNote:
  2615  079A                     l1450:	
  2616                           ;incstack = 0
  2617                           ; Regs used in _playNote: [wreg-fsr0h+status,2+status,0+pclath]
  2618                           
  2619                           
  2620                           ;main.c: 761:     if (note > 0) {
  2621  079A  0871               	movf	playNote@note,w
  2622  079B  0472               	iorwf	playNote@note+1,w
  2623  079C  1903               	btfsc	3,2
  2624  079D  2F9F               	goto	u1001
  2625  079E  2FA0               	goto	u1000
  2626  079F                     u1001:
  2627  079F  2FAF               	goto	l1456
  2628  07A0                     u1000:
  2629  07A0                     l1452:
  2630                           
  2631                           ;main.c: 762:         noGate = 0;
  2632  07A0  0140               	movlb	0	; select bank0
  2633  07A1  01E2               	clrf	_noGate
  2634  07A2  01E3               	clrf	_noGate+1
  2635  07A3                     l1454:
  2636                           
  2637                           ;main.c: 764:         TMR0H = notes[note];
  2638  07A3  0872               	movf	playNote@note+1,w
  2639  07A4  0085               	movwf	5
  2640  07A5  0871               	movf	playNote@note,w
  2641  07A6  0084               	movwf	4
  2642  07A7  30F7               	movlw	low (_notes| (0+32768))
  2643  07A8  0784               	addwf	4,f
  2644  07A9  3087               	movlw	high (_notes| (0+32768))
  2645  07AA  3D85               	addwfc	5,f
  2646  07AB  0800               	movf	0,w	;code access
  2647  07AC  014B               	movlb	11	; select bank11
  2648  07AD  009D               	movwf	29	;volatile
  2649                           
  2650                           ;main.c: 765:     } else {
  2651  07AE  2FB4               	goto	l307
  2652  07AF                     l1456:
  2653                           
  2654                           ;main.c: 766:         noGate = 1;
  2655  07AF  3001               	movlw	1
  2656  07B0  0140               	movlb	0	; select bank0
  2657  07B1  00E2               	movwf	_noGate
  2658  07B2  3000               	movlw	0
  2659  07B3  00E3               	movwf	_noGate+1
  2660  07B4                     l307:	
  2661                           ;main.c: 767:     }
  2662                           
  2663                           
  2664                           ;main.c: 768:     genericDelay = duration;
  2665  07B4  0874               	movf	playNote@duration+1,w
  2666  07B5  0140               	movlb	0	; select bank0
  2667  07B6  00B3               	movwf	_genericDelay+1
  2668  07B7  0873               	movf	playNote@duration,w
  2669  07B8  00B2               	movwf	_genericDelay
  2670  07B9                     l1458:	
  2671                           ;main.c: 769:     while (genericDelay && poweredOn && gotTheTouch);
  2672                           
  2673  07B9  0832               	movf	_genericDelay,w
  2674  07BA  0433               	iorwf	_genericDelay+1,w
  2675  07BB  1903               	btfsc	3,2
  2676  07BC  2FBE               	goto	u1011
  2677  07BD  2FBF               	goto	u1010
  2678  07BE                     u1011:
  2679  07BE  2FCB               	goto	l313
  2680  07BF                     u1010:
  2681  07BF                     l1460:
  2682  07BF  0830               	movf	_poweredOn,w
  2683  07C0  0431               	iorwf	_poweredOn+1,w
  2684  07C1  1903               	btfsc	3,2
  2685  07C2  2FC4               	goto	u1021
  2686  07C3  2FC5               	goto	u1020
  2687  07C4                     u1021:
  2688  07C4  2FCB               	goto	l313
  2689  07C5                     u1020:
  2690  07C5                     l1462:
  2691  07C5  0828               	movf	_gotTheTouch,w
  2692  07C6  0429               	iorwf	_gotTheTouch+1,w
  2693  07C7  1D03               	btfss	3,2
  2694  07C8  2FCA               	goto	u1031
  2695  07C9  2FCB               	goto	u1030
  2696  07CA                     u1031:
  2697  07CA  2FB9               	goto	l1458
  2698  07CB                     u1030:
  2699  07CB                     l313:
  2700  07CB  0008               	return
  2701  07CC                     __end_of_playNote:
  2702                           
  2703                           	psect	text5
  2704  05DD                     __ptext5:	
  2705 ;; *************** function _chargeIndicator *****************
  2706 ;; Defined at:
  2707 ;;		line 879 in file "main.c"
  2708 ;; Parameters:    Size  Location     Type
  2709 ;;		None
  2710 ;; Auto vars:     Size  Location     Type
  2711 ;;		None
  2712 ;; Return value:  Size  Location     Type
  2713 ;;                  1    wreg      void 
  2714 ;; Registers used:
  2715 ;;		wreg, status,2, status,0, pclath, cstack
  2716 ;; Tracked objects:
  2717 ;;		On entry : 0/0
  2718 ;;		On exit  : 0/0
  2719 ;;		Unchanged: 0/0
  2720 ;; Data sizes:     COMMON   BANK0   BANK1   BANK2   BANK3   BANK4   BANK5   BANK6
  2721 ;;      Params:         0       0       0       0       0       0       0       0
  2722 ;;      Locals:         0       4       0       0       0       0       0       0
  2723 ;;      Temps:          0       4       0       0       0       0       0       0
  2724 ;;      Totals:         0       8       0       0       0       0       0       0
  2725 ;;Total ram usage:        8 bytes
  2726 ;; Hardware stack levels used: 1
  2727 ;; Hardware stack levels required when called: 2
  2728 ;; This function calls:
  2729 ;;		___aldiv
  2730 ;;		_blockingDelay
  2731 ;; This function is called by:
  2732 ;;		_main
  2733 ;; This function uses a non-reentrant model
  2734 ;;
  2735                           
  2736                           
  2737                           ;psect for function _chargeIndicator
  2738  05DD                     _chargeIndicator:
  2739  05DD                     l1552:	
  2740                           ;incstack = 0
  2741                           ; Regs used in _chargeIndicator: [wreg+status,2+status,0+pclath+cstack]
  2742                           
  2743                           
  2744                           ;main.c: 881:     if (!debugging) ADCON0bits.ON = 1;
  2745  05DD  0140               	movlb	0	; select bank0
  2746  05DE  0864               	movf	_debugging,w
  2747  05DF  1D03               	btfss	3,2
  2748  05E0  2DE2               	goto	u1211
  2749  05E1  2DE3               	goto	u1210
  2750  05E2                     u1211:
  2751  05E2  2DE5               	goto	l336
  2752  05E3                     u1210:
  2753  05E3                     l1554:
  2754  05E3  0141               	movlb	1	; select bank1
  2755  05E4  141D               	bsf	29,0	;volatile
  2756  05E5                     l336:
  2757                           
  2758                           ;main.c: 887:     ADCON0bits.GO = 1;
  2759  05E5  0141               	movlb	1	; select bank1
  2760  05E6  149D               	bsf	29,1	;volatile
  2761  05E7                     l1556:
  2762                           
  2763                           ;main.c: 888:     if (!debugging) while (ADCON0bits.GO == 1);
  2764  05E7  0140               	movlb	0	; select bank0
  2765  05E8  0864               	movf	_debugging,w
  2766  05E9  1D03               	btfss	3,2
  2767  05EA  2DEC               	goto	u1221
  2768  05EB  2DED               	goto	u1220
  2769  05EC                     u1221:
  2770  05EC  2DF2               	goto	l1560
  2771  05ED                     u1220:
  2772  05ED                     l338:
  2773  05ED  0141               	movlb	1	; select bank1
  2774  05EE  189D               	btfsc	29,1	;volatile
  2775  05EF  2DF1               	goto	u1231
  2776  05F0  2DF2               	goto	u1230
  2777  05F1                     u1231:
  2778  05F1  2DED               	goto	l338
  2779  05F2                     u1230:
  2780  05F2                     l1560:
  2781                           
  2782                           ;main.c: 889:     adcVolts = ADRES;
  2783  05F2  0141               	movlb	1	; select bank1
  2784  05F3  081C               	movf	28,w	;volatile
  2785  05F4  0140               	movlb	0	; select bank0
  2786  05F5  00A3               	movwf	_adcVolts+1
  2787  05F6  0141               	movlb	1	; select bank1
  2788  05F7  081B               	movf	27,w	;volatile
  2789  05F8  0140               	movlb	0	; select bank0
  2790  05F9  00A2               	movwf	_adcVolts
  2791  05FA                     l1562:
  2792                           
  2793                           ;main.c: 890:     if (!debugging) battVolts = ((calibrationMV * 1024L) / adcVolts) / 10L
      +                          ;
  2794  05FA  0864               	movf	_debugging,w
  2795  05FB  1D03               	btfss	3,2
  2796  05FC  2DFE               	goto	u1241
  2797  05FD  2DFF               	goto	u1240
  2798  05FE                     u1241:
  2799  05FE  2E3E               	goto	l1566
  2800  05FF                     u1240:
  2801  05FF                     l1564:
  2802  05FF  0822               	movf	_adcVolts,w
  2803  0600  00F1               	movwf	___aldiv@divisor
  2804  0601  0823               	movf	_adcVolts+1,w
  2805  0602  00F2               	movwf	___aldiv@divisor+1
  2806  0603  01F3               	clrf	___aldiv@divisor+2
  2807  0604  01F4               	clrf	___aldiv@divisor+3
  2808  0605  0820               	movf	_calibrationMV,w
  2809  0606  00D5               	movwf	??_chargeIndicator
  2810  0607  0821               	movf	_calibrationMV+1,w
  2811  0608  00D6               	movwf	??_chargeIndicator+1
  2812  0609  01D7               	clrf	??_chargeIndicator+2
  2813  060A  01D8               	clrf	??_chargeIndicator+3
  2814  060B  300A               	movlw	10
  2815  060C                     u1255:
  2816  060C  35D5               	lslf	??_chargeIndicator,f
  2817  060D  0DD6               	rlf	??_chargeIndicator+1,f
  2818  060E  0DD7               	rlf	??_chargeIndicator+2,f
  2819  060F  0DD8               	rlf	??_chargeIndicator+3,f
  2820  0610                     u1250:
  2821  0610  0B89               	decfsz	9,f
  2822  0611  2E0C               	goto	u1255
  2823  0612  0858               	movf	??_chargeIndicator+3,w
  2824  0613  00F8               	movwf	___aldiv@dividend+3
  2825  0614  0857               	movf	??_chargeIndicator+2,w
  2826  0615  00F7               	movwf	___aldiv@dividend+2
  2827  0616  0856               	movf	??_chargeIndicator+1,w
  2828  0617  00F6               	movwf	___aldiv@dividend+1
  2829  0618  0855               	movf	??_chargeIndicator,w
  2830  0619  00F5               	movwf	___aldiv@dividend
  2831  061A  3186  26B9  3185   	fcall	___aldiv
  2832  061D  0874               	movf	?___aldiv+3,w
  2833  061E  0140               	movlb	0	; select bank0
  2834  061F  00DC               	movwf	_chargeIndicator$1249+3
  2835  0620  0873               	movf	?___aldiv+2,w
  2836  0621  00DB               	movwf	_chargeIndicator$1249+2
  2837  0622  0872               	movf	?___aldiv+1,w
  2838  0623  00DA               	movwf	_chargeIndicator$1249+1
  2839  0624  0871               	movf	?___aldiv,w
  2840  0625  00D9               	movwf	_chargeIndicator$1249
  2841  0626  3000               	movlw	0
  2842  0627  00F4               	movwf	___aldiv@divisor+3
  2843  0628  3000               	movlw	0
  2844  0629  00F3               	movwf	___aldiv@divisor+2
  2845  062A  3000               	movlw	0
  2846  062B  00F2               	movwf	___aldiv@divisor+1
  2847  062C  300A               	movlw	10
  2848  062D  00F1               	movwf	___aldiv@divisor
  2849  062E  085C               	movf	_chargeIndicator$1249+3,w
  2850  062F  00F8               	movwf	___aldiv@dividend+3
  2851  0630  085B               	movf	_chargeIndicator$1249+2,w
  2852  0631  00F7               	movwf	___aldiv@dividend+2
  2853  0632  085A               	movf	_chargeIndicator$1249+1,w
  2854  0633  00F6               	movwf	___aldiv@dividend+1
  2855  0634  0859               	movf	_chargeIndicator$1249,w
  2856  0635  00F5               	movwf	___aldiv@dividend
  2857  0636  3186  26B9  3185   	fcall	___aldiv
  2858  0639  0872               	movf	?___aldiv+1,w
  2859  063A  0140               	movlb	0	; select bank0
  2860  063B  00A5               	movwf	_battVolts+1
  2861  063C  0871               	movf	?___aldiv,w
  2862  063D  00A4               	movwf	_battVolts
  2863  063E                     l1566:
  2864                           
  2865                           ;main.c: 892:     if (battVolts > 415) {
  2866  063E  3001               	movlw	1
  2867  063F  0225               	subwf	_battVolts+1,w
  2868  0640  30A0               	movlw	160
  2869  0641  1903               	skipnz
  2870  0642  0224               	subwf	_battVolts,w
  2871  0643  1C03               	skipc
  2872  0644  2E46               	goto	u1261
  2873  0645  2E47               	goto	u1260
  2874  0646                     u1261:
  2875  0646  2E4C               	goto	l1570
  2876  0647                     u1260:
  2877  0647                     l1568:
  2878                           
  2879                           ;main.c: 895:         LATA1 = 0;
  2880  0647  1098               	bcf	24,1	;volatile
  2881                           
  2882                           ;main.c: 896:         LATA2 = 0;
  2883  0648  1118               	bcf	24,2	;volatile
  2884                           
  2885                           ;main.c: 897:         LATC0 = 0;
  2886  0649  101A               	bcf	26,0	;volatile
  2887                           
  2888                           ;main.c: 898:         LATC1 = 0;
  2889  064A  109A               	bcf	26,1	;volatile
  2890                           
  2891                           ;main.c: 899:     } else if (battVolts > 398) {
  2892  064B  2EA7               	goto	l1604
  2893  064C                     l1570:
  2894  064C  3001               	movlw	1
  2895  064D  0225               	subwf	_battVolts+1,w
  2896  064E  308F               	movlw	143
  2897  064F  1903               	skipnz
  2898  0650  0224               	subwf	_battVolts,w
  2899  0651  1C03               	skipc
  2900  0652  2E54               	goto	u1271
  2901  0653  2E55               	goto	u1270
  2902  0654                     u1271:
  2903  0654  2E67               	goto	l1580
  2904  0655                     u1270:
  2905  0655                     l1572:
  2906                           
  2907                           ;main.c: 902:         LATA1 = 0;
  2908  0655  1098               	bcf	24,1	;volatile
  2909                           
  2910                           ;main.c: 903:         LATA2 = 0;
  2911  0656  1118               	bcf	24,2	;volatile
  2912                           
  2913                           ;main.c: 904:         LATC0 = 0;
  2914  0657  101A               	bcf	26,0	;volatile
  2915  0658                     l1574:
  2916                           
  2917                           ;main.c: 905:         if (charging) {
  2918  0658  0826               	movf	_charging,w
  2919  0659  0427               	iorwf	_charging+1,w
  2920  065A  1903               	btfsc	3,2
  2921  065B  2E5D               	goto	u1281
  2922  065C  2E5E               	goto	u1280
  2923  065D                     u1281:
  2924  065D  2EA7               	goto	l1604
  2925  065E                     u1280:
  2926  065E                     l1576:
  2927                           
  2928                           ;main.c: 906:             if (chargeCycle) LATC1 = 0;
  2929  065E  083E               	movf	_chargeCycle,w
  2930  065F  1903               	btfsc	3,2
  2931  0660  2E62               	goto	u1291
  2932  0661  2E63               	goto	u1290
  2933  0662                     u1291:
  2934  0662  2E65               	goto	l346
  2935  0663                     u1290:
  2936  0663                     l1578:
  2937  0663  109A               	bcf	26,1	;volatile
  2938  0664  2EA7               	goto	l1604
  2939  0665                     l346:	
  2940                           ;main.c: 907:             else LATC1 = 1;
  2941                           
  2942  0665  149A               	bsf	26,1	;volatile
  2943  0666  2EA7               	goto	l1604
  2944  0667                     l1580:
  2945  0667  3001               	movlw	1
  2946  0668  0225               	subwf	_battVolts+1,w
  2947  0669  3081               	movlw	129
  2948  066A  1903               	skipnz
  2949  066B  0224               	subwf	_battVolts,w
  2950  066C  1C03               	skipc
  2951  066D  2E6F               	goto	u1301
  2952  066E  2E70               	goto	u1300
  2953  066F                     u1301:
  2954  066F  2E81               	goto	l1590
  2955  0670                     u1300:
  2956  0670                     l1582:
  2957                           
  2958                           ;main.c: 912:         LATA1 = 0;
  2959  0670  1098               	bcf	24,1	;volatile
  2960                           
  2961                           ;main.c: 913:         LATA2 = 0;
  2962  0671  1118               	bcf	24,2	;volatile
  2963  0672                     l1584:
  2964                           
  2965                           ;main.c: 914:         if (charging) {
  2966  0672  0826               	movf	_charging,w
  2967  0673  0427               	iorwf	_charging+1,w
  2968  0674  1903               	btfsc	3,2
  2969  0675  2E77               	goto	u1311
  2970  0676  2E78               	goto	u1310
  2971  0677                     u1311:
  2972  0677  2E65               	goto	l346
  2973  0678                     u1310:
  2974  0678                     l1586:
  2975                           
  2976                           ;main.c: 915:             if (chargeCycle) LATC0 = 0;
  2977  0678  083E               	movf	_chargeCycle,w
  2978  0679  1903               	btfsc	3,2
  2979  067A  2E7C               	goto	u1321
  2980  067B  2E7D               	goto	u1320
  2981  067C                     u1321:
  2982  067C  2E7F               	goto	l351
  2983  067D                     u1320:
  2984  067D                     l1588:
  2985  067D  101A               	bcf	26,0	;volatile
  2986  067E  2E65               	goto	l346
  2987  067F                     l351:	
  2988                           ;main.c: 916:             else LATC0 = 1;
  2989                           
  2990  067F  141A               	bsf	26,0	;volatile
  2991  0680  2E65               	goto	l346
  2992  0681                     l1590:
  2993  0681  3001               	movlw	1
  2994  0682  0225               	subwf	_battVolts+1,w
  2995  0683  3078               	movlw	120
  2996  0684  1903               	skipnz
  2997  0685  0224               	subwf	_battVolts,w
  2998  0686  1C03               	skipc
  2999  0687  2E89               	goto	u1331
  3000  0688  2E8A               	goto	u1330
  3001  0689                     u1331:
  3002  0689  2E9C               	goto	l1600
  3003  068A                     u1330:
  3004  068A                     l1592:
  3005                           
  3006                           ;main.c: 922:         LATA1 = 0;
  3007  068A  1098               	bcf	24,1	;volatile
  3008  068B                     l1594:
  3009                           
  3010                           ;main.c: 923:         if (charging) {
  3011  068B  0826               	movf	_charging,w
  3012  068C  0427               	iorwf	_charging+1,w
  3013  068D  1903               	btfsc	3,2
  3014  068E  2E90               	goto	u1341
  3015  068F  2E91               	goto	u1340
  3016  0690                     u1341:
  3017  0690  2E99               	goto	l355
  3018  0691                     u1340:
  3019  0691                     l1596:
  3020                           
  3021                           ;main.c: 924:             if (chargeCycle) LATA2 = 0;
  3022  0691  083E               	movf	_chargeCycle,w
  3023  0692  1903               	btfsc	3,2
  3024  0693  2E95               	goto	u1351
  3025  0694  2E96               	goto	u1350
  3026  0695                     u1351:
  3027  0695  2E98               	goto	l356
  3028  0696                     u1350:
  3029  0696                     l1598:
  3030  0696  1118               	bcf	24,2	;volatile
  3031  0697  2E99               	goto	l355
  3032  0698                     l356:	
  3033                           ;main.c: 925:             else LATA2 = 1;
  3034                           
  3035  0698  1518               	bsf	24,2	;volatile
  3036  0699                     l355:	
  3037                           ;main.c: 926:         }
  3038                           
  3039                           
  3040                           ;main.c: 927:         LATC0 = 1;
  3041  0699  141A               	bsf	26,0	;volatile
  3042                           
  3043                           ;main.c: 928:         LATC1 = 1;
  3044  069A  149A               	bsf	26,1	;volatile
  3045                           
  3046                           ;main.c: 929:     } else {
  3047  069B  2EA7               	goto	l1604
  3048  069C                     l1600:
  3049                           
  3050                           ;main.c: 931:         if (chargeCycle) LATA1 = 0;
  3051  069C  083E               	movf	_chargeCycle,w
  3052  069D  1903               	btfsc	3,2
  3053  069E  2EA0               	goto	u1361
  3054  069F  2EA1               	goto	u1360
  3055  06A0                     u1361:
  3056  06A0  2EA3               	goto	l359
  3057  06A1                     u1360:
  3058  06A1                     l1602:
  3059  06A1  1098               	bcf	24,1	;volatile
  3060  06A2  2EA4               	goto	l360
  3061  06A3                     l359:	
  3062                           ;main.c: 932:         else LATA1 = 1;
  3063                           
  3064  06A3  1498               	bsf	24,1	;volatile
  3065  06A4                     l360:
  3066                           
  3067                           ;main.c: 933:         LATA2 = 1;
  3068  06A4  1518               	bsf	24,2	;volatile
  3069                           
  3070                           ;main.c: 934:         LATC0 = 1;
  3071  06A5  141A               	bsf	26,0	;volatile
  3072                           
  3073                           ;main.c: 935:         LATC1 = 1;
  3074  06A6  149A               	bsf	26,1	;volatile
  3075  06A7                     l1604:
  3076                           
  3077                           ;main.c: 937:     if (charging) {
  3078  06A7  0826               	movf	_charging,w
  3079  06A8  0427               	iorwf	_charging+1,w
  3080  06A9  1903               	btfsc	3,2
  3081  06AA  2EAC               	goto	u1371
  3082  06AB  2EAD               	goto	u1370
  3083  06AC                     u1371:
  3084  06AC  2EB8               	goto	l362
  3085  06AD                     u1370:
  3086  06AD                     l1606:
  3087                           
  3088                           ;main.c: 938:         chargeCycle ^= 1;
  3089  06AD  3001               	movlw	1
  3090  06AE  00D5               	movwf	??_chargeIndicator
  3091  06AF  0855               	movf	??_chargeIndicator,w
  3092  06B0  06BE               	xorwf	_chargeCycle,f
  3093  06B1                     l1608:
  3094                           
  3095                           ;main.c: 940:         blockingDelay(500);
  3096  06B1  30F4               	movlw	244
  3097  06B2  00F1               	movwf	blockingDelay@mSecs
  3098  06B3  3001               	movlw	1
  3099  06B4  00F2               	movwf	blockingDelay@mSecs+1
  3100  06B5  318F  27D9  3185   	fcall	_blockingDelay
  3101  06B8                     l362:
  3102  06B8  0008               	return
  3103  06B9                     __end_of_chargeIndicator:
  3104                           
  3105                           	psect	text6
  3106  0FD9                     __ptext6:	
  3107 ;; *************** function _blockingDelay *****************
  3108 ;; Defined at:
  3109 ;;		line 753 in file "main.c"
  3110 ;; Parameters:    Size  Location     Type
  3111 ;;  mSecs           2    1[COMMON] unsigned int 
  3112 ;; Auto vars:     Size  Location     Type
  3113 ;;		None
  3114 ;; Return value:  Size  Location     Type
  3115 ;;                  1    wreg      void 
  3116 ;; Registers used:
  3117 ;;		wreg, status,2, status,0
  3118 ;; Tracked objects:
  3119 ;;		On entry : 0/0
  3120 ;;		On exit  : 0/0
  3121 ;;		Unchanged: 0/0
  3122 ;; Data sizes:     COMMON   BANK0   BANK1   BANK2   BANK3   BANK4   BANK5   BANK6
  3123 ;;      Params:         2       0       0       0       0       0       0       0
  3124 ;;      Locals:         0       0       0       0       0       0       0       0
  3125 ;;      Temps:          0       0       0       0       0       0       0       0
  3126 ;;      Totals:         2       0       0       0       0       0       0       0
  3127 ;;Total ram usage:        2 bytes
  3128 ;; Hardware stack levels used: 1
  3129 ;; Hardware stack levels required when called: 1
  3130 ;; This function calls:
  3131 ;;		Nothing
  3132 ;; This function is called by:
  3133 ;;		_main
  3134 ;;		_chargeIndicator
  3135 ;; This function uses a non-reentrant model
  3136 ;;
  3137                           
  3138                           
  3139                           ;psect for function _blockingDelay
  3140  0FD9                     _blockingDelay:
  3141  0FD9                     l1442:	
  3142                           ;incstack = 0
  3143                           ; Regs used in _blockingDelay: [wreg+status,2+status,0]
  3144                           
  3145                           
  3146                           ;main.c: 754:     genericDelay = mSecs;
  3147  0FD9  0872               	movf	blockingDelay@mSecs+1,w
  3148  0FDA  0140               	movlb	0	; select bank0
  3149  0FDB  00B3               	movwf	_genericDelay+1
  3150  0FDC  0871               	movf	blockingDelay@mSecs,w
  3151  0FDD  00B2               	movwf	_genericDelay
  3152  0FDE                     l1444:
  3153                           
  3154                           ;main.c: 755:     if(!debugging) while (genericDelay > 0);
  3155  0FDE  0864               	movf	_debugging,w
  3156  0FDF  1D03               	btfss	3,2
  3157  0FE0  2FE2               	goto	u981
  3158  0FE1  2FE3               	goto	u980
  3159  0FE2                     u981:
  3160  0FE2  2FE9               	goto	l303
  3161  0FE3                     u980:
  3162  0FE3                     l1448:
  3163  0FE3  0832               	movf	_genericDelay,w
  3164  0FE4  0433               	iorwf	_genericDelay+1,w
  3165  0FE5  1D03               	btfss	3,2
  3166  0FE6  2FE8               	goto	u991
  3167  0FE7  2FE9               	goto	u990
  3168  0FE8                     u991:
  3169  0FE8  2FE3               	goto	l1448
  3170  0FE9                     u990:
  3171  0FE9                     l303:
  3172  0FE9  0008               	return
  3173  0FEA                     __end_of_blockingDelay:
  3174                           
  3175                           	psect	text7
  3176  06B9                     __ptext7:	
  3177 ;; *************** function ___aldiv *****************
  3178 ;; Defined at:
  3179 ;;		line 5 in file "C:\Program Files\Microchip\xc8\v2.32\pic\sources\c99\common\aldiv.c"
  3180 ;; Parameters:    Size  Location     Type
  3181 ;;  divisor         4    1[COMMON] long 
  3182 ;;  dividend        4    5[COMMON] long 
  3183 ;; Auto vars:     Size  Location     Type
  3184 ;;  quotient        4    2[BANK0 ] long 
  3185 ;;  sign            1    1[BANK0 ] unsigned char 
  3186 ;;  counter         1    0[BANK0 ] unsigned char 
  3187 ;; Return value:  Size  Location     Type
  3188 ;;                  4    1[COMMON] long 
  3189 ;; Registers used:
  3190 ;;		wreg, status,2, status,0
  3191 ;; Tracked objects:
  3192 ;;		On entry : 0/0
  3193 ;;		On exit  : 0/0
  3194 ;;		Unchanged: 0/0
  3195 ;; Data sizes:     COMMON   BANK0   BANK1   BANK2   BANK3   BANK4   BANK5   BANK6
  3196 ;;      Params:         8       0       0       0       0       0       0       0
  3197 ;;      Locals:         0       6       0       0       0       0       0       0
  3198 ;;      Temps:          1       0       0       0       0       0       0       0
  3199 ;;      Totals:         9       6       0       0       0       0       0       0
  3200 ;;Total ram usage:       15 bytes
  3201 ;; Hardware stack levels used: 1
  3202 ;; Hardware stack levels required when called: 1
  3203 ;; This function calls:
  3204 ;;		Nothing
  3205 ;; This function is called by:
  3206 ;;		_chargeIndicator
  3207 ;; This function uses a non-reentrant model
  3208 ;;
  3209                           
  3210                           
  3211                           ;psect for function ___aldiv
  3212  06B9                     ___aldiv:
  3213  06B9                     l1464:	
  3214                           ;incstack = 0
  3215                           ; Regs used in ___aldiv: [wreg+status,2+status,0]
  3216                           
  3217  06B9  0140               	movlb	0	; select bank0
  3218  06BA  01D0               	clrf	___aldiv@sign
  3219  06BB                     l1466:
  3220  06BB  1FF4               	btfss	___aldiv@divisor+3,7
  3221  06BC  2EBE               	goto	u1041
  3222  06BD  2EBF               	goto	u1040
  3223  06BE                     u1041:
  3224  06BE  2ECC               	goto	l515
  3225  06BF                     u1040:
  3226  06BF                     l1468:
  3227  06BF  09F1               	comf	___aldiv@divisor,f
  3228  06C0  09F2               	comf	___aldiv@divisor+1,f
  3229  06C1  09F3               	comf	___aldiv@divisor+2,f
  3230  06C2  09F4               	comf	___aldiv@divisor+3,f
  3231  06C3  0AF1               	incf	___aldiv@divisor,f
  3232  06C4  1903               	skipnz
  3233  06C5  0AF2               	incf	___aldiv@divisor+1,f
  3234  06C6  1903               	skipnz
  3235  06C7  0AF3               	incf	___aldiv@divisor+2,f
  3236  06C8  1903               	skipnz
  3237  06C9  0AF4               	incf	___aldiv@divisor+3,f
  3238  06CA  01D0               	clrf	___aldiv@sign
  3239  06CB  0AD0               	incf	___aldiv@sign,f
  3240  06CC                     l515:
  3241  06CC  1FF8               	btfss	___aldiv@dividend+3,7
  3242  06CD  2ECF               	goto	u1051
  3243  06CE  2ED0               	goto	u1050
  3244  06CF                     u1051:
  3245  06CF  2EDF               	goto	l1474
  3246  06D0                     u1050:
  3247  06D0                     l1470:
  3248  06D0  09F5               	comf	___aldiv@dividend,f
  3249  06D1  09F6               	comf	___aldiv@dividend+1,f
  3250  06D2  09F7               	comf	___aldiv@dividend+2,f
  3251  06D3  09F8               	comf	___aldiv@dividend+3,f
  3252  06D4  0AF5               	incf	___aldiv@dividend,f
  3253  06D5  1903               	skipnz
  3254  06D6  0AF6               	incf	___aldiv@dividend+1,f
  3255  06D7  1903               	skipnz
  3256  06D8  0AF7               	incf	___aldiv@dividend+2,f
  3257  06D9  1903               	skipnz
  3258  06DA  0AF8               	incf	___aldiv@dividend+3,f
  3259  06DB                     l1472:
  3260  06DB  3001               	movlw	1
  3261  06DC  00F9               	movwf	??___aldiv
  3262  06DD  0879               	movf	??___aldiv,w
  3263  06DE  06D0               	xorwf	___aldiv@sign,f
  3264  06DF                     l1474:
  3265  06DF  3000               	movlw	0
  3266  06E0  00D4               	movwf	___aldiv@quotient+3
  3267  06E1  3000               	movlw	0
  3268  06E2  00D3               	movwf	___aldiv@quotient+2
  3269  06E3  3000               	movlw	0
  3270  06E4  00D2               	movwf	___aldiv@quotient+1
  3271  06E5  3000               	movlw	0
  3272  06E6  00D1               	movwf	___aldiv@quotient
  3273  06E7                     l1476:
  3274  06E7  0874               	movf	___aldiv@divisor+3,w
  3275  06E8  0473               	iorwf	___aldiv@divisor+2,w
  3276  06E9  0472               	iorwf	___aldiv@divisor+1,w
  3277  06EA  0471               	iorwf	___aldiv@divisor,w
  3278  06EB  1903               	skipnz
  3279  06EC  2EEE               	goto	u1061
  3280  06ED  2EEF               	goto	u1060
  3281  06EE                     u1061:
  3282  06EE  2F30               	goto	l1496
  3283  06EF                     u1060:
  3284  06EF                     l1478:
  3285  06EF  01CF               	clrf	___aldiv@counter
  3286  06F0  0ACF               	incf	___aldiv@counter,f
  3287  06F1  2EFD               	goto	l1482
  3288  06F2                     l1480:
  3289  06F2  3001               	movlw	1
  3290  06F3                     u1075:
  3291  06F3  35F1               	lslf	___aldiv@divisor,f
  3292  06F4  0DF2               	rlf	___aldiv@divisor+1,f
  3293  06F5  0DF3               	rlf	___aldiv@divisor+2,f
  3294  06F6  0DF4               	rlf	___aldiv@divisor+3,f
  3295  06F7  0B89               	decfsz	9,f
  3296  06F8  2EF3               	goto	u1075
  3297  06F9  3001               	movlw	1
  3298  06FA  00F9               	movwf	??___aldiv
  3299  06FB  0879               	movf	??___aldiv,w
  3300  06FC  07CF               	addwf	___aldiv@counter,f
  3301  06FD                     l1482:
  3302  06FD  1FF4               	btfss	___aldiv@divisor+3,7
  3303  06FE  2F00               	goto	u1081
  3304  06FF  2F01               	goto	u1080
  3305  0700                     u1081:
  3306  0700  2EF2               	goto	l1480
  3307  0701                     u1080:
  3308  0701                     l1484:
  3309  0701  3001               	movlw	1
  3310  0702                     u1095:
  3311  0702  35D1               	lslf	___aldiv@quotient,f
  3312  0703  0DD2               	rlf	___aldiv@quotient+1,f
  3313  0704  0DD3               	rlf	___aldiv@quotient+2,f
  3314  0705  0DD4               	rlf	___aldiv@quotient+3,f
  3315  0706  0B89               	decfsz	9,f
  3316  0707  2F02               	goto	u1095
  3317  0708                     l1486:
  3318  0708  0874               	movf	___aldiv@divisor+3,w
  3319  0709  0278               	subwf	___aldiv@dividend+3,w
  3320  070A  1D03               	skipz
  3321  070B  2F16               	goto	u1105
  3322  070C  0873               	movf	___aldiv@divisor+2,w
  3323  070D  0277               	subwf	___aldiv@dividend+2,w
  3324  070E  1D03               	skipz
  3325  070F  2F16               	goto	u1105
  3326  0710  0872               	movf	___aldiv@divisor+1,w
  3327  0711  0276               	subwf	___aldiv@dividend+1,w
  3328  0712  1D03               	skipz
  3329  0713  2F16               	goto	u1105
  3330  0714  0871               	movf	___aldiv@divisor,w
  3331  0715  0275               	subwf	___aldiv@dividend,w
  3332  0716                     u1105:
  3333  0716  1C03               	skipc
  3334  0717  2F19               	goto	u1101
  3335  0718  2F1A               	goto	u1100
  3336  0719                     u1101:
  3337  0719  2F23               	goto	l1492
  3338  071A                     u1100:
  3339  071A                     l1488:
  3340  071A  0871               	movf	___aldiv@divisor,w
  3341  071B  02F5               	subwf	___aldiv@dividend,f
  3342  071C  0872               	movf	___aldiv@divisor+1,w
  3343  071D  3BF6               	subwfb	___aldiv@dividend+1,f
  3344  071E  0873               	movf	___aldiv@divisor+2,w
  3345  071F  3BF7               	subwfb	___aldiv@dividend+2,f
  3346  0720  0874               	movf	___aldiv@divisor+3,w
  3347  0721  3BF8               	subwfb	___aldiv@dividend+3,f
  3348  0722                     l1490:
  3349  0722  1451               	bsf	___aldiv@quotient,0
  3350  0723                     l1492:
  3351  0723  3001               	movlw	1
  3352  0724                     u1115:
  3353  0724  36F4               	lsrf	___aldiv@divisor+3,f
  3354  0725  0CF3               	rrf	___aldiv@divisor+2,f
  3355  0726  0CF2               	rrf	___aldiv@divisor+1,f
  3356  0727  0CF1               	rrf	___aldiv@divisor,f
  3357  0728  0B89               	decfsz	9,f
  3358  0729  2F24               	goto	u1115
  3359  072A                     l1494:
  3360  072A  3001               	movlw	1
  3361  072B  02CF               	subwf	___aldiv@counter,f
  3362  072C  1D03               	btfss	3,2
  3363  072D  2F2F               	goto	u1121
  3364  072E  2F30               	goto	u1120
  3365  072F                     u1121:
  3366  072F  2F01               	goto	l1484
  3367  0730                     u1120:
  3368  0730                     l1496:
  3369  0730  0850               	movf	___aldiv@sign,w
  3370  0731  1903               	btfsc	3,2
  3371  0732  2F34               	goto	u1131
  3372  0733  2F35               	goto	u1130
  3373  0734                     u1131:
  3374  0734  2F40               	goto	l1500
  3375  0735                     u1130:
  3376  0735                     l1498:
  3377  0735  09D1               	comf	___aldiv@quotient,f
  3378  0736  09D2               	comf	___aldiv@quotient+1,f
  3379  0737  09D3               	comf	___aldiv@quotient+2,f
  3380  0738  09D4               	comf	___aldiv@quotient+3,f
  3381  0739  0AD1               	incf	___aldiv@quotient,f
  3382  073A  1903               	skipnz
  3383  073B  0AD2               	incf	___aldiv@quotient+1,f
  3384  073C  1903               	skipnz
  3385  073D  0AD3               	incf	___aldiv@quotient+2,f
  3386  073E  1903               	skipnz
  3387  073F  0AD4               	incf	___aldiv@quotient+3,f
  3388  0740                     l1500:
  3389  0740  0854               	movf	___aldiv@quotient+3,w
  3390  0741  00F4               	movwf	?___aldiv+3
  3391  0742  0853               	movf	___aldiv@quotient+2,w
  3392  0743  00F3               	movwf	?___aldiv+2
  3393  0744  0852               	movf	___aldiv@quotient+1,w
  3394  0745  00F2               	movwf	?___aldiv+1
  3395  0746  0851               	movf	___aldiv@quotient,w
  3396  0747  00F1               	movwf	?___aldiv
  3397  0748                     l525:
  3398  0748  0008               	return
  3399  0749                     __end_of___aldiv:
  3400                           
  3401                           	psect	text8
  3402  07CC                     __ptext8:	
  3403 ;; *************** function _ButtonDebounceInit *****************
  3404 ;; Defined at:
  3405 ;;		line 56 in file "source/button_debounce.c"
  3406 ;; Parameters:    Size  Location     Type
  3407 ;;  port            1    wreg     PTR struct .
  3408 ;;		 -> aPorts(12), 
  3409 ;;  pulledUpButt    1    1[COMMON] unsigned char 
  3410 ;; Auto vars:     Size  Location     Type
  3411 ;;  port            1    4[COMMON] PTR struct .
  3412 ;;		 -> aPorts(12), 
  3413 ;;  i               1    3[COMMON] unsigned char 
  3414 ;; Return value:  Size  Location     Type
  3415 ;;                  1    wreg      void 
  3416 ;; Registers used:
  3417 ;;		wreg, fsr1l, fsr1h, status,2, status,0
  3418 ;; Tracked objects:
  3419 ;;		On entry : 0/0
  3420 ;;		On exit  : 0/0
  3421 ;;		Unchanged: 0/0
  3422 ;; Data sizes:     COMMON   BANK0   BANK1   BANK2   BANK3   BANK4   BANK5   BANK6
  3423 ;;      Params:         1       0       0       0       0       0       0       0
  3424 ;;      Locals:         2       0       0       0       0       0       0       0
  3425 ;;      Temps:          1       0       0       0       0       0       0       0
  3426 ;;      Totals:         4       0       0       0       0       0       0       0
  3427 ;;Total ram usage:        4 bytes
  3428 ;; Hardware stack levels used: 1
  3429 ;; Hardware stack levels required when called: 1
  3430 ;; This function calls:
  3431 ;;		Nothing
  3432 ;; This function is called by:
  3433 ;;		_main
  3434 ;; This function uses a non-reentrant model
  3435 ;;
  3436                           
  3437                           
  3438                           ;psect for function _ButtonDebounceInit
  3439  07CC                     _ButtonDebounceInit:
  3440                           
  3441                           ;incstack = 0
  3442                           ; Regs used in _ButtonDebounceInit: [wreg+fsr1l+fsr1h+status,2+status,0]
  3443                           ;ButtonDebounceInit@port stored from wreg
  3444  07CC  00F4               	movwf	ButtonDebounceInit@port
  3445  07CD                     l1504:
  3446                           
  3447                           ;source/button_debounce.c: 56: ButtonDebounceInit(Debouncer *port, uint8_t pulledUpButto
      +                          ns);source/button_debounce.c: 57: {;source/button_debounce.c: 58:     uint8_t i;;source/
      +                          button_debounce.c: 60:     port->index = 0;
  3448  07CD  0874               	movf	ButtonDebounceInit@port,w
  3449  07CE  3E08               	addlw	8
  3450  07CF  0086               	movwf	6
  3451  07D0  0187               	clrf	7
  3452  07D1  0181               	clrf	1
  3453                           
  3454                           ;source/button_debounce.c: 61:     port->debouncedState = 0x00;
  3455  07D2  0874               	movf	ButtonDebounceInit@port,w
  3456  07D3  3E09               	addlw	9
  3457  07D4  0086               	movwf	6
  3458  07D5  0187               	clrf	7
  3459  07D6  0181               	clrf	1
  3460                           
  3461                           ;source/button_debounce.c: 62:     port->changed = 0x00;
  3462  07D7  0874               	movf	ButtonDebounceInit@port,w
  3463  07D8  3E0A               	addlw	10
  3464  07D9  0086               	movwf	6
  3465  07DA  0187               	clrf	7
  3466  07DB  0181               	clrf	1
  3467                           
  3468                           ;source/button_debounce.c: 63:     port->pullType = pulledUpButtons;
  3469  07DC  0871               	movf	ButtonDebounceInit@pulledUpButtons,w
  3470  07DD  00F2               	movwf	??_ButtonDebounceInit
  3471  07DE  0874               	movf	ButtonDebounceInit@port,w
  3472  07DF  3E0B               	addlw	11
  3473  07E0  0086               	movwf	6
  3474  07E1  0187               	clrf	7
  3475  07E2  0872               	movf	??_ButtonDebounceInit,w
  3476  07E3  0081               	movwf	1
  3477  07E4                     l1506:
  3478                           
  3479                           ;source/button_debounce.c: 66:     for(i = 0; i < 8; i++)
  3480  07E4  01F3               	clrf	ButtonDebounceInit@i
  3481  07E5                     l1512:
  3482                           
  3483                           ;source/button_debounce.c: 67:     {;source/button_debounce.c: 68:         port->state[i
      +                          ] = 0x00;
  3484  07E5  0873               	movf	ButtonDebounceInit@i,w
  3485  07E6  0774               	addwf	ButtonDebounceInit@port,w
  3486  07E7  00F2               	movwf	??_ButtonDebounceInit
  3487  07E8  0872               	movf	??_ButtonDebounceInit,w
  3488  07E9  0086               	movwf	6
  3489  07EA  0187               	clrf	7
  3490  07EB  0181               	clrf	1
  3491  07EC                     l1514:
  3492                           
  3493                           ;source/button_debounce.c: 69:     }
  3494  07EC  3001               	movlw	1
  3495  07ED  00F2               	movwf	??_ButtonDebounceInit
  3496  07EE  0872               	movf	??_ButtonDebounceInit,w
  3497  07EF  07F3               	addwf	ButtonDebounceInit@i,f
  3498  07F0                     l1516:
  3499  07F0  3008               	movlw	8
  3500  07F1  0273               	subwf	ButtonDebounceInit@i,w
  3501  07F2  1C03               	skipc
  3502  07F3  2FF5               	goto	u1141
  3503  07F4  2FF6               	goto	u1140
  3504  07F5                     u1141:
  3505  07F5  2FE5               	goto	l1512
  3506  07F6                     u1140:
  3507  07F6                     l431:
  3508  07F6  0008               	return
  3509  07F7                     __end_of_ButtonDebounceInit:
  3510                           
  3511                           	psect	intentry
  3512  0004                     __pintentry:	
  3513 ;; *************** function _isr *****************
  3514 ;; Defined at:
  3515 ;;		line 562 in file "main.c"
  3516 ;; Parameters:    Size  Location     Type
  3517 ;;		None
  3518 ;; Auto vars:     Size  Location     Type
  3519 ;;		None
  3520 ;; Return value:  Size  Location     Type
  3521 ;;                  1    wreg      void 
  3522 ;; Registers used:
  3523 ;;		wreg, status,2, status,0
  3524 ;; Tracked objects:
  3525 ;;		On entry : 0/0
  3526 ;;		On exit  : 0/0
  3527 ;;		Unchanged: 0/0
  3528 ;; Data sizes:     COMMON   BANK0   BANK1   BANK2   BANK3   BANK4   BANK5   BANK6
  3529 ;;      Params:         0       0       0       0       0       0       0       0
  3530 ;;      Locals:         0       0       0       0       0       0       0       0
  3531 ;;      Temps:          1       0       0       0       0       0       0       0
  3532 ;;      Totals:         1       0       0       0       0       0       0       0
  3533 ;;Total ram usage:        1 bytes
  3534 ;; Hardware stack levels used: 1
  3535 ;; This function calls:
  3536 ;;		Nothing
  3537 ;; This function is called by:
  3538 ;;		Interrupt level 1
  3539 ;; This function uses a non-reentrant model
  3540 ;;
  3541                           
  3542  0004                     _isr:
  3543                           
  3544                           ;incstack = 0
  3545  0004  147E               	bsf	int$flags,0	;set compiler interrupt flag (level 1)
  3546                           
  3547                           ; Regs used in _isr: [wreg+status,2+status,0]
  3548  0005  3180               	pagesel	$
  3549  0006                     i1l1846:
  3550                           
  3551                           ;main.c: 567:     if (PIR1bits.TMR1IF) {
  3552  0006  014E               	movlb	14	; select bank14
  3553  0007  1E8D               	btfss	13,5	;volatile
  3554  0008  280A               	goto	u163_21
  3555  0009  280B               	goto	u163_20
  3556  000A                     u163_21:
  3557  000A  2871               	goto	i1l234
  3558  000B                     u163_20:
  3559  000B                     i1l1848:
  3560                           
  3561                           ;main.c: 568:         TMR1H = 0xFE;
  3562  000B  30FE               	movlw	254
  3563  000C  0144               	movlb	4	; select bank4
  3564  000D  008D               	movwf	13	;volatile
  3565                           
  3566                           ;main.c: 569:         TMR1L = 0x55;
  3567  000E  3055               	movlw	85
  3568  000F  008C               	movwf	12	;volatile
  3569  0010                     i1l1850:
  3570                           
  3571                           ;main.c: 571:         if (debugging) clockDivider = 15;
  3572  0010  0140               	movlb	0	; select bank0
  3573  0011  0864               	movf	_debugging,w
  3574  0012  1903               	btfsc	3,2
  3575  0013  2815               	goto	u164_21
  3576  0014  2816               	goto	u164_20
  3577  0015                     u164_21:
  3578  0015  281A               	goto	i1l235
  3579  0016                     u164_20:
  3580  0016                     i1l1852:
  3581  0016  300F               	movlw	15
  3582  0017  00F0               	movwf	??_isr
  3583  0018  0870               	movf	??_isr,w
  3584  0019  00C2               	movwf	_clockDivider
  3585  001A                     i1l235:
  3586                           
  3587                           ;main.c: 572:         if (clockDivider < 15) {
  3588  001A  300F               	movlw	15
  3589  001B  0242               	subwf	_clockDivider,w
  3590  001C  1803               	skipnc
  3591  001D  281F               	goto	u165_21
  3592  001E  2820               	goto	u165_20
  3593  001F                     u165_21:
  3594  001F  2825               	goto	i1l1856
  3595  0020                     u165_20:
  3596  0020                     i1l1854:
  3597                           
  3598                           ;main.c: 573:             clockDivider++;
  3599  0020  3001               	movlw	1
  3600  0021  00F0               	movwf	??_isr
  3601  0022  0870               	movf	??_isr,w
  3602  0023  07C2               	addwf	_clockDivider,f
  3603                           
  3604                           ;main.c: 574:         } else {
  3605  0024  2842               	goto	i1l1870
  3606  0025                     i1l1856:
  3607                           
  3608                           ;main.c: 576:             if (debugging) genericDelay = 0;
  3609  0025  0864               	movf	_debugging,w
  3610  0026  1903               	btfsc	3,2
  3611  0027  2829               	goto	u166_21
  3612  0028  282A               	goto	u166_20
  3613  0029                     u166_21:
  3614  0029  282D               	goto	i1l1860
  3615  002A                     u166_20:
  3616  002A                     i1l1858:
  3617  002A  01B2               	clrf	_genericDelay
  3618  002B  01B3               	clrf	_genericDelay+1
  3619  002C  2837               	goto	i1l1864
  3620  002D                     i1l1860:
  3621  002D  0832               	movf	_genericDelay,w
  3622  002E  0433               	iorwf	_genericDelay+1,w
  3623  002F  1903               	btfsc	3,2
  3624  0030  2832               	goto	u167_21
  3625  0031  2833               	goto	u167_20
  3626  0032                     u167_21:
  3627  0032  2837               	goto	i1l1864
  3628  0033                     u167_20:
  3629  0033                     i1l1862:
  3630  0033  3001               	movlw	1
  3631  0034  02B2               	subwf	_genericDelay,f
  3632  0035  3000               	movlw	0
  3633  0036  3BB3               	subwfb	_genericDelay+1,f
  3634  0037                     i1l1864:
  3635                           
  3636                           ;main.c: 578:             clockDivider = 0;
  3637  0037  01C2               	clrf	_clockDivider
  3638  0038                     i1l1866:
  3639                           
  3640                           ;main.c: 581:             if (buttonDebounce < 5) buttonDebounce++;
  3641  0038  3005               	movlw	5
  3642  0039  0241               	subwf	_buttonDebounce,w
  3643  003A  1803               	skipnc
  3644  003B  283D               	goto	u168_21
  3645  003C  283E               	goto	u168_20
  3646  003D                     u168_21:
  3647  003D  2842               	goto	i1l1870
  3648  003E                     u168_20:
  3649  003E                     i1l1868:
  3650  003E  3001               	movlw	1
  3651  003F  00F0               	movwf	??_isr
  3652  0040  0870               	movf	??_isr,w
  3653  0041  07C1               	addwf	_buttonDebounce,f
  3654  0042                     i1l1870:
  3655                           
  3656                           ;main.c: 598:         if ((gate || forceArc) && poweredOn && gotTheTouch) {
  3657  0042  083A               	movf	_gate,w
  3658  0043  043B               	iorwf	_gate+1,w
  3659  0044  1D03               	btfss	3,2
  3660  0045  2847               	goto	u169_21
  3661  0046  2848               	goto	u169_20
  3662  0047                     u169_21:
  3663  0047  284E               	goto	i1l1874
  3664  0048                     u169_20:
  3665  0048                     i1l1872:
  3666  0048  083C               	movf	_forceArc,w
  3667  0049  043D               	iorwf	_forceArc+1,w
  3668  004A  1903               	btfsc	3,2
  3669  004B  284D               	goto	u170_21
  3670  004C  284E               	goto	u170_20
  3671  004D                     u170_21:
  3672  004D  286D               	goto	i1l243
  3673  004E                     u170_20:
  3674  004E                     i1l1874:
  3675  004E  0830               	movf	_poweredOn,w
  3676  004F  0431               	iorwf	_poweredOn+1,w
  3677  0050  1903               	btfsc	3,2
  3678  0051  2853               	goto	u171_21
  3679  0052  2854               	goto	u171_20
  3680  0053                     u171_21:
  3681  0053  286D               	goto	i1l243
  3682  0054                     u171_20:
  3683  0054                     i1l1876:
  3684  0054  0828               	movf	_gotTheTouch,w
  3685  0055  0429               	iorwf	_gotTheTouch+1,w
  3686  0056  1903               	btfsc	3,2
  3687  0057  2859               	goto	u172_21
  3688  0058  285A               	goto	u172_20
  3689  0059                     u172_21:
  3690  0059  286D               	goto	i1l243
  3691  005A                     u172_20:
  3692  005A                     i1l1878:
  3693                           
  3694                           ;main.c: 599:             pinState ^= 1;
  3695  005A  3001               	movlw	(0+1) shl (_pinState& (0+7))
  3696  005B  06FC               	xorwf	_pinState/(0+8),f
  3697  005C                     i1l1880:
  3698                           
  3699                           ;main.c: 600:             LATC4 = pinState;
  3700  005C  187C               	btfsc	_pinState/(0+8),_pinState& (0+7)
  3701  005D  285F               	goto	u173_21
  3702  005E  2862               	goto	u173_20
  3703  005F                     u173_21:
  3704  005F  0140               	movlb	0	; select bank0
  3705  0060  161A               	bsf	26,4	;volatile
  3706  0061  2864               	goto	u174_24
  3707  0062                     u173_20:
  3708  0062  0140               	movlb	0	; select bank0
  3709  0063  121A               	bcf	26,4	;volatile
  3710  0064                     u174_24:
  3711  0064                     i1l1882:
  3712                           
  3713                           ;main.c: 601:             LATC5 = (pinState^1);
  3714  0064  1C7C               	btfss	_pinState/(0+8),_pinState& (0+7)
  3715  0065  2867               	goto	u175_21
  3716  0066  286A               	goto	u175_20
  3717  0067                     u175_21:
  3718  0067  0140               	movlb	0	; select bank0
  3719  0068  169A               	bsf	26,5	;volatile
  3720  0069  286C               	goto	u176_24
  3721  006A                     u175_20:
  3722  006A  0140               	movlb	0	; select bank0
  3723  006B  129A               	bcf	26,5	;volatile
  3724  006C                     u176_24:
  3725                           
  3726                           ;main.c: 602:         } else {
  3727  006C  286F               	goto	i1l246
  3728  006D                     i1l243:
  3729                           
  3730                           ;main.c: 603:             LATC4 = 0;
  3731  006D  121A               	bcf	26,4	;volatile
  3732                           
  3733                           ;main.c: 604:             LATC5 = 0;
  3734  006E  129A               	bcf	26,5	;volatile
  3735  006F                     i1l246:	
  3736                           ;main.c: 605:         }
  3737                           
  3738                           
  3739                           ;main.c: 607:         PIR1bits.TMR1IF = 0;
  3740  006F  014E               	movlb	14	; select bank14
  3741  0070  128D               	bcf	13,5	;volatile
  3742  0071                     i1l234:	
  3743                           ;main.c: 608:     }
  3744                           
  3745                           
  3746                           ;main.c: 613:     if (PIR0bits.TMR0IF) {
  3747  0071  1E8C               	btfss	12,5	;volatile
  3748  0072  2874               	goto	u177_21
  3749  0073  2875               	goto	u177_20
  3750  0074                     u177_21:
  3751  0074  288F               	goto	i1l1896
  3752  0075                     u177_20:
  3753  0075                     i1l1884:
  3754                           
  3755                           ;main.c: 614:         if (!noGate) {
  3756  0075  0140               	movlb	0	; select bank0
  3757  0076  0862               	movf	_noGate,w
  3758  0077  0463               	iorwf	_noGate+1,w
  3759  0078  1D03               	btfss	3,2
  3760  0079  287B               	goto	u178_21
  3761  007A  287C               	goto	u178_20
  3762  007B                     u178_21:
  3763  007B  288B               	goto	i1l1892
  3764  007C                     u178_20:
  3765  007C                     i1l1886:
  3766                           
  3767                           ;main.c: 615:             postscaler ^= 1;
  3768  007C  3001               	movlw	1
  3769  007D  06B6               	xorwf	_postscaler,f
  3770  007E  3000               	movlw	0
  3771  007F  06B7               	xorwf	_postscaler+1,f
  3772  0080                     i1l1888:
  3773                           
  3774                           ;main.c: 616:             if (postscaler) {
  3775  0080  0836               	movf	_postscaler,w
  3776  0081  0437               	iorwf	_postscaler+1,w
  3777  0082  1903               	btfsc	3,2
  3778  0083  2885               	goto	u179_21
  3779  0084  2886               	goto	u179_20
  3780  0085                     u179_21:
  3781  0085  288D               	goto	i1l1894
  3782  0086                     u179_20:
  3783  0086                     i1l1890:
  3784                           
  3785                           ;main.c: 617:                 gate ^= 1;
  3786  0086  3001               	movlw	1
  3787  0087  06BA               	xorwf	_gate,f
  3788  0088  3000               	movlw	0
  3789  0089  06BB               	xorwf	_gate+1,f
  3790  008A  288D               	goto	i1l1894
  3791  008B                     i1l1892:
  3792                           
  3793                           ;main.c: 620:             gate = 0;
  3794  008B  01BA               	clrf	_gate
  3795  008C  01BB               	clrf	_gate+1
  3796  008D                     i1l1894:
  3797                           
  3798                           ;main.c: 622:         PIR0bits.TMR0IF = 0;
  3799  008D  014E               	movlb	14	; select bank14
  3800  008E  128C               	bcf	12,5	;volatile
  3801  008F                     i1l1896:
  3802                           
  3803                           ;main.c: 626:     if (PIR0bits.IOCIF) {
  3804  008F  1E0C               	btfss	12,4	;volatile
  3805  0090  2892               	goto	u180_21
  3806  0091  2893               	goto	u180_20
  3807  0092                     u180_21:
  3808  0092  2909               	goto	i1l261
  3809  0093                     u180_20:
  3810  0093                     i1l1898:
  3811                           
  3812                           ;main.c: 630:         if (IOCAF4) {
  3813  0093  017E               	movlb	62	; select bank62
  3814  0094  1E3F               	btfss	63,4	;volatile
  3815  0095  2897               	goto	u181_21
  3816  0096  2898               	goto	u181_20
  3817  0097                     u181_21:
  3818  0097  28AB               	goto	i1l1906
  3819  0098                     u181_20:
  3820  0098                     i1l1900:
  3821                           
  3822                           ;main.c: 631:             IOCAF4 = 0;
  3823  0098  123F               	bcf	63,4	;volatile
  3824                           
  3825                           ;main.c: 633:             if (!PORTAbits.RA4) {
  3826  0099  0140               	movlb	0	; select bank0
  3827  009A  1A0C               	btfsc	12,4	;volatile
  3828  009B  289D               	goto	u182_21
  3829  009C  289E               	goto	u182_20
  3830  009D                     u182_21:
  3831  009D  28A7               	goto	i1l1904
  3832  009E                     u182_20:
  3833  009E                     i1l1902:
  3834                           
  3835                           ;main.c: 636:                 charging = 1;
  3836  009E  3001               	movlw	1
  3837  009F  00A6               	movwf	_charging
  3838  00A0  3000               	movlw	0
  3839  00A1  00A7               	movwf	_charging+1
  3840                           
  3841                           ;main.c: 637:                 showCharge = 1;
  3842  00A2  3001               	movlw	1
  3843  00A3  00AE               	movwf	_showCharge
  3844  00A4  3000               	movlw	0
  3845  00A5  00AF               	movwf	_showCharge+1
  3846                           
  3847                           ;main.c: 640:             } else {
  3848  00A6  28AB               	goto	i1l1906
  3849  00A7                     i1l1904:
  3850                           
  3851                           ;main.c: 642:                 charging = 0;
  3852  00A7  01A6               	clrf	_charging
  3853  00A8  01A7               	clrf	_charging+1
  3854                           
  3855                           ;main.c: 644:                 showCharge = 0;
  3856  00A9  01AE               	clrf	_showCharge
  3857  00AA  01AF               	clrf	_showCharge+1
  3858  00AB                     i1l1906:
  3859                           
  3860                           ;main.c: 652:         if (IOCAF0) {
  3861  00AB  017E               	movlb	62	; select bank62
  3862  00AC  1C3F               	btfss	63,0	;volatile
  3863  00AD  28AF               	goto	u183_21
  3864  00AE  28B0               	goto	u183_20
  3865  00AF                     u183_21:
  3866  00AF  28D8               	goto	i1l1930
  3867  00B0                     u183_20:
  3868  00B0                     i1l1908:
  3869                           
  3870                           ;main.c: 653:             IOCAF0 = 0;
  3871  00B0  103F               	bcf	63,0	;volatile
  3872                           
  3873                           ;main.c: 655:             if (!PORTAbits.RA0 && PORTAbits.RA4) {
  3874  00B1  0140               	movlb	0	; select bank0
  3875  00B2  180C               	btfsc	12,0	;volatile
  3876  00B3  28B5               	goto	u184_21
  3877  00B4  28B6               	goto	u184_20
  3878  00B5                     u184_21:
  3879  00B5  28C6               	goto	i1l1920
  3880  00B6                     u184_20:
  3881  00B6                     i1l1910:
  3882  00B6  1E0C               	btfss	12,4	;volatile
  3883  00B7  28B9               	goto	u185_21
  3884  00B8  28BA               	goto	u185_20
  3885  00B9                     u185_21:
  3886  00B9  28C6               	goto	i1l1920
  3887  00BA                     u185_20:
  3888  00BA                     i1l1912:
  3889                           
  3890                           ;main.c: 656:                 lowPowerMode = 0;
  3891  00BA  01AC               	clrf	_lowPowerMode
  3892  00BB  01AD               	clrf	_lowPowerMode+1
  3893  00BC                     i1l1914:
  3894                           
  3895                           ;main.c: 657:                 poweredOn = 1;
  3896  00BC  3001               	movlw	1
  3897  00BD  00B0               	movwf	_poweredOn
  3898  00BE  3000               	movlw	0
  3899  00BF  00B1               	movwf	_poweredOn+1
  3900  00C0                     i1l1916:
  3901                           
  3902                           ;main.c: 658:                 showCharge = 1;
  3903  00C0  3001               	movlw	1
  3904  00C1  00AE               	movwf	_showCharge
  3905  00C2  3000               	movlw	0
  3906  00C3  00AF               	movwf	_showCharge+1
  3907  00C4                     i1l1918:
  3908                           
  3909                           ;main.c: 659:                 fadeUp = 1;
  3910  00C4  01C0               	clrf	_fadeUp
  3911  00C5  0AC0               	incf	_fadeUp,f
  3912  00C6                     i1l1920:
  3913                           
  3914                           ;main.c: 662:             if (PORTAbits.RA0 && PORTAbits.RA4) {
  3915  00C6  1C0C               	btfss	12,0	;volatile
  3916  00C7  28C9               	goto	u186_21
  3917  00C8  28CA               	goto	u186_20
  3918  00C9                     u186_21:
  3919  00C9  28D8               	goto	i1l1930
  3920  00CA                     u186_20:
  3921  00CA                     i1l1922:
  3922  00CA  1E0C               	btfss	12,4	;volatile
  3923  00CB  28CD               	goto	u187_21
  3924  00CC  28CE               	goto	u187_20
  3925  00CD                     u187_21:
  3926  00CD  28D8               	goto	i1l1930
  3927  00CE                     u187_20:
  3928  00CE                     i1l1924:
  3929                           
  3930                           ;main.c: 664:                 showCharge = 0;
  3931  00CE  01AE               	clrf	_showCharge
  3932  00CF  01AF               	clrf	_showCharge+1
  3933                           
  3934                           ;main.c: 665:                 poweredOn = 0;
  3935  00D0  01B0               	clrf	_poweredOn
  3936  00D1  01B1               	clrf	_poweredOn+1
  3937  00D2                     i1l1926:
  3938                           
  3939                           ;main.c: 666:                 lowPowerMode = 1;
  3940  00D2  3001               	movlw	1
  3941  00D3  00AC               	movwf	_lowPowerMode
  3942  00D4  3000               	movlw	0
  3943  00D5  00AD               	movwf	_lowPowerMode+1
  3944  00D6                     i1l1928:
  3945                           
  3946                           ;main.c: 667:                 forceArc = 0;
  3947  00D6  01BC               	clrf	_forceArc
  3948  00D7  01BD               	clrf	_forceArc+1
  3949  00D8                     i1l1930:
  3950                           
  3951                           ;main.c: 672:         if (IOCAF3) {
  3952  00D8  017E               	movlb	62	; select bank62
  3953  00D9  1DBF               	btfss	63,3	;volatile
  3954  00DA  28DC               	goto	u188_21
  3955  00DB  28DD               	goto	u188_20
  3956  00DC                     u188_21:
  3957  00DC  2909               	goto	i1l261
  3958  00DD                     u188_20:
  3959  00DD                     i1l1932:
  3960                           
  3961                           ;main.c: 673:             IOCAF3 = 0;
  3962  00DD  11BF               	bcf	63,3	;volatile
  3963                           
  3964                           ;main.c: 675:             if (!PORTAbits.RA3 && !PORTAbits.RA0 && PORTAbits.RA4) {
  3965  00DE  0140               	movlb	0	; select bank0
  3966  00DF  198C               	btfsc	12,3	;volatile
  3967  00E0  28E2               	goto	u189_21
  3968  00E1  28E3               	goto	u189_20
  3969  00E2                     u189_21:
  3970  00E2  28F7               	goto	i1l1944
  3971  00E3                     u189_20:
  3972  00E3                     i1l1934:
  3973  00E3  180C               	btfsc	12,0	;volatile
  3974  00E4  28E6               	goto	u190_21
  3975  00E5  28E7               	goto	u190_20
  3976  00E6                     u190_21:
  3977  00E6  28F7               	goto	i1l1944
  3978  00E7                     u190_20:
  3979  00E7                     i1l1936:
  3980  00E7  1E0C               	btfss	12,4	;volatile
  3981  00E8  28EA               	goto	u191_21
  3982  00E9  28EB               	goto	u191_20
  3983  00EA                     u191_21:
  3984  00EA  28F7               	goto	i1l1944
  3985  00EB                     u191_20:
  3986  00EB                     i1l1938:
  3987                           
  3988                           ;main.c: 676:                 lowPowerMode = 0;
  3989  00EB  01AC               	clrf	_lowPowerMode
  3990  00EC  01AD               	clrf	_lowPowerMode+1
  3991  00ED                     i1l1940:
  3992                           
  3993                           ;main.c: 677:                 poweredOn = 1;
  3994  00ED  3001               	movlw	1
  3995  00EE  00B0               	movwf	_poweredOn
  3996  00EF  3000               	movlw	0
  3997  00F0  00B1               	movwf	_poweredOn+1
  3998  00F1                     i1l1942:
  3999                           
  4000                           ;main.c: 678:                 showCharge = 0;
  4001  00F1  01AE               	clrf	_showCharge
  4002  00F2  01AF               	clrf	_showCharge+1
  4003                           
  4004                           ;main.c: 679:                 gotTheTouch = 1;
  4005  00F3  3001               	movlw	1
  4006  00F4  00A8               	movwf	_gotTheTouch
  4007  00F5  3000               	movlw	0
  4008  00F6  00A9               	movwf	_gotTheTouch+1
  4009  00F7                     i1l1944:
  4010                           
  4011                           ;main.c: 682:             if (PORTAbits.RA3 && !PORTAbits.RA0 && PORTAbits.RA4) {
  4012  00F7  1D8C               	btfss	12,3	;volatile
  4013  00F8  28FA               	goto	u192_21
  4014  00F9  28FB               	goto	u192_20
  4015  00FA                     u192_21:
  4016  00FA  2909               	goto	i1l261
  4017  00FB                     u192_20:
  4018  00FB                     i1l1946:
  4019  00FB  180C               	btfsc	12,0	;volatile
  4020  00FC  28FE               	goto	u193_21
  4021  00FD  28FF               	goto	u193_20
  4022  00FE                     u193_21:
  4023  00FE  2909               	goto	i1l261
  4024  00FF                     u193_20:
  4025  00FF                     i1l1948:
  4026  00FF  1E0C               	btfss	12,4	;volatile
  4027  0100  2902               	goto	u194_21
  4028  0101  2903               	goto	u194_20
  4029  0102                     u194_21:
  4030  0102  2909               	goto	i1l261
  4031  0103                     u194_20:
  4032  0103                     i1l1950:
  4033                           
  4034                           ;main.c: 686:                 showCharge = 1;
  4035  0103  3001               	movlw	1
  4036  0104  00AE               	movwf	_showCharge
  4037  0105  3000               	movlw	0
  4038  0106  00AF               	movwf	_showCharge+1
  4039  0107                     i1l1952:
  4040                           
  4041                           ;main.c: 687:                 gotTheTouch = 0;
  4042  0107  01A8               	clrf	_gotTheTouch
  4043  0108  01A9               	clrf	_gotTheTouch+1
  4044  0109                     i1l261:
  4045  0109  107E               	bcf	int$flags,0	;clear compiler interrupt flag (level 1)
  4046  010A  0009               	retfie
  4047  010B                     __end_of_isr:
  4048  007E                     btemp	set	126	;btemp
  4049  007E                     int$flags	set	126
  4050  007E                     wtemp0	set	126
  4051                           
  4052                           	psect	config
  4053                           
  4054                           ;Config register CONFIG1 @ 0x8007
  4055                           ;	External Oscillator Mode Selection bits
  4056                           ;	FEXTOSC = 0x3, unprogrammed default
  4057                           ;	Power-up Default Value for COSC bits
  4058                           ;	RSTOSC = 0x0, user specified literal
  4059                           ;	Clock Out Enable bit
  4060                           ;	CLKOUTEN = 0x1, user specified literal
  4061                           ;	VDD Range Analog Calibration Selection bit
  4062                           ;	VDDAR = 0x1, unprogrammed default
  4063  8007                     	org	32775
  4064  8007  3FCF               	dw	16335
  4065                           
  4066                           ;Config register CONFIG2 @ 0x8008
  4067                           ;	Master Clear Enable bit
  4068                           ;	MCLRE = 0x0, user specified literal
  4069                           ;	Power-up Timer Selection bits
  4070                           ;	PWRTS = 0x3, unprogrammed default
  4071                           ;	WDT Operating Mode bits
  4072                           ;	WDTE = 0x0, user specified literal
  4073                           ;	Brown-out Reset Enable bits
  4074                           ;	BOREN = 0x0, user specified literal
  4075                           ;	Brown-out Reset Voltage Selection bit
  4076                           ;	BORV = LO, Brown-out Reset Voltage (VBOR) set to 1.9V
  4077                           ;	PPSLOCKED One-Way Set Enable bit
  4078                           ;	PPS1WAY = 0x1, unprogrammed default
  4079                           ;	Stack Overflow/Underflow Reset Enable bit
  4080                           ;	STVREN = ON, Stack Overflow or Underflow will cause a reset
  4081  8008                     	org	32776
  4082  8008  3F26               	dw	16166
  4083                           
  4084                           ;Config register CONFIG4 @ 0x800A
  4085                           ;	Boot Block Size Selection bits
  4086                           ;	BBSIZE = 0x7, unprogrammed default
  4087                           ;	Boot Block Enable bit
  4088                           ;	BBEN = 0x1, unprogrammed default
  4089                           ;	SAF Enable bit
  4090                           ;	SAFEN = 0x1, unprogrammed default
  4091                           ;	Application Block Write Protection bit
  4092                           ;	WRTAPP = 0x1, unprogrammed default
  4093                           ;	Boot Block Write Protection bit
  4094                           ;	WRTB = 0x1, unprogrammed default
  4095                           ;	Configuration Registers Write Protection bit
  4096                           ;	WRTC = 0x1, unprogrammed default
  4097                           ;	Storage Area Flash (SAF) Write Protection bit
  4098                           ;	WRTSAF = OFF, SAF is not write-protected
  4099                           ;	Low Voltage Programming Enable bit
  4100                           ;	LVP = OFF, High Voltage on MCLR/Vpp must be used for programming
  4101  800A                     	org	32778
  4102  800A  1FFF               	dw	8191
  4103                           
  4104                           ;Config register CONFIG5 @ 0x800B
  4105                           ;	User Program Flash Memory Code Protection bit
  4106                           ;	CP = OFF, User Program Flash Memory code protection is disabled
  4107  800B                     	org	32779
  4108  800B  3FFF               	dw	16383

Data Sizes:
    Strings     0
    Constant    724
    Data        3
    BSS         49
    Persistent  32
    Stack       0

Auto Spaces:
    Space          Size  Autos    Used
    COMMON           14     10      13
    BANK0            80     19      69
    BANK1            80      0       0
    BANK2            80      0       0
    BANK3            80      0       0
    BANK4            80      0       0
    BANK5            80      0       0
    BANK6            16      0       0

Pointer List with Targets:

    ButtonDebounceInit@port	PTR struct . size(1) Largest target is 12
		 -> aPorts(BANK0[12]), 


Critical Paths under _main in COMMON

    _goToLPmode->_playNote
    _doTheArc->_playNote
    _chargeIndicator->___aldiv

Critical Paths under _isr in COMMON

    None.

Critical Paths under _main in BANK0

    _main->_chargeIndicator
    _chargeIndicator->___aldiv

Critical Paths under _isr in BANK0

    None.

Critical Paths under _main in BANK1

    None.

Critical Paths under _isr in BANK1

    None.

Critical Paths under _main in BANK2

    None.

Critical Paths under _isr in BANK2

    None.

Critical Paths under _main in BANK3

    None.

Critical Paths under _isr in BANK3

    None.

Critical Paths under _main in BANK4

    None.

Critical Paths under _isr in BANK4

    None.

Critical Paths under _main in BANK5

    None.

Critical Paths under _isr in BANK5

    None.

Critical Paths under _main in BANK6

    None.

Critical Paths under _isr in BANK6

    None.

Call Graph Tables:

 ---------------------------------------------------------------------------------
 (Depth) Function   	        Calls       Base Space   Used Autos Params    Refs
 ---------------------------------------------------------------------------------
 (0) _main                                                 5     1      4    2936
                                             14 BANK0      5     1      4
                 _ButtonDebounceInit
                      _blockingDelay
                    _chargeIndicator
                           _doTheArc
                               _fade
                         _goToLPmode
 ---------------------------------------------------------------------------------
 (1) _goToLPmode                                           0     0      0     522
                           _playNote
 ---------------------------------------------------------------------------------
 (1) _fade                                                 0     0      0       0
 ---------------------------------------------------------------------------------
 (1) _doTheArc                                             2     2      0     522
                                              5 COMMON     2     2      0
                           _playNote
 ---------------------------------------------------------------------------------
 (2) _playNote                                             4     0      4     522
                                              1 COMMON     4     0      4
 ---------------------------------------------------------------------------------
 (1) _chargeIndicator                                      8     8      0    1105
                                              6 BANK0      8     8      0
                            ___aldiv
                      _blockingDelay
 ---------------------------------------------------------------------------------
 (2) _blockingDelay                                        2     0      2     478
                                              1 COMMON     2     0      2
 ---------------------------------------------------------------------------------
 (2) ___aldiv                                             15     7      8     604
                                              1 COMMON     9     1      8
                                              0 BANK0      6     6      0
 ---------------------------------------------------------------------------------
 (1) _ButtonDebounceInit                                   4     3      1     309
                                              1 COMMON     4     3      1
 ---------------------------------------------------------------------------------
 Estimated maximum stack depth 2
 ---------------------------------------------------------------------------------
 (Depth) Function   	        Calls       Base Space   Used Autos Params    Refs
 ---------------------------------------------------------------------------------
 (3) _isr                                                  1     1      0       0
                                              0 COMMON     1     1      0
 ---------------------------------------------------------------------------------
 Estimated maximum stack depth 3
 ---------------------------------------------------------------------------------

 Call Graph Graphs:

 _main (ROOT)
   _ButtonDebounceInit
   _blockingDelay
   _chargeIndicator
     ___aldiv
     _blockingDelay
   _doTheArc
     _playNote
   _fade
   _goToLPmode
     _playNote

 _isr (ROOT)

 Address spaces:
Name               Size   Autos  Total    Cost      Usage
BIGRAM             1F0      0       0       0        0.0%
NULL                 0      0       0       0        0.0%
CODE                 0      0       0       0        0.0%
BITCOMMON            E      0       1       1        7.1%
BITSFR0              0      0       0       1        0.0%
SFR0                 0      0       0       1        0.0%
COMMON               E      A       D       2       92.9%
BITSFR1              0      0       0       2        0.0%
SFR1                 0      0       0       2        0.0%
BITSFR2              0      0       0       3        0.0%
SFR2                 0      0       0       3        0.0%
STACK                0      0       0       3        0.0%
BITSFR3              0      0       0       4        0.0%
SFR3                 0      0       0       4        0.0%
ABS                  0      0      52       4        0.0%
BITBANK0            50      0       0       5        0.0%
BITSFR4              0      0       0       5        0.0%
SFR4                 0      0       0       5        0.0%
BANK0               50     13      45       6       86.2%
BITSFR5              0      0       0       6        0.0%
SFR5                 0      0       0       6        0.0%
BITBANK1            50      0       0       7        0.0%
BITSFR6              0      0       0       7        0.0%
SFR6                 0      0       0       7        0.0%
BANK1               50      0       0       8        0.0%
BITSFR7              0      0       0       8        0.0%
SFR7                 0      0       0       8        0.0%
BITBANK2            50      0       0       9        0.0%
BITSFR8              0      0       0       9        0.0%
SFR8                 0      0       0       9        0.0%
BANK2               50      0       0      10        0.0%
BITSFR9              0      0       0      10        0.0%
SFR9                 0      0       0      10        0.0%
BITBANK3            50      0       0      11        0.0%
BITSFR10             0      0       0      11        0.0%
SFR10                0      0       0      11        0.0%
BANK3               50      0       0      12        0.0%
BITSFR11             0      0       0      12        0.0%
SFR11                0      0       0      12        0.0%
BITBANK4            50      0       0      13        0.0%
BITSFR12             0      0       0      13        0.0%
SFR12                0      0       0      13        0.0%
BANK4               50      0       0      14        0.0%
BITSFR13             0      0       0      14        0.0%
SFR13                0      0       0      14        0.0%
BITBANK5            50      0       0      15        0.0%
BITSFR14             0      0       0      15        0.0%
SFR14                0      0       0      15        0.0%
BANK5               50      0       0      16        0.0%
BITSFR15             0      0       0      16        0.0%
SFR15                0      0       0      16        0.0%
BITBANK6            10      0       0      17        0.0%
BITSFR16             0      0       0      17        0.0%
SFR16                0      0       0      17        0.0%
BANK6               10      0       0      18        0.0%
BITSFR17             0      0       0      18        0.0%
SFR17                0      0       0      18        0.0%
BITSFR18             0      0       0      19        0.0%
SFR18                0      0       0      19        0.0%
DATA                 0      0      52      19        0.0%
BITSFR19             0      0       0      20        0.0%
SFR19                0      0       0      20        0.0%
BITSFR20             0      0       0      21        0.0%
SFR20                0      0       0      21        0.0%
BITSFR21             0      0       0      22        0.0%
SFR21                0      0       0      22        0.0%
BITSFR22             0      0       0      23        0.0%
SFR22                0      0       0      23        0.0%
BITSFR23             0      0       0      24        0.0%
SFR23                0      0       0      24        0.0%
BITSFR24             0      0       0      25        0.0%
SFR24                0      0       0      25        0.0%
BITSFR25             0      0       0      26        0.0%
SFR25                0      0       0      26        0.0%
BITSFR26             0      0       0      27        0.0%
SFR26                0      0       0      27        0.0%
BITSFR27             0      0       0      28        0.0%
SFR27                0      0       0      28        0.0%
BITSFR28             0      0       0      29        0.0%
SFR28                0      0       0      29        0.0%
BITSFR29             0      0       0      30        0.0%
SFR29                0      0       0      30        0.0%
BITSFR30             0      0       0      31        0.0%
SFR30                0      0       0      31        0.0%
BITSFR31             0      0       0      32        0.0%
SFR31                0      0       0      32        0.0%
BITSFR32             0      0       0      33        0.0%
SFR32                0      0       0      33        0.0%
BITSFR33             0      0       0      34        0.0%
SFR33                0      0       0      34        0.0%
BITSFR34             0      0       0      35        0.0%
SFR34                0      0       0      35        0.0%
BITSFR35             0      0       0      36        0.0%
SFR35                0      0       0      36        0.0%
BITSFR36             0      0       0      37        0.0%
SFR36                0      0       0      37        0.0%
BITSFR37             0      0       0      38        0.0%
SFR37                0      0       0      38        0.0%
BITSFR38             0      0       0      39        0.0%
SFR38                0      0       0      39        0.0%
BITSFR39             0      0       0      40        0.0%
SFR39                0      0       0      40        0.0%
BITSFR40             0      0       0      41        0.0%
SFR40                0      0       0      41        0.0%
BITSFR41             0      0       0      42        0.0%
SFR41                0      0       0      42        0.0%
BITSFR42             0      0       0      43        0.0%
SFR42                0      0       0      43        0.0%
BITSFR43             0      0       0      44        0.0%
SFR43                0      0       0      44        0.0%
BITSFR44             0      0       0      45        0.0%
SFR44                0      0       0      45        0.0%
BITSFR45             0      0       0      46        0.0%
SFR45                0      0       0      46        0.0%
BITSFR46             0      0       0      47        0.0%
SFR46                0      0       0      47        0.0%
BITSFR47             0      0       0      48        0.0%
SFR47                0      0       0      48        0.0%
BITSFR48             0      0       0      49        0.0%
SFR48                0      0       0      49        0.0%
BITSFR49             0      0       0      50        0.0%
SFR49                0      0       0      50        0.0%
BITSFR50             0      0       0      51        0.0%
SFR50                0      0       0      51        0.0%
BITSFR51             0      0       0      52        0.0%
SFR51                0      0       0      52        0.0%
BITSFR52             0      0       0      53        0.0%
SFR52                0      0       0      53        0.0%
BITSFR53             0      0       0      54        0.0%
SFR53                0      0       0      54        0.0%
BITSFR54             0      0       0      55        0.0%
SFR54                0      0       0      55        0.0%
BITSFR55             0      0       0      56        0.0%
SFR55                0      0       0      56        0.0%
BITSFR56             0      0       0      57        0.0%
SFR56                0      0       0      57        0.0%
BITSFR57             0      0       0      58        0.0%
SFR57                0      0       0      58        0.0%
BITSFR58             0      0       0      59        0.0%
SFR58                0      0       0      59        0.0%
BITSFR59             0      0       0      60        0.0%
SFR59                0      0       0      60        0.0%
BITSFR60             0      0       0      61        0.0%
SFR60                0      0       0      61        0.0%
BITSFR61             0      0       0      62        0.0%
SFR61                0      0       0      62        0.0%
BITSFR62             0      0       0      63        0.0%
SFR62                0      0       0      63        0.0%
BITSFR63             0      0       0      64        0.0%
SFR63                0      0       0      64        0.0%


Microchip Technology PIC Macro Assembler V2.32 build 20210201212658 
Symbol Table                                                                                   Fri Sep 24 16:08:21 2021

                                _i 007A                                l221 0381  
                              l303 0FE9                                l215 034D  
                              l313 07CB                                l217 0359  
                              l226 03E4                                l307 07B4  
                              l324 0760                                l316 0FFF  
                              l333 0799                                l431 07F6  
                              l351 067F                                l360 06A4  
                              l336 05E5                                l273 0416  
                              l329 0797                                l362 06B8  
                              l346 0665                                l338 05ED  
                              l266 0405                                l515 06CC  
                              l355 0699                                l356 0698  
                              l284 0473                                l525 0748  
                              l359 06A3                                l296 04EC  
                              _GIE 005F                                u980 0FE3  
                              u981 0FE2                                u990 0FE9  
                              u991 0FE8                                _isr 0004  
                              wreg 0009                               l2010 02F2  
                             l2002 02E8                               l2100 034B  
                             l2020 02FA                               l2012 02F4  
                             l2004 02ED                               l2110 036B  
                             l2102 0353                               l2030 0301  
                             l2022 02FC                               l2014 02F5  
                             l2006 02EE                               l2120 0396  
                             l2112 036D                               l2040 0306  
                             l2032 0302                               l2024 02FE  
                             l2016 02F6                               l2008 02F0  
                             l2130 03BC                               l2122 039F  
                             l2114 0378                               l2106 035E  
                             l2050 030B                               l2042 0307  
                             l2034 0303                               l2026 02FF  
                             l2018 02F8                               l1500 0740  
                             l2140 03D1                               l2132 03BF  
                             l2124 03A8                               l2116 037F  
                             l2108 0366                               l2060 031C  
                             l2052 030C                               l2044 0308  
                             l2036 0304                               l2028 0300  
                             l2150 03ED                               l2142 03D8  
                             l2134 03C4                               l2126 03B1  
                             l2118 038F                               l2070 0328  
                             l2062 031E                               l2054 0314  
                             l2046 0309                               l2038 0305  
                             l1512 07E5                               l1504 07CD  
                             l1600 069C                               l1520 074F  
                             l2144 03DA                               l2136 03C8  
                             l2128 03BA                               l2080 0332  
                             l2072 032B                               l2064 0322  
                             l2056 0319                               l2048 030A  
                             l1514 07EC                               l1506 07E4  
                             l1442 0FD9                               l1602 06A1  
                             l1450 079A                               l1610 03F3  
                             l1530 076B                               l1522 0754  
                             l2146 03E0                               l2138 03CE  
                             l2090 033C                               l2082 0333  
                             l2074 032C                               l2066 0323  
                             l2058 031A                               l1516 07F0  
                             l1444 0FDE                               l1604 06A7  
                             l1460 07BF                               l1452 07A0  
                             l2172 04D8                               l1620 040F  
                             l1612 03F8                               l1532 0770  
                             l1524 0757                               l2148 03E6  
                             l2092 033E                               l2084 0336  
                             l2076 032E                               l2068 0327  
                             l1470 06D0                               l1606 06AD  
                             l1462 07C5                               l1454 07A3  
                             l1630 0430                               l1622 041A  
                             l1614 03FC                               l1542 0789  
                             l1534 0776                               l1526 075A  
                             l1550 0797                               l1518 0749  
                             l2094 033F                               l2086 033A  
                             l2078 0330                               l1480 06F2  
                             l1472 06DB                               l1464 06B9  
                             l1448 0FE3                               l1608 06B1  
                             l1560 05F2                               l1552 05DD  
                             l1456 07AF                               l1640 046C  
                             l1632 0435                               l1624 041E  
                             l1616 0402                               l1544 078F  
                             l1536 077F                               l1528 0765  
                             l2096 0344                               l2088 033B  
                             l1490 0722                               l1482 06FD  
                             l1474 06DF                               l1466 06BB  
                             l1570 064C                               l1562 05FA  
                             l1554 05E3                               l1458 07B9  
                             l1650 048D                               l1642 0477  
                             l1634 0458                               l1626 0424  
                             l1618 0409                               l1546 0791  
                             l1538 0782                               l2098 0345  
                             l1492 0723                               l1484 0701  
                             l1476 06E7                               l1468 06BF  
                             l1572 0655                               l1580 0667  
                             l1564 05FF                               l1556 05E7  
                             l1660 04C9                               l1652 0492  
                             l1644 047B                               l1636 045C  
                             l1628 042A                               l1548 0793  
                             l1494 072A                               l1486 0708  
                             l1478 06EF                               l1582 0670  
                             l1590 0681                               l1574 0658  
                             l1566 063E                               l1670 04E9  
                             l1654 04B5                               l1646 0481  
                             l1638 0465                               l1488 071A  
                             l1496 0730                               l1592 068A  
                             l1584 0672                               l1576 065E  
                             l1568 0647                               l1672 04EA  
                             l1656 04B9                               l1648 0487  
                             l1664 04D0                               l1680 0FEA  
                             l1498 0735                               l1594 068B  
                             l1586 0678                               l1578 0663  
                             l1674 04EB                               l1658 04C2  
                             l1666 04E3                               l1690 0FFB  
                             l1682 0FED                               l1596 0691  
                             l1588 067D                               l1668 04E8  
                             l1692 0FFC                               l1684 0FF7  
                             l1598 0696                               l1694 0FFD  
                             l1686 0FF9                               l1688 0FFA  
                             ?_isr 0070                               u1000 07A0  
                             u1001 079F                               u1010 07BF  
                             u1011 07BE                               u1100 071A  
                             u1020 07C5                               u1101 0719  
                             u1021 07C4                               u1030 07CB  
                             u1031 07CA                               u1120 0730  
                             u1040 06BF                               u1200 078F  
                             u2000 036B                               u1121 072F  
                             u1105 0716                               u1041 06BE  
                             u1201 078E                               u2001 036A  
                             u1130 0735                               u1050 06D0  
                             u1210 05E3                               u2010 037F  
                             u1131 0734                               u1115 0724  
                             u1051 06CF                               u1211 05E2  
                             u2011 037E                               u1140 07F6  
                             u1060 06EF                               u1300 0670  
                             u1220 05ED                               u2020 03C4  
                             u1141 07F5                               u1061 06EE  
                             u1301 066F                               u1221 05EC  
                             u2021 03C3                               u1310 0678  
                             u1230 05F2                               u1150 074F  
                             u2030 03CE                               u1311 0677  
                             u1231 05F1                               u1151 074E  
                             u2031 03CD                               u1080 0701  
                             u1320 067D                               u1240 05FF  
                             u1400 0415                               u1160 0754  
                             u2040 03D8                               u1081 0700  
                             u1321 067C                               u1241 05FE  
                             u1401 0414                               u1161 0753  
                             u2041 03D7                               u1330 068A  
                             u1250 0610                               u1410 0424  
                             u1170 076B                               u2050 03E0  
                             u1075 06F3                               u1331 0689  
                             u1411 0423                               u1171 076A  
                             u2051 03DF                               u1340 0691  
                             u1260 0647                               u1500 04C2  
                             u1420 042A                               u1180 077F  
                             u2060 03ED                               u1341 0690  
                             u1261 0646                               u1501 04C1  
                             u1421 0429                               u1181 077E  
                             u2061 03EC                               u1350 0696  
                             u1270 0655                               u1510 04C9  
                             u1430 0430                               u1190 0788  
                             u1095 0702                               u1351 0695  
                             u1271 0654                               u1255 060C  
                             u1511 04C8                               u1431 042F  
                             u1191 0787                               u1360 06A1  
                             u1280 065E                               u1520 04CF  
                             u1440 0465                               u1361 06A0  
                             u1281 065D                               u1521 04CE  
                             u1441 0464                               u1370 06AD  
                             u1290 0663                               u1450 046C  
                             u1371 06AC                               u1291 0662  
                             u1451 046B                               u1460 0472  
                             u1380 0402                               u1461 0471  
                             u1381 0401                               u1470 0481  
                             u1390 040F                               u1471 0480  
                             u1391 040E                               u1480 0487  
                             u1481 0486                               u1490 048D  
                             u1491 048C                               u1970 034B  
                             u1971 034A                               _PEIE 005E  
                             u1980 0359                               u1981 0358  
                             _INTE 38B0                               u1990 035E  
                             u1991 035D                               _fade 0749  
                             _gate 003A                               _main 02E8  
                             fsr0h 0005                               fsr1h 0007  
                             indf0 0000                               fsr0l 0004  
                             indf1 0001                               fsr1l 0006  
                             btemp 007E                               start 010B  
              ButtonDebounceInit@i 0073                   playNote@duration 0073  
                            ??_isr 0070                              ?_fade 0070  
                  __end_of___aldiv 0749                              ?_main 005D  
                            _ADRES 009B                              _LATA1 00C1  
                            _LATA2 00C2                              _LATC0 00D0  
                            _LATC1 00D1                              _LATC2 00D2  
                            _LATC3 00D3                              _LATC4 00D4  
                            _LATC5 00D5                              _IOCIE 38B4  
                            i1l234 0071                              i1l243 006D  
                            i1l235 001A                              i1l261 0109  
                            i1l246 006F                              _TMR0H 059D  
                            _TMR1H 020D                              _TMR1L 020C  
                            _PORTA 000C                              _WPUA0 F9C8  
                            _WPUA3 F9CB                              _WPUA4 F9CC  
                            _sheRa 04ED                              _notes 07F7  
                   __pbitbssCOMMON 03E0                              status 0003  
                            wtemp0 007E                    __initialization 010D  
                     __end_of_fade 079A                       __end_of_main 03F3  
                  _chargeIndicator 05DD                             ??_fade 0071  
                           ??_main 0061                             _ANSELC 1F4E  
                           _IOCAF0 F9F8                             _IOCAF3 F9FB  
                           _IOCAF4 F9FC                             _IOCAN0 F9F0  
                           _IOCAN3 F9F3                             _IOCAP0 F9E8  
                           _IOCAN4 F9F4                             _IOCAP3 F9EB  
                           _IOCAP4 F9EC                             _RC2PPS 1F22  
                           i1l1900 0098                             i1l1910 00B6  
                           i1l1902 009E                             i1l1912 00BA  
                           i1l1920 00C6                             i1l1904 00A7  
                           i1l1922 00CA                             i1l1914 00BC  
                           i1l1930 00D8                             i1l1906 00AB  
                           i1l1850 0010                             i1l1940 00ED  
                           i1l1932 00DD                             i1l1924 00CE  
                           i1l1916 00C0                             i1l1908 00B0  
                           i1l1860 002D                             i1l1852 0016  
                           i1l1950 0103                             i1l1942 00F1  
                           i1l1934 00E3                             i1l1926 00D2  
                           i1l1918 00C4                             i1l1862 0033  
                           i1l1870 0042                             i1l1854 0020  
                           i1l1846 0006                             i1l1952 0107  
                           i1l1936 00E7                             i1l1944 00F7  
                           i1l1928 00D6                             i1l1880 005C  
                           i1l1872 0048                             i1l1864 0037  
                           i1l1856 0025                             i1l1848 000B  
                           i1l1946 00FB                             i1l1938 00EB  
                           i1l1890 0086                             i1l1882 0064  
                           i1l1874 004E                             i1l1866 0038  
                           i1l1858 002A                             i1l1948 00FF  
                           i1l1892 008B                             i1l1884 0075  
                           i1l1876 0054                             i1l1868 003E  
                           i1l1894 008D                             i1l1886 007C  
                           i1l1878 005A                             i1l1888 0080  
                           i1l1896 008F                             i1l1898 0093  
                           u170_20 004E                             u170_21 004D  
                           u171_20 0054                             u163_20 000B  
                           u171_21 0053                             u163_21 000A  
                           u180_20 0093                             u172_20 005A  
                           u164_20 0016                             u180_21 0092  
                           u172_21 0059                             u164_21 0015  
                           u181_20 0098                             u173_20 0062  
                           u165_20 0020                             u181_21 0097  
                           u173_21 005F                             u165_21 001F  
                           u190_20 00E7                             u182_20 009E  
                           u166_20 002A                             u190_21 00E6  
                           u182_21 009D                             u166_21 0029  
                           u174_24 0064                             u191_20 00EB  
                           u183_20 00B0                             u175_20 006A  
                           u167_20 0033                             u191_21 00EA  
                           u183_21 00AF                             u175_21 0067  
                           u167_21 0032                             u192_20 00FB  
                           u184_20 00B6                             u168_20 003E  
                           u192_21 00FA                             u184_21 00B5  
                           u168_21 003D                             u176_24 006C  
                           u193_20 00FF                             u185_20 00BA  
                           u177_20 0075                             u169_20 0048  
                           u193_21 00FE                             u185_21 00B9  
                           u177_21 0074                             u169_21 0047  
                           u194_20 0103                             u186_20 00CA  
                           u178_20 007C                             u194_21 0102  
                           u186_21 00C9                             u178_21 007B  
                           u187_20 00CE                             u179_20 0086  
                           u187_21 00CD                             u179_21 0085  
                           u188_20 00DD                             u188_21 00DC  
                           u189_20 00E3                             u189_21 00E2  
                           _NVMADR 081A                             _NVMDAT 081C  
                           _PWM3DC 0314                             _TMR0IE 38B5  
                           _TMR1IE 38BD                             _TRISA0 0090  
                           _TRISA1 0091                             _TRISA2 0092  
                           _TRISA3 0093                             _TRISA4 0094  
                           _TRISC0 00A0                             _TRISA5 0095  
                           _TRISC1 00A1                             _TRISC2 00A2  
                           _TRISC3 00A3                             _TRISC4 00A4  
                           _TRISC5 00A5                   __end_of_doTheArc 04ED  
                           _aPorts 0043                          ??___aldiv 0079  
                           _fadeUp 0040                             _noGate 0062  
                 __end_of_playNote 07CC            __end_of__initialization 0124  
          __end_of_chargeIndicator 06B9                     __pcstackCOMMON 0070  
                     __pidataBANK0 0FD0                      __end_of_sheRa 05DD  
                    __end_of_notes 081B              __end_of_blockingDelay 0FEA  
                       _abortAbort 0038                         __pbssBANK0 0020  
      __size_of_ButtonDebounceInit 002B                         __pmaintext 02E8  
                       _goToLPmode 0FEA                         __pintentry 0004  
                        ?_doTheArc 0070                            _PWM3CON 0316  
                          _PWM4CON 031A                       _clockDivider 0042  
                 ?_chargeIndicator 0070                          ?_playNote 0071  
                __end_of_gargoyles 02E8                            ___aldiv 06B9  
                          __ptext1 0FEA                            __ptext2 0749  
                          __ptext3 03F3                            __ptext4 079A  
                          __ptext5 05DD                            __ptext6 0FD9  
                          __ptext7 06B9                            __ptext8 07CC  
                        _T1CLKbits 0211                            _lidOpen 002A  
                        _T1CONbits 020E                          _T2CONbits 028E  
                     __size_of_isr 0107                         ??_doTheArc 0075  
                 ___aldiv@dividend 0075                          _T2HLTbits 028F  
             _chargeIndicator$1249 0059                       _genericDelay 0032  
                          clrloop0 0FD4               end_of_initialization 0124  
                    _calibrationMV 0020                         ??_playNote 0075  
                      ?_goToLPmode 0070                          _OSCENbits 0891  
                 ___aldiv@quotient 0051                         _showCharge 002E  
                        _PORTAbits 000C  ButtonDebounceInit@pulledUpButtons 0071  
                       _postscaler 0036                start_initialization 010D  
                      __end_of_isr 010B                __size_of_goToLPmode 0016  
                   _buttonDebounce 0041                 blockingDelay@mSecs 0071  
           ButtonDebounceInit@port 0074                        __pdataBANK0 0062  
                      __pbssCOMMON 007A                          ___latbits 0001  
                    __pcstackBANK0 004F                        _chargeCycle 003E  
                __size_of_doTheArc 00FA         __end_of_ButtonDebounceInit 07F7  
                        _battVolts 0024                          _debugging 0064  
           __size_of_blockingDelay 0011                  __size_of_playNote 0032  
                         ?___aldiv 0071                          _gargoyles 0128  
                     playNote@note 0071                           _T2CLKCON 0290  
                  ___aldiv@divisor 0071                    ___aldiv@counter 004F  
                        _playIndex 0034                          clear_ram0 0FD3  
                         _PIR0bits 070C                           _PIR1bits 070D  
                     ??_goToLPmode 0075           __size_of_chargeIndicator 00DC  
                        _poweredOn 0030                         _ADCON0bits 009D  
                       _ADCON1bits 009E                      _blockingDelay 0FD9  
               __end_of_goToLPmode 1000                       _lowPowerMode 002C  
                      _gotTheTouch 0028                   __size_of___aldiv 0090  
                         _adcVolts 0022                         _ANSELAbits 1F38  
                         _doTheArc 03F3                     ?_blockingDelay 0071  
                       _T0CON0bits 059E                         _T0CON1bits 059F  
                         _charging 0026                           _forceArc 003C  
                    __size_of_fade 0051                      __size_of_main 010B  
                         _pinState 03E0                           _playNote 079A  
                         _runIndex 003F                           int$flags 007E  
                         main@argc 005D                           main@argv 005F  
                ??_chargeIndicator 0055                        _NVMCON1bits 081E  
                       _FVRCONbits 090C                        _PWM3CONbits 0316  
                         intlevel1 0000                         _OSCFRQbits 0893  
               _ButtonDebounceInit 07CC                      __pstringtext1 0128  
                    __pstringtext2 04ED                      __pstringtext3 07F7  
                  ??_blockingDelay 0073                ?_ButtonDebounceInit 0071  
                     ___aldiv@sign 0050               ??_ButtonDebounceInit 0072  
