

Microchip MPLAB XC8 Assembler V2.32 build 20210201212658 
                                                                                               Thu Sep 23 15:25:22 2021

Microchip MPLAB XC8 C Compiler v2.32 (Free license) build 20210201212658 Og1 
     1                           	processor	16F15224
     2                           	pagewidth 120
     3                           	opt	flic
     4                           	psect	idataBANK0,global,class=CODE,delta=2,noexec
     5                           	psect	stringtext1,global,class=STRCODE,delta=2,noexec
     6                           	psect	stringtext2,global,class=STRCODE,delta=2,noexec
     7                           	psect	stringtext3,global,class=STRCODE,delta=2,noexec
     8                           	psect	cinit,global,class=CODE,merge=1,delta=2
     9                           	psect	bitbssCOMMON,global,bit,class=COMMON,space=1,delta=1,noexec
    10                           	psect	bssCOMMON,global,class=COMMON,space=1,delta=1,noexec
    11                           	psect	bssBANK0,global,class=BANK0,space=1,delta=1,noexec
    12                           	psect	dataBANK0,global,class=BANK0,space=1,delta=1,noexec
    13                           	psect	bssBANK1,global,class=BANK1,space=1,delta=1,noexec
    14                           	psect	clrtext,global,class=CODE,delta=2
    15                           	psect	cstackCOMMON,global,class=COMMON,space=1,delta=1,noexec
    16                           	psect	cstackBANK0,global,class=BANK0,space=1,delta=1,noexec
    17                           	psect	maintext,global,class=CODE,merge=1,split=1,delta=2
    18                           	psect	text1,local,class=CODE,merge=1,delta=2
    19                           	psect	text2,local,class=CODE,merge=1,delta=2
    20                           	psect	text3,local,class=CODE,merge=1,delta=2
    21                           	psect	text4,local,class=CODE,merge=1,delta=2
    22                           	psect	text5,local,class=CODE,merge=1,delta=2
    23                           	psect	text6,local,class=CODE,merge=1,delta=2,group=2
    24                           	psect	text7,local,class=CODE,merge=1,delta=2,group=2
    25                           	psect	text8,local,class=CODE,merge=1,delta=2,group=1
    26                           	psect	intentry,global,class=CODE,delta=2
    27                           	psect	text10,local,class=CODE,merge=1,delta=2,group=1
    28                           	psect	text11,local,class=CODE,merge=1,delta=2,group=1
    29                           	psect	config,global,abs,ovrld,class=CONFIG,space=4,delta=2,noexec
    30                           	dabs	1,0x7E,2
    31  0000                     
    32                           ; Version 2.35
    33                           ; Generated 01/06/2021 GMT
    34                           ; 
    35                           ; Copyright © 2021, Microchip Technology Inc. and its subsidiaries ("Microchip")
    36                           ; All rights reserved.
    37                           ; 
    38                           ; This software is developed by Microchip Technology Inc. and its subsidiaries ("Microch
      +                          ip").
    39                           ; 
    40                           ; Redistribution and use in source and binary forms, with or without modification, are
    41                           ; permitted provided that the following conditions are met:
    42                           ; 
    43                           ;     1. Redistributions of source code must retain the above copyright notice, this lis
      +                          t of
    44                           ;        conditions and the following disclaimer.
    45                           ; 
    46                           ;     2. Redistributions in binary form must reproduce the above copyright notice, this 
      +                          list
    47                           ;        of conditions and the following disclaimer in the documentation and/or other
    48                           ;        materials provided with the distribution. Publication is not required when
    49                           ;        this file is used in an embedded application.
    50                           ; 
    51                           ;     3. Microchip's name may not be used to endorse or promote products derived from th
      +                          is
    52                           ;        software without specific prior written permission.
    53                           ; 
    54                           ; THIS SOFTWARE IS PROVIDED BY MICROCHIP "AS IS" AND ANY EXPRESS OR IMPLIED WARRANTIES,
    55                           ; INCLUDING, BUT NOT LIMITED TO, THE IMPLIED WARRANTIES OF MERCHANTABILITY AND FITNESS F
      +                          OR
    56                           ; PURPOSE ARE DISCLAIMED.  IN NO EVENT SHALL MICROCHIP BE LIABLE FOR ANY DIRECT, INDIREC
      +                          T,
    57                           ; INCIDENTAL, SPECIAL, EXEMPLARY, OR CONSEQUENTIAL DAMAGES (INCLUDING BUT NOT LIMITED TO
    58                           ; PROCUREMENT OF SUBSTITUTE GOODS OR SERVICES; LOSS OF USE, DATA OR PROFITS; OR BUSINESS
    59                           ; INTERRUPTION) HOWSOEVER CAUSED AND ON ANY THEORY OF LIABILITY, WHETHER IN CONTRACT, ST
      +                          RICT
    60                           ; LIABILITY, OR TORT (INCLUDING NEGLIGENCE OR OTHERWISE) ARISING IN ANY WAY OUT OF THE U
      +                          SE OF
    61                           ; THIS SOFTWARE, EVEN IF ADVISED OF THE POSSIBILITY OF SUCH DAMAGE.
    62                           ; 
    63                           ; 
    64                           ; Code-generator required, PIC16F15224 Definitions
    65                           ; 
    66                           ; SFR Addresses
    67  0000                     	;# 
    68  0001                     	;# 
    69  0002                     	;# 
    70  0003                     	;# 
    71  0004                     	;# 
    72  0005                     	;# 
    73  0006                     	;# 
    74  0007                     	;# 
    75  0008                     	;# 
    76  0009                     	;# 
    77  000A                     	;# 
    78  000B                     	;# 
    79  000C                     	;# 
    80  000E                     	;# 
    81  0012                     	;# 
    82  0014                     	;# 
    83  0018                     	;# 
    84  001A                     	;# 
    85  009A                     	;# 
    86  009B                     	;# 
    87  009B                     	;# 
    88  009C                     	;# 
    89  009D                     	;# 
    90  009E                     	;# 
    91  009F                     	;# 
    92  010E                     	;# 
    93  010F                     	;# 
    94  0119                     	;# 
    95  011A                     	;# 
    96  011B                     	;# 
    97  011B                     	;# 
    98  011C                     	;# 
    99  011D                     	;# 
   100  011E                     	;# 
   101  011F                     	;# 
   102  018C                     	;# 
   103  018D                     	;# 
   104  018E                     	;# 
   105  018F                     	;# 
   106  0190                     	;# 
   107  0191                     	;# 
   108  0192                     	;# 
   109  020C                     	;# 
   110  020D                     	;# 
   111  020E                     	;# 
   112  020E                     	;# 
   113  020F                     	;# 
   114  020F                     	;# 
   115  0210                     	;# 
   116  0210                     	;# 
   117  0211                     	;# 
   118  0211                     	;# 
   119  028C                     	;# 
   120  028C                     	;# 
   121  028D                     	;# 
   122  028D                     	;# 
   123  028E                     	;# 
   124  028F                     	;# 
   125  0290                     	;# 
   126  0291                     	;# 
   127  030C                     	;# 
   128  030C                     	;# 
   129  030D                     	;# 
   130  030E                     	;# 
   131  030F                     	;# 
   132  0310                     	;# 
   133  0310                     	;# 
   134  0311                     	;# 
   135  0312                     	;# 
   136  0313                     	;# 
   137  0314                     	;# 
   138  0314                     	;# 
   139  0315                     	;# 
   140  0316                     	;# 
   141  0318                     	;# 
   142  0318                     	;# 
   143  0319                     	;# 
   144  031A                     	;# 
   145  059C                     	;# 
   146  059C                     	;# 
   147  059D                     	;# 
   148  059D                     	;# 
   149  059E                     	;# 
   150  059F                     	;# 
   151  070C                     	;# 
   152  070D                     	;# 
   153  070E                     	;# 
   154  0716                     	;# 
   155  0717                     	;# 
   156  0718                     	;# 
   157  080C                     	;# 
   158  0811                     	;# 
   159  0813                     	;# 
   160  0814                     	;# 
   161  081A                     	;# 
   162  081A                     	;# 
   163  081B                     	;# 
   164  081C                     	;# 
   165  081C                     	;# 
   166  081D                     	;# 
   167  081E                     	;# 
   168  081F                     	;# 
   169  088E                     	;# 
   170  0890                     	;# 
   171  0891                     	;# 
   172  0892                     	;# 
   173  0893                     	;# 
   174  090C                     	;# 
   175  1E8F                     	;# 
   176  1E90                     	;# 
   177  1E91                     	;# 
   178  1E92                     	;# 
   179  1E93                     	;# 
   180  1E9C                     	;# 
   181  1EA1                     	;# 
   182  1EA2                     	;# 
   183  1EC3                     	;# 
   184  1EC5                     	;# 
   185  1EC6                     	;# 
   186  1EC7                     	;# 
   187  1ECB                     	;# 
   188  1ECB                     	;# 
   189  1ECB                     	;# 
   190  1ECC                     	;# 
   191  1ECC                     	;# 
   192  1ECC                     	;# 
   193  1F10                     	;# 
   194  1F11                     	;# 
   195  1F12                     	;# 
   196  1F14                     	;# 
   197  1F15                     	;# 
   198  1F20                     	;# 
   199  1F21                     	;# 
   200  1F22                     	;# 
   201  1F23                     	;# 
   202  1F24                     	;# 
   203  1F25                     	;# 
   204  1F38                     	;# 
   205  1F39                     	;# 
   206  1F3A                     	;# 
   207  1F3B                     	;# 
   208  1F3C                     	;# 
   209  1F3D                     	;# 
   210  1F3E                     	;# 
   211  1F3F                     	;# 
   212  1F4E                     	;# 
   213  1F4F                     	;# 
   214  1F50                     	;# 
   215  1F51                     	;# 
   216  1F52                     	;# 
   217  1F53                     	;# 
   218  1F54                     	;# 
   219  1F55                     	;# 
   220  1FE4                     	;# 
   221  1FE5                     	;# 
   222  1FE6                     	;# 
   223  1FE7                     	;# 
   224  1FE8                     	;# 
   225  1FE8                     	;# 
   226  1FE9                     	;# 
   227  1FEA                     	;# 
   228  1FEB                     	;# 
   229  1FED                     	;# 
   230  1FEE                     	;# 
   231  1FEF                     	;# 
   232                           
   233                           	psect	idataBANK0
   234  07FC                     __pidataBANK0:
   235                           
   236                           ;initializer for _noGate
   237  07FC  3401               	retlw	1
   238  07FD  3400               	retlw	0
   239                           
   240                           ;initializer for _debugging
   241  07FE  3401               	retlw	1
   242                           
   243                           	psect	stringtext1
   244  0112                     __pstringtext1:
   245  0112                     _gargoyles:
   246  0112  341E               	retlw	30
   247  0113  3400               	retlw	0
   248  0114  343E               	retlw	62
   249  0115  3406               	retlw	6
   250  0116  341C               	retlw	28
   251  0117  3400               	retlw	0
   252  0118  3466               	retlw	102
   253  0119  3401               	retlw	1
   254  011A  3400               	retlw	0
   255  011B  3400               	retlw	0
   256  011C  3428               	retlw	40
   257  011D  3400               	retlw	0
   258  011E  341A               	retlw	26
   259  011F  3400               	retlw	0
   260  0120  3466               	retlw	102
   261  0121  3401               	retlw	1
   262  0122  3400               	retlw	0
   263  0123  3400               	retlw	0
   264  0124  3428               	retlw	40
   265  0125  3400               	retlw	0
   266  0126  3419               	retlw	25
   267  0127  3400               	retlw	0
   268  0128  3466               	retlw	102
   269  0129  3401               	retlw	1
   270  012A  3400               	retlw	0
   271  012B  3400               	retlw	0
   272  012C  3428               	retlw	40
   273  012D  3400               	retlw	0
   274  012E  3417               	retlw	23
   275  012F  3400               	retlw	0
   276  0130  3466               	retlw	102
   277  0131  3401               	retlw	1
   278  0132  3400               	retlw	0
   279  0133  3400               	retlw	0
   280  0134  3428               	retlw	40
   281  0135  3400               	retlw	0
   282  0136  341F               	retlw	31
   283  0137  3400               	retlw	0
   284  0138  34AE               	retlw	174
   285  0139  3404               	retlw	4
   286  013A  341E               	retlw	30
   287  013B  3400               	retlw	0
   288  013C  34C6               	retlw	198
   289  013D  3400               	retlw	0
   290  013E  341C               	retlw	28
   291  013F  3400               	retlw	0
   292  0140  34C6               	retlw	198
   293  0141  3400               	retlw	0
   294  0142  3419               	retlw	25
   295  0143  3400               	retlw	0
   296  0144  3469               	retlw	105
   297  0145  3405               	retlw	5
   298  0146  3400               	retlw	0
   299  0147  3400               	retlw	0
   300  0148  3450               	retlw	80
   301  0149  3400               	retlw	0
   302  014A  341E               	retlw	30
   303  014B  3400               	retlw	0
   304  014C  343E               	retlw	62
   305  014D  3406               	retlw	6
   306  014E  341A               	retlw	26
   307  014F  3400               	retlw	0
   308  0150  347A               	retlw	122
   309  0151  3401               	retlw	1
   310  0152  3400               	retlw	0
   311  0153  3400               	retlw	0
   312  0154  3414               	retlw	20
   313  0155  3400               	retlw	0
   314  0156  341C               	retlw	28
   315  0157  3400               	retlw	0
   316  0158  347A               	retlw	122
   317  0159  3401               	retlw	1
   318  015A  3400               	retlw	0
   319  015B  3400               	retlw	0
   320  015C  3414               	retlw	20
   321  015D  3400               	retlw	0
   322  015E  341E               	retlw	30
   323  015F  3400               	retlw	0
   324  0160  347A               	retlw	122
   325  0161  3401               	retlw	1
   326  0162  3400               	retlw	0
   327  0163  3400               	retlw	0
   328  0164  3414               	retlw	20
   329  0165  3400               	retlw	0
   330  0166  341C               	retlw	28
   331  0167  3400               	retlw	0
   332  0168  347A               	retlw	122
   333  0169  3401               	retlw	1
   334  016A  3400               	retlw	0
   335  016B  3400               	retlw	0
   336  016C  3414               	retlw	20
   337  016D  3400               	retlw	0
   338  016E  341C               	retlw	28
   339  016F  3400               	retlw	0
   340  0170  34F6               	retlw	246
   341  0171  3402               	retlw	2
   342  0172  3400               	retlw	0
   343  0173  3400               	retlw	0
   344  0174  3428               	retlw	40
   345  0175  3400               	retlw	0
   346  0176  341F               	retlw	31
   347  0177  3400               	retlw	0
   348  0178  34F6               	retlw	246
   349  0179  3402               	retlw	2
   350  017A  3400               	retlw	0
   351  017B  3400               	retlw	0
   352  017C  3428               	retlw	40
   353  017D  3400               	retlw	0
   354  017E  3422               	retlw	34
   355  017F  3400               	retlw	0
   356  0180  3469               	retlw	105
   357  0181  3405               	retlw	5
   358  0182  3400               	retlw	0
   359  0183  3400               	retlw	0
   360  0184  3450               	retlw	80
   361  0185  3400               	retlw	0
   362  0186  341A               	retlw	26
   363  0187  3400               	retlw	0
   364  0188  340A               	retlw	10
   365  0189  3403               	retlw	3
   366  018A  3400               	retlw	0
   367  018B  3400               	retlw	0
   368  018C  3414               	retlw	20
   369  018D  3400               	retlw	0
   370  018E  3419               	retlw	25
   371  018F  3400               	retlw	0
   372  0190  347A               	retlw	122
   373  0191  3401               	retlw	1
   374  0192  3400               	retlw	0
   375  0193  3400               	retlw	0
   376  0194  3414               	retlw	20
   377  0195  3400               	retlw	0
   378  0196  3417               	retlw	23
   379  0197  3400               	retlw	0
   380  0198  3466               	retlw	102
   381  0199  3401               	retlw	1
   382  019A  3400               	retlw	0
   383  019B  3400               	retlw	0
   384  019C  3428               	retlw	40
   385  019D  3400               	retlw	0
   386  019E  3419               	retlw	25
   387  019F  3400               	retlw	0
   388  01A0  341E               	retlw	30
   389  01A1  3403               	retlw	3
   390  01A2  341C               	retlw	28
   391  01A3  3400               	retlw	0
   392  01A4  34F6               	retlw	246
   393  01A5  3402               	retlw	2
   394  01A6  3400               	retlw	0
   395  01A7  3400               	retlw	0
   396  01A8  3428               	retlw	40
   397  01A9  3400               	retlw	0
   398  01AA  341C               	retlw	28
   399  01AB  3400               	retlw	0
   400  01AC  34F6               	retlw	246
   401  01AD  3402               	retlw	2
   402  01AE  3400               	retlw	0
   403  01AF  3400               	retlw	0
   404  01B0  3428               	retlw	40
   405  01B1  3400               	retlw	0
   406  01B2  341A               	retlw	26
   407  01B3  3400               	retlw	0
   408  01B4  3466               	retlw	102
   409  01B5  3401               	retlw	1
   410  01B6  3400               	retlw	0
   411  01B7  3400               	retlw	0
   412  01B8  3428               	retlw	40
   413  01B9  3400               	retlw	0
   414  01BA  3419               	retlw	25
   415  01BB  3400               	retlw	0
   416  01BC  3466               	retlw	102
   417  01BD  3401               	retlw	1
   418  01BE  3400               	retlw	0
   419  01BF  3400               	retlw	0
   420  01C0  3428               	retlw	40
   421  01C1  3400               	retlw	0
   422  01C2  341A               	retlw	26
   423  01C3  3400               	retlw	0
   424  01C4  341E               	retlw	30
   425  01C5  3403               	retlw	3
   426  01C6  341E               	retlw	30
   427  01C7  3400               	retlw	0
   428  01C8  34F6               	retlw	246
   429  01C9  3402               	retlw	2
   430  01CA  3400               	retlw	0
   431  01CB  3400               	retlw	0
   432  01CC  3428               	retlw	40
   433  01CD  3400               	retlw	0
   434  01CE  341E               	retlw	30
   435  01CF  3400               	retlw	0
   436  01D0  34F6               	retlw	246
   437  01D1  3402               	retlw	2
   438  01D2  3400               	retlw	0
   439  01D3  3400               	retlw	0
   440  01D4  3428               	retlw	40
   441  01D5  3400               	retlw	0
   442  01D6  341D               	retlw	29
   443  01D7  3400               	retlw	0
   444  01D8  3466               	retlw	102
   445  01D9  3401               	retlw	1
   446  01DA  3400               	retlw	0
   447  01DB  3400               	retlw	0
   448  01DC  3428               	retlw	40
   449  01DD  3400               	retlw	0
   450  01DE  341B               	retlw	27
   451  01DF  3400               	retlw	0
   452  01E0  3466               	retlw	102
   453  01E1  3401               	retlw	1
   454  01E2  3400               	retlw	0
   455  01E3  3400               	retlw	0
   456  01E4  3428               	retlw	40
   457  01E5  3400               	retlw	0
   458  01E6  341D               	retlw	29
   459  01E7  3400               	retlw	0
   460  01E8  341E               	retlw	30
   461  01E9  3403               	retlw	3
   462  01EA  3420               	retlw	32
   463  01EB  3400               	retlw	0
   464  01EC  34F6               	retlw	246
   465  01ED  3402               	retlw	2
   466  01EE  3400               	retlw	0
   467  01EF  3400               	retlw	0
   468  01F0  3428               	retlw	40
   469  01F1  3400               	retlw	0
   470  01F2  3420               	retlw	32
   471  01F3  3400               	retlw	0
   472  01F4  34F6               	retlw	246
   473  01F5  3402               	retlw	2
   474  01F6  3400               	retlw	0
   475  01F7  3400               	retlw	0
   476  01F8  3428               	retlw	40
   477  01F9  3400               	retlw	0
   478  01FA  341E               	retlw	30
   479  01FB  3400               	retlw	0
   480  01FC  3466               	retlw	102
   481  01FD  3401               	retlw	1
   482  01FE  3400               	retlw	0
   483  01FF  3400               	retlw	0
   484  0200  3428               	retlw	40
   485  0201  3400               	retlw	0
   486  0202  341D               	retlw	29
   487  0203  3400               	retlw	0
   488  0204  3466               	retlw	102
   489  0205  3401               	retlw	1
   490  0206  3400               	retlw	0
   491  0207  3400               	retlw	0
   492  0208  3428               	retlw	40
   493  0209  3400               	retlw	0
   494  020A  3422               	retlw	34
   495  020B  3400               	retlw	0
   496  020C  34EE               	retlw	238
   497  020D  3405               	retlw	5
   498  020E  3400               	retlw	0
   499  020F  3400               	retlw	0
   500  0210  3450               	retlw	80
   501  0211  3400               	retlw	0
   502  0212  341E               	retlw	30
   503  0213  3400               	retlw	0
   504  0214  343E               	retlw	62
   505  0215  3406               	retlw	6
   506  0216  341C               	retlw	28
   507  0217  3400               	retlw	0
   508  0218  3466               	retlw	102
   509  0219  3401               	retlw	1
   510  021A  3400               	retlw	0
   511  021B  3400               	retlw	0
   512  021C  3428               	retlw	40
   513  021D  3400               	retlw	0
   514  021E  341A               	retlw	26
   515  021F  3400               	retlw	0
   516  0220  3466               	retlw	102
   517  0221  3401               	retlw	1
   518  0222  3400               	retlw	0
   519  0223  3400               	retlw	0
   520  0224  3428               	retlw	40
   521  0225  3400               	retlw	0
   522  0226  3419               	retlw	25
   523  0227  3400               	retlw	0
   524  0228  3466               	retlw	102
   525  0229  3401               	retlw	1
   526  022A  3400               	retlw	0
   527  022B  3400               	retlw	0
   528  022C  3428               	retlw	40
   529  022D  3400               	retlw	0
   530  022E  3417               	retlw	23
   531  022F  3400               	retlw	0
   532  0230  3466               	retlw	102
   533  0231  3401               	retlw	1
   534  0232  3400               	retlw	0
   535  0233  3400               	retlw	0
   536  0234  3428               	retlw	40
   537  0235  3400               	retlw	0
   538  0236  341F               	retlw	31
   539  0237  3400               	retlw	0
   540  0238  34AE               	retlw	174
   541  0239  3404               	retlw	4
   542  023A  341E               	retlw	30
   543  023B  3400               	retlw	0
   544  023C  34C6               	retlw	198
   545  023D  3400               	retlw	0
   546  023E  341C               	retlw	28
   547  023F  3400               	retlw	0
   548  0240  34C6               	retlw	198
   549  0241  3400               	retlw	0
   550  0242  3419               	retlw	25
   551  0243  3400               	retlw	0
   552  0244  3469               	retlw	105
   553  0245  3405               	retlw	5
   554  0246  3400               	retlw	0
   555  0247  3400               	retlw	0
   556  0248  3450               	retlw	80
   557  0249  3400               	retlw	0
   558  024A  341E               	retlw	30
   559  024B  3400               	retlw	0
   560  024C  343E               	retlw	62
   561  024D  3406               	retlw	6
   562  024E  341A               	retlw	26
   563  024F  3400               	retlw	0
   564  0250  347A               	retlw	122
   565  0251  3401               	retlw	1
   566  0252  3400               	retlw	0
   567  0253  3400               	retlw	0
   568  0254  3414               	retlw	20
   569  0255  3400               	retlw	0
   570  0256  341C               	retlw	28
   571  0257  3400               	retlw	0
   572  0258  347A               	retlw	122
   573  0259  3401               	retlw	1
   574  025A  3400               	retlw	0
   575  025B  3400               	retlw	0
   576  025C  3414               	retlw	20
   577  025D  3400               	retlw	0
   578  025E  341E               	retlw	30
   579  025F  3400               	retlw	0
   580  0260  347A               	retlw	122
   581  0261  3401               	retlw	1
   582  0262  3400               	retlw	0
   583  0263  3400               	retlw	0
   584  0264  3414               	retlw	20
   585  0265  3400               	retlw	0
   586  0266  341C               	retlw	28
   587  0267  3400               	retlw	0
   588  0268  347A               	retlw	122
   589  0269  3401               	retlw	1
   590  026A  3400               	retlw	0
   591  026B  3400               	retlw	0
   592  026C  3414               	retlw	20
   593  026D  3400               	retlw	0
   594  026E  341C               	retlw	28
   595  026F  3400               	retlw	0
   596  0270  34F6               	retlw	246
   597  0271  3402               	retlw	2
   598  0272  3400               	retlw	0
   599  0273  3400               	retlw	0
   600  0274  3428               	retlw	40
   601  0275  3400               	retlw	0
   602  0276  341F               	retlw	31
   603  0277  3400               	retlw	0
   604  0278  34F6               	retlw	246
   605  0279  3402               	retlw	2
   606  027A  3400               	retlw	0
   607  027B  3400               	retlw	0
   608  027C  3428               	retlw	40
   609  027D  3400               	retlw	0
   610  027E  3422               	retlw	34
   611  027F  3400               	retlw	0
   612  0280  34B9               	retlw	185
   613  0281  3405               	retlw	5
   614  0282  3400               	retlw	0
   615  0283  3400               	retlw	0
   616  0284  3428               	retlw	40
   617  0285  3400               	retlw	0
   618  0286  3423               	retlw	35
   619  0287  3400               	retlw	0
   620  0288  340A               	retlw	10
   621  0289  3403               	retlw	3
   622  028A  3400               	retlw	0
   623  028B  3400               	retlw	0
   624  028C  3414               	retlw	20
   625  028D  3400               	retlw	0
   626  028E  3423               	retlw	35
   627  028F  3400               	retlw	0
   628  0290  346F               	retlw	111
   629  0291  3400               	retlw	0
   630  0292  3400               	retlw	0
   631  0293  3400               	retlw	0
   632  0294  3414               	retlw	20
   633  0295  3400               	retlw	0
   634  0296  3423               	retlw	35
   635  0297  3400               	retlw	0
   636  0298  346F               	retlw	111
   637  0299  3400               	retlw	0
   638  029A  3400               	retlw	0
   639  029B  3400               	retlw	0
   640  029C  3414               	retlw	20
   641  029D  3400               	retlw	0
   642  029E  3423               	retlw	35
   643  029F  3400               	retlw	0
   644  02A0  346F               	retlw	111
   645  02A1  3400               	retlw	0
   646  02A2  3400               	retlw	0
   647  02A3  3400               	retlw	0
   648  02A4  3414               	retlw	20
   649  02A5  3400               	retlw	0
   650  02A6  3423               	retlw	35
   651  02A7  3400               	retlw	0
   652  02A8  340A               	retlw	10
   653  02A9  3403               	retlw	3
   654  02AA  3400               	retlw	0
   655  02AB  3400               	retlw	0
   656  02AC  3414               	retlw	20
   657  02AD  3400               	retlw	0
   658  02AE  3423               	retlw	35
   659  02AF  3400               	retlw	0
   660  02B0  346F               	retlw	111
   661  02B1  3400               	retlw	0
   662  02B2  3400               	retlw	0
   663  02B3  3400               	retlw	0
   664  02B4  3414               	retlw	20
   665  02B5  3400               	retlw	0
   666  02B6  3423               	retlw	35
   667  02B7  3400               	retlw	0
   668  02B8  346F               	retlw	111
   669  02B9  3400               	retlw	0
   670  02BA  3400               	retlw	0
   671  02BB  3400               	retlw	0
   672  02BC  3414               	retlw	20
   673  02BD  3400               	retlw	0
   674  02BE  3423               	retlw	35
   675  02BF  3400               	retlw	0
   676  02C0  346F               	retlw	111
   677  02C1  3400               	retlw	0
   678  02C2  3400               	retlw	0
   679  02C3  3400               	retlw	0
   680  02C4  3414               	retlw	20
   681  02C5  3400               	retlw	0
   682  02C6  3423               	retlw	35
   683  02C7  3400               	retlw	0
   684  02C8  346F               	retlw	111
   685  02C9  3400               	retlw	0
   686  02CA  3400               	retlw	0
   687  02CB  3400               	retlw	0
   688  02CC  3414               	retlw	20
   689  02CD  3400               	retlw	0
   690  02CE  3423               	retlw	35
   691  02CF  3400               	retlw	0
   692  02D0  341E               	retlw	30
   693  02D1  3403               	retlw	3
   694  02D2                     __end_of_gargoyles:
   695                           
   696                           	psect	stringtext2
   697  02D2                     __pstringtext2:
   698  02D2                     _sheRa:
   699  02D2  340B               	retlw	11
   700  02D3  3400               	retlw	0
   701  02D4  34D8               	retlw	216
   702  02D5  3400               	retlw	0
   703  02D6  340D               	retlw	13
   704  02D7  3400               	retlw	0
   705  02D8  34D8               	retlw	216
   706  02D9  3400               	retlw	0
   707  02DA  340E               	retlw	14
   708  02DB  3400               	retlw	0
   709  02DC  349C               	retlw	156
   710  02DD  3401               	retlw	1
   711  02DE  3400               	retlw	0
   712  02DF  3400               	retlw	0
   713  02E0  3415               	retlw	21
   714  02E1  3400               	retlw	0
   715  02E2  3412               	retlw	18
   716  02E3  3400               	retlw	0
   717  02E4  34A7               	retlw	167
   718  02E5  3401               	retlw	1
   719  02E6  3400               	retlw	0
   720  02E7  3400               	retlw	0
   721  02E8  3415               	retlw	21
   722  02E9  3400               	retlw	0
   723  02EA  3413               	retlw	19
   724  02EB  3400               	retlw	0
   725  02EC  348B               	retlw	139
   726  02ED  3402               	retlw	2
   727  02EE  3412               	retlw	18
   728  02EF  3400               	retlw	0
   729  02F0  346B               	retlw	107
   730  02F1  3400               	retlw	0
   731  02F2  3410               	retlw	16
   732  02F3  3400               	retlw	0
   733  02F4  346B               	retlw	107
   734  02F5  3400               	retlw	0
   735  02F6  3412               	retlw	18
   736  02F7  3400               	retlw	0
   737  02F8  3464               	retlw	100
   738  02F9  3403               	retlw	3
   739  02FA  3400               	retlw	0
   740  02FB  3400               	retlw	0
   741  02FC  34B1               	retlw	177
   742  02FD  3401               	retlw	1
   743  02FE  340B               	retlw	11
   744  02FF  3400               	retlw	0
   745  0300  34D8               	retlw	216
   746  0301  3400               	retlw	0
   747  0302  340D               	retlw	13
   748  0303  3400               	retlw	0
   749  0304  34D8               	retlw	216
   750  0305  3400               	retlw	0
   751  0306  340E               	retlw	14
   752  0307  3400               	retlw	0
   753  0308  34B1               	retlw	177
   754  0309  3401               	retlw	1
   755  030A  3412               	retlw	18
   756  030B  3400               	retlw	0
   757  030C  34B1               	retlw	177
   758  030D  3401               	retlw	1
   759  030E  3417               	retlw	23
   760  030F  3400               	retlw	0
   761  0310  349C               	retlw	156
   762  0311  3401               	retlw	1
   763  0312  3400               	retlw	0
   764  0313  3400               	retlw	0
   765  0314  3415               	retlw	21
   766  0315  3400               	retlw	0
   767  0316  3415               	retlw	21
   768  0317  3400               	retlw	0
   769  0318  349C               	retlw	156
   770  0319  3401               	retlw	1
   771  031A  3400               	retlw	0
   772  031B  3400               	retlw	0
   773  031C  3415               	retlw	21
   774  031D  3400               	retlw	0
   775  031E  3412               	retlw	18
   776  031F  3400               	retlw	0
   777  0320  3464               	retlw	100
   778  0321  3403               	retlw	3
   779  0322  3400               	retlw	0
   780  0323  3400               	retlw	0
   781  0324  34B1               	retlw	177
   782  0325  3401               	retlw	1
   783  0326  340B               	retlw	11
   784  0327  3400               	retlw	0
   785  0328  34D8               	retlw	216
   786  0329  3400               	retlw	0
   787  032A  340D               	retlw	13
   788  032B  3400               	retlw	0
   789  032C  34D8               	retlw	216
   790  032D  3400               	retlw	0
   791  032E  340E               	retlw	14
   792  032F  3400               	retlw	0
   793  0330  34B1               	retlw	177
   794  0331  3401               	retlw	1
   795  0332  3412               	retlw	18
   796  0333  3400               	retlw	0
   797  0334  34B1               	retlw	177
   798  0335  3401               	retlw	1
   799  0336  3413               	retlw	19
   800  0337  3400               	retlw	0
   801  0338  348B               	retlw	139
   802  0339  3402               	retlw	2
   803  033A  3412               	retlw	18
   804  033B  3400               	retlw	0
   805  033C  346B               	retlw	107
   806  033D  3400               	retlw	0
   807  033E  3410               	retlw	16
   808  033F  3400               	retlw	0
   809  0340  346B               	retlw	107
   810  0341  3400               	retlw	0
   811  0342  3412               	retlw	18
   812  0343  3400               	retlw	0
   813  0344  3464               	retlw	100
   814  0345  3403               	retlw	3
   815  0346  3413               	retlw	19
   816  0347  3400               	retlw	0
   817  0348  342F               	retlw	47
   818  0349  3401               	retlw	1
   819  034A  3400               	retlw	0
   820  034B  3400               	retlw	0
   821  034C  3415               	retlw	21
   822  034D  3400               	retlw	0
   823  034E  3412               	retlw	18
   824  034F  3400               	retlw	0
   825  0350  342F               	retlw	47
   826  0351  3401               	retlw	1
   827  0352  3400               	retlw	0
   828  0353  3400               	retlw	0
   829  0354  3415               	retlw	21
   830  0355  3400               	retlw	0
   831  0356  3413               	retlw	19
   832  0357  3400               	retlw	0
   833  0358  34C2               	retlw	194
   834  0359  3400               	retlw	0
   835  035A  3400               	retlw	0
   836  035B  3400               	retlw	0
   837  035C  3415               	retlw	21
   838  035D  3400               	retlw	0
   839  035E  3415               	retlw	21
   840  035F  3400               	retlw	0
   841  0360  348B               	retlw	139
   842  0361  3402               	retlw	2
   843  0362  3412               	retlw	18
   844  0363  3400               	retlw	0
   845  0364  3462               	retlw	98
   846  0365  3400               	retlw	0
   847  0366  3410               	retlw	16
   848  0367  3400               	retlw	0
   849  0368  346B               	retlw	107
   850  0369  3400               	retlw	0
   851  036A  3412               	retlw	18
   852  036B  3400               	retlw	0
   853  036C  34CA               	retlw	202
   854  036D  3406               	retlw	6
   855  036E  3400               	retlw	0
   856  036F  3400               	retlw	0
   857  0370  34B1               	retlw	177
   858  0371  3401               	retlw	1
   859  0372  3414               	retlw	20
   860  0373  3400               	retlw	0
   861  0374  34D8               	retlw	216
   862  0375  3400               	retlw	0
   863  0376  3416               	retlw	22
   864  0377  3400               	retlw	0
   865  0378  34D8               	retlw	216
   866  0379  3400               	retlw	0
   867  037A  3417               	retlw	23
   868  037B  3400               	retlw	0
   869  037C  34B1               	retlw	177
   870  037D  3401               	retlw	1
   871  037E  341B               	retlw	27
   872  037F  3400               	retlw	0
   873  0380  34B1               	retlw	177
   874  0381  3401               	retlw	1
   875  0382  341C               	retlw	28
   876  0383  3400               	retlw	0
   877  0384  348B               	retlw	139
   878  0385  3402               	retlw	2
   879  0386  341B               	retlw	27
   880  0387  3400               	retlw	0
   881  0388  346B               	retlw	107
   882  0389  3400               	retlw	0
   883  038A  3419               	retlw	25
   884  038B  3400               	retlw	0
   885  038C  346B               	retlw	107
   886  038D  3400               	retlw	0
   887  038E  341B               	retlw	27
   888  038F  3400               	retlw	0
   889  0390  344E               	retlw	78
   890  0391  3403               	retlw	3
   891  0392  3400               	retlw	0
   892  0393  3400               	retlw	0
   893  0394  3415               	retlw	21
   894  0395  3400               	retlw	0
   895  0396  341C               	retlw	28
   896  0397  3400               	retlw	0
   897  0398  342F               	retlw	47
   898  0399  3401               	retlw	1
   899  039A  3400               	retlw	0
   900  039B  3400               	retlw	0
   901  039C  3415               	retlw	21
   902  039D  3400               	retlw	0
   903  039E  341B               	retlw	27
   904  039F  3400               	retlw	0
   905  03A0  342F               	retlw	47
   906  03A1  3401               	retlw	1
   907  03A2  3400               	retlw	0
   908  03A3  3400               	retlw	0
   909  03A4  3415               	retlw	21
   910  03A5  3400               	retlw	0
   911  03A6  341C               	retlw	28
   912  03A7  3400               	retlw	0
   913  03A8  34C2               	retlw	194
   914  03A9  3400               	retlw	0
   915  03AA  3400               	retlw	0
   916  03AB  3400               	retlw	0
   917  03AC  3415               	retlw	21
   918  03AD  3400               	retlw	0
   919  03AE  341E               	retlw	30
   920  03AF  3400               	retlw	0
   921  03B0  3475               	retlw	117
   922  03B1  3402               	retlw	2
   923  03B2  3400               	retlw	0
   924  03B3  3400               	retlw	0
   925  03B4  3415               	retlw	21
   926  03B5  3400               	retlw	0
   927  03B6  3420               	retlw	32
   928  03B7  3400               	retlw	0
   929  03B8  346B               	retlw	107
   930  03B9  3400               	retlw	0
   931  03BA  3422               	retlw	34
   932  03BB  3400               	retlw	0
   933  03BC  346B               	retlw	107
   934  03BD  3400               	retlw	0
   935  03BE  3423               	retlw	35
   936  03BF  3400               	retlw	0
   937  03C0  34CA               	retlw	202
   938  03C1  3406               	retlw	6
   939  03C2                     __end_of_sheRa:
   940                           
   941                           	psect	stringtext3
   942  0794                     __pstringtext3:
   943  0794                     _notes:
   944  0794  34ED               	retlw	237
   945  0795  34E0               	retlw	224
   946  0796  34D3               	retlw	211
   947  0797  34C7               	retlw	199
   948  0798  34BD               	retlw	189
   949  0799  34B2               	retlw	178
   950  079A  34A8               	retlw	168
   951  079B  349E               	retlw	158
   952  079C  3496               	retlw	150
   953  079D  348D               	retlw	141
   954  079E  3485               	retlw	133
   955  079F  347D               	retlw	125
   956  07A0  3476               	retlw	118
   957  07A1  3470               	retlw	112
   958  07A2  346A               	retlw	106
   959  07A3  3463               	retlw	99
   960  07A4  345E               	retlw	94
   961  07A5  3459               	retlw	89
   962  07A6  3454               	retlw	84
   963  07A7  344F               	retlw	79
   964  07A8  344B               	retlw	75
   965  07A9  3446               	retlw	70
   966  07AA  3442               	retlw	66
   967  07AB  343F               	retlw	63
   968  07AC  343B               	retlw	59
   969  07AD  3438               	retlw	56
   970  07AE  3434               	retlw	52
   971  07AF  3432               	retlw	50
   972  07B0  342F               	retlw	47
   973  07B1  342C               	retlw	44
   974  07B2  342A               	retlw	42
   975  07B3  3427               	retlw	39
   976  07B4  3425               	retlw	37
   977  07B5  3423               	retlw	35
   978  07B6  3421               	retlw	33
   979  07B7  341F               	retlw	31
   980  07B8                     __end_of_notes:
   981  000C                     _PORTA	set	12
   982  000C                     _PORTAbits	set	12
   983  005F                     _GIE	set	95
   984  005E                     _PEIE	set	94
   985  00D5                     _LATC5	set	213
   986  00D4                     _LATC4	set	212
   987  00D3                     _LATC3	set	211
   988  00D2                     _LATC2	set	210
   989  00D1                     _LATC1	set	209
   990  00D0                     _LATC0	set	208
   991  00C2                     _LATA2	set	194
   992  00C1                     _LATA1	set	193
   993  00A5                     _TRISC5	set	165
   994  00A4                     _TRISC4	set	164
   995  00A3                     _TRISC3	set	163
   996  00A2                     _TRISC2	set	162
   997  00A1                     _TRISC1	set	161
   998  00A0                     _TRISC0	set	160
   999  0095                     _TRISA5	set	149
  1000  0094                     _TRISA4	set	148
  1001  0093                     _TRISA3	set	147
  1002  0092                     _TRISA2	set	146
  1003  0091                     _TRISA1	set	145
  1004  0090                     _TRISA0	set	144
  1005  009B                     _ADRES	set	155
  1006  009F                     _ADACT	set	159
  1007  009D                     _ADCON0bits	set	157
  1008  009E                     _ADCON1bits	set	158
  1009  028F                     _T2HLTbits	set	655
  1010  028E                     _T2CONbits	set	654
  1011  0290                     _T2CLKCON	set	656
  1012  028D                     _PR2	set	653
  1013  059F                     _T0CON1bits	set	1439
  1014  059E                     _T0CON0bits	set	1438
  1015  070D                     _PIR1bits	set	1805
  1016  070C                     _PIR0bits	set	1804
  1017  38B4                     _IOCIE	set	14516
  1018  38B0                     _INTE	set	14512
  1019  38BE                     _TMR2IE	set	14526
  1020  38B5                     _TMR0IE	set	14517
  1021  081A                     _NVMADR	set	2074
  1022  081E                     _NVMCON1bits	set	2078
  1023  0891                     _OSCENbits	set	2193
  1024  0893                     _OSCFRQbits	set	2195
  1025  090C                     _FVRCONbits	set	2316
  1026  1F4E                     _ANSELC	set	8014
  1027  1F38                     _ANSELAbits	set	7992
  1028  F9F8                     _IOCAF0	set	63992
  1029  F9CB                     _WPUA3	set	63947
  1030  F9C8                     _WPUA0	set	63944
  1031                           
  1032                           	psect	cinit
  1033  00EB                     start_initialization:	
  1034                           ; #config settings
  1035                           
  1036  00EB                     __initialization:
  1037                           
  1038                           ; Initialize objects allocated to BANK0
  1039  00EB  3187  27FC  3180   	fcall	__pidataBANK0	;fetch initializer
  1040  00EE  00E4               	movwf	__pdataBANK0& (0+127)
  1041  00EF  3187  27FD  3180   	fcall	__pidataBANK0+1	;fetch initializer
  1042  00F2  00E5               	movwf	(__pdataBANK0+1)& (0+127)
  1043  00F3  3187  27FE  3180   	fcall	__pidataBANK0+2	;fetch initializer
  1044  00F6  00E6               	movwf	(__pdataBANK0+2)& (0+127)
  1045                           
  1046                           ; Clear objects allocated to BITCOMMON
  1047  00F7  01FD               	clrf	(__pbitbssCOMMON/(0+8))& (0+127)
  1048                           
  1049                           ; Clear objects allocated to COMMON
  1050  00F8  01F7               	clrf	__pbssCOMMON& (0+127)
  1051  00F9  01F8               	clrf	(__pbssCOMMON+1)& (0+127)
  1052  00FA  01F9               	clrf	(__pbssCOMMON+2)& (0+127)
  1053  00FB  01FA               	clrf	(__pbssCOMMON+3)& (0+127)
  1054  00FC  01FB               	clrf	(__pbssCOMMON+4)& (0+127)
  1055  00FD  01FC               	clrf	(__pbssCOMMON+5)& (0+127)
  1056                           
  1057                           ; Clear objects allocated to BANK0
  1058  00FE  3044               	movlw	low __pbssBANK0
  1059  00FF  0084               	movwf	4
  1060  0100  3000               	movlw	high __pbssBANK0
  1061  0101  0085               	movwf	5
  1062  0102  3020               	movlw	32
  1063  0103  318F  27F2  3180   	fcall	clear_ram0
  1064                           
  1065                           ; Clear objects allocated to BANK1
  1066  0106  30A0               	movlw	low __pbssBANK1
  1067  0107  0084               	movwf	4
  1068  0108  3000               	movlw	high __pbssBANK1
  1069  0109  0085               	movwf	5
  1070  010A  300C               	movlw	12
  1071  010B  318F  27F2  3180   	fcall	clear_ram0
  1072  010E                     end_of_initialization:	
  1073                           ;End of C runtime variable initialization code
  1074                           
  1075  010E                     __end_of__initialization:
  1076  010E  107E               	bcf	int$flags,0	;clear compiler interrupt flag (level 1)
  1077  010F  0140               	movlb	0
  1078  0110  3183  2BC2         	ljmp	_main	;jump to C main() function
  1079                           
  1080                           	psect	bitbssCOMMON
  1081  03E8                     __pbitbssCOMMON:
  1082  03E8                     _pinState:
  1083  03E8                     	ds	1
  1084                           
  1085                           	psect	bssCOMMON
  1086  0077                     __pbssCOMMON:
  1087  0077                     _genericDelay:
  1088  0077                     	ds	2
  1089  0079                     _forceArc:
  1090  0079                     	ds	2
  1091  007B                     _buttonDebounce:
  1092  007B                     	ds	1
  1093  007C                     _clockDivider:
  1094  007C                     	ds	1
  1095                           
  1096                           	psect	bssBANK0
  1097  0044                     __pbssBANK0:
  1098  0044                     _calibrationMV:
  1099  0044                     	ds	4
  1100  0048                     _adcVolts:
  1101  0048                     	ds	2
  1102  004A                     _battVolts:
  1103  004A                     	ds	2
  1104  004C                     _charging:
  1105  004C                     	ds	2
  1106  004E                     _gotTheTouch:
  1107  004E                     	ds	2
  1108  0050                     _lidOpen:
  1109  0050                     	ds	2
  1110  0052                     _lowPowerMode:
  1111  0052                     	ds	2
  1112  0054                     _showCharge:
  1113  0054                     	ds	2
  1114  0056                     _poweredOn:
  1115  0056                     	ds	2
  1116  0058                     _playIndex:
  1117  0058                     	ds	2
  1118  005A                     _postscaler:
  1119  005A                     	ds	2
  1120  005C                     _abortAbort:
  1121  005C                     	ds	2
  1122  005E                     _gate:
  1123  005E                     	ds	2
  1124  0060                     _i:
  1125  0060                     	ds	2
  1126  0062                     _chargeCycle:
  1127  0062                     	ds	1
  1128  0063                     _runIndex:
  1129  0063                     	ds	1
  1130                           
  1131                           	psect	dataBANK0
  1132  0064                     __pdataBANK0:
  1133  0064                     _noGate:
  1134  0064                     	ds	2
  1135  0066                     _debugging:
  1136  0066                     	ds	1
  1137                           
  1138                           	psect	bssBANK1
  1139  00A0                     __pbssBANK1:
  1140  00A0                     _aPorts:
  1141  00A0                     	ds	12
  1142                           
  1143                           	psect	clrtext
  1144  0FF2                     clear_ram0:	
  1145                           ;	Called with FSR0 containing the base address, and
  1146                           ;	WREG with the size to clear
  1147                           
  1148  0FF2  0064               	clrwdt	;clear the watchdog before getting into this loop
  1149  0FF3                     clrloop0:
  1150  0FF3  0180               	clrf	0	;clear RAM location pointed to by FSR
  1151  0FF4  3101               	addfsr 0,1
  1152  0FF5  0B89               	decfsz	9,f	;Have we reached the end of clearing yet?
  1153  0FF6  2FF3               	goto	clrloop0	;have we reached the end yet?
  1154  0FF7  3400               	retlw	0	;all done for this memory range, return
  1155                           
  1156                           	psect	cstackCOMMON
  1157  0070                     __pcstackCOMMON:
  1158  0070                     ?_chargeIndicator:
  1159  0070                     ?_doTheArc:	
  1160                           ; 1 bytes @ 0x0
  1161                           
  1162  0070                     ?_goToLPmode:	
  1163                           ; 1 bytes @ 0x0
  1164                           
  1165  0070                     ?_ButtonProcess:	
  1166                           ; 1 bytes @ 0x0
  1167                           
  1168  0070                     ?_ButtonCurrent:	
  1169                           ; 1 bytes @ 0x0
  1170                           
  1171  0070                     ?_isr:	
  1172                           ; 1 bytes @ 0x0
  1173                           
  1174  0070                     ButtonProcess@portStatus:	
  1175                           ; 1 bytes @ 0x0
  1176                           
  1177  0070                     ButtonCurrent@GPIOButtonPins:	
  1178                           ; 1 bytes @ 0x0
  1179                           
  1180                           
  1181                           ; 1 bytes @ 0x0
  1182  0070                     	ds	1
  1183  0071                     ??_ButtonProcess:
  1184  0071                     ??_ButtonCurrent:	
  1185                           ; 1 bytes @ 0x1
  1186                           
  1187  0071                     ButtonCurrent@port:	
  1188                           ; 1 bytes @ 0x1
  1189                           
  1190                           
  1191                           ; 1 bytes @ 0x1
  1192  0071                     	ds	2
  1193  0073                     ButtonProcess@lastDebouncedState:
  1194                           
  1195                           ; 1 bytes @ 0x3
  1196  0073                     	ds	1
  1197  0074                     ButtonProcess@i:
  1198                           
  1199                           ; 1 bytes @ 0x4
  1200  0074                     	ds	1
  1201  0075                     ButtonProcess@port:
  1202                           
  1203                           ; 1 bytes @ 0x5
  1204  0075                     	ds	1
  1205  0076                     ??_isr:
  1206                           
  1207                           ; 1 bytes @ 0x6
  1208  0076                     	ds	1
  1209                           
  1210                           	psect	cstackBANK0
  1211  0020                     __pcstackBANK0:
  1212  0020                     ?_ButtonDebounceInit:
  1213  0020                     ?_blockingDelay:	
  1214                           ; 1 bytes @ 0x0
  1215                           
  1216  0020                     ?___lmul:	
  1217                           ; 1 bytes @ 0x0
  1218                           
  1219  0020                     ButtonDebounceInit@pulledUpButtons:	
  1220                           ; 4 bytes @ 0x0
  1221                           
  1222  0020                     blockingDelay@mSecs:	
  1223                           ; 1 bytes @ 0x0
  1224                           
  1225  0020                     ___lmul@multiplier:	
  1226                           ; 2 bytes @ 0x0
  1227                           
  1228                           
  1229                           ; 4 bytes @ 0x0
  1230  0020                     	ds	1
  1231  0021                     ??_ButtonDebounceInit:
  1232                           
  1233                           ; 1 bytes @ 0x1
  1234  0021                     	ds	1
  1235  0022                     ??_blockingDelay:
  1236  0022                     ?_playNote:	
  1237                           ; 1 bytes @ 0x2
  1238                           
  1239  0022                     ButtonDebounceInit@i:	
  1240                           ; 1 bytes @ 0x2
  1241                           
  1242  0022                     playNote@note:	
  1243                           ; 1 bytes @ 0x2
  1244                           
  1245                           
  1246                           ; 2 bytes @ 0x2
  1247  0022                     	ds	1
  1248  0023                     ButtonDebounceInit@port:
  1249                           
  1250                           ; 1 bytes @ 0x3
  1251  0023                     	ds	1
  1252  0024                     playNote@duration:
  1253  0024                     ___lmul@multiplicand:	
  1254                           ; 2 bytes @ 0x4
  1255                           
  1256                           
  1257                           ; 4 bytes @ 0x4
  1258  0024                     	ds	2
  1259  0026                     ??_doTheArc:
  1260  0026                     ??_goToLPmode:	
  1261                           ; 1 bytes @ 0x6
  1262                           
  1263  0026                     ??_playNote:	
  1264                           ; 1 bytes @ 0x6
  1265                           
  1266                           
  1267                           ; 1 bytes @ 0x6
  1268  0026                     	ds	2
  1269  0028                     ??___lmul:
  1270  0028                     ___lmul@product:	
  1271                           ; 1 bytes @ 0x8
  1272                           
  1273                           
  1274                           ; 4 bytes @ 0x8
  1275  0028                     	ds	4
  1276  002C                     ?___lldiv:
  1277  002C                     ___lldiv@divisor:	
  1278                           ; 4 bytes @ 0xC
  1279                           
  1280                           
  1281                           ; 4 bytes @ 0xC
  1282  002C                     	ds	4
  1283  0030                     ___lldiv@dividend:
  1284                           
  1285                           ; 4 bytes @ 0x10
  1286  0030                     	ds	4
  1287  0034                     ??___lldiv:
  1288                           
  1289                           ; 1 bytes @ 0x14
  1290  0034                     	ds	1
  1291  0035                     ___lldiv@quotient:
  1292                           
  1293                           ; 4 bytes @ 0x15
  1294  0035                     	ds	4
  1295  0039                     ___lldiv@counter:
  1296                           
  1297                           ; 1 bytes @ 0x19
  1298  0039                     	ds	1
  1299  003A                     ??_chargeIndicator:
  1300                           
  1301                           ; 1 bytes @ 0x1A
  1302  003A                     	ds	1
  1303  003B                     _chargeIndicator$1114:
  1304                           
  1305                           ; 4 bytes @ 0x1B
  1306  003B                     	ds	4
  1307  003F                     ?_main:
  1308  003F                     main@argc:	
  1309                           ; 2 bytes @ 0x1F
  1310                           
  1311                           
  1312                           ; 2 bytes @ 0x1F
  1313  003F                     	ds	2
  1314  0041                     main@argv:
  1315                           
  1316                           ; 2 bytes @ 0x21
  1317  0041                     	ds	2
  1318  0043                     ??_main:
  1319                           
  1320                           ; 1 bytes @ 0x23
  1321  0043                     	ds	1
  1322                           
  1323                           	psect	maintext
  1324  03C2                     __pmaintext:	
  1325 ;;
  1326 ;;Main: autosize = 0, tempsize = 1, incstack = 0, save=0
  1327 ;;
  1328 ;; *************** function _main *****************
  1329 ;; Defined at:
  1330 ;;		line 365 in file "main.c"
  1331 ;; Parameters:    Size  Location     Type
  1332 ;;  argc            2   31[BANK0 ] int 
  1333 ;;  argv            2   33[BANK0 ] PTR PTR unsigned char 
  1334 ;; Auto vars:     Size  Location     Type
  1335 ;;		None
  1336 ;; Return value:  Size  Location     Type
  1337 ;;                  2   31[BANK0 ] int 
  1338 ;; Registers used:
  1339 ;;		wreg, fsr0l, fsr0h, fsr1l, fsr1h, status,2, status,0, pclath, cstack
  1340 ;; Tracked objects:
  1341 ;;		On entry : B3F/0
  1342 ;;		On exit  : 0/0
  1343 ;;		Unchanged: 0/0
  1344 ;; Data sizes:     COMMON   BANK0   BANK1   BANK2   BANK3   BANK4   BANK5   BANK6
  1345 ;;      Params:         0       4       0       0       0       0       0       0
  1346 ;;      Locals:         0       0       0       0       0       0       0       0
  1347 ;;      Temps:          0       1       0       0       0       0       0       0
  1348 ;;      Totals:         0       5       0       0       0       0       0       0
  1349 ;;Total ram usage:        5 bytes
  1350 ;; Hardware stack levels required when called: 5
  1351 ;; This function calls:
  1352 ;;		_ButtonDebounceInit
  1353 ;;		_blockingDelay
  1354 ;;		_chargeIndicator
  1355 ;;		_doTheArc
  1356 ;;		_goToLPmode
  1357 ;; This function is called by:
  1358 ;;		Startup code after reset
  1359 ;; This function uses a non-reentrant model
  1360 ;;
  1361                           
  1362                           
  1363                           ;psect for function _main
  1364  03C2                     _main:
  1365  03C2                     l1958:	
  1366                           ;incstack = 0
  1367                           ; Regs used in _main: [wreg-fsr1h+status,2+status,0+pclath+cstack]
  1368                           
  1369                           
  1370                           ;main.c: 369:     ANSELAbits.ANSA0 = 0;
  1371  03C2  017E               	movlb	62	; select bank62
  1372  03C3  1038               	bcf	56,0	;volatile
  1373                           
  1374                           ;main.c: 370:     ANSELAbits.ANSA1 = 0;
  1375  03C4  10B8               	bcf	56,1	;volatile
  1376                           
  1377                           ;main.c: 371:     ANSELAbits.ANSA2 = 0;
  1378  03C5  1138               	bcf	56,2	;volatile
  1379                           
  1380                           ;main.c: 373:     ANSELAbits.ANSA4 = 1;
  1381  03C6  1638               	bsf	56,4	;volatile
  1382                           
  1383                           ;main.c: 374:     ANSELAbits.ANSA5 = 0;
  1384  03C7  12B8               	bcf	56,5	;volatile
  1385  03C8                     l1960:
  1386                           
  1387                           ;main.c: 380:     ANSELC = 0x0;
  1388  03C8  01CE               	clrf	78	;volatile
  1389  03C9                     l1962:
  1390                           
  1391                           ;main.c: 384:     TRISA0 = 1;
  1392  03C9  0140               	movlb	0	; select bank0
  1393  03CA  1412               	bsf	18,0	;volatile
  1394  03CB                     l1964:
  1395                           
  1396                           ;main.c: 385:     WPUA0 = 1;
  1397  03CB  017E               	movlb	62	; select bank62
  1398  03CC  1439               	bsf	57,0	;volatile
  1399  03CD                     l1966:
  1400                           
  1401                           ;main.c: 386:     TRISA1 = 0;
  1402  03CD  0140               	movlb	0	; select bank0
  1403  03CE  1092               	bcf	18,1	;volatile
  1404  03CF                     l1968:
  1405                           
  1406                           ;main.c: 387:     TRISA2 = 0;
  1407  03CF  1112               	bcf	18,2	;volatile
  1408  03D0                     l1970:
  1409                           
  1410                           ;main.c: 388:     TRISA3 = 1;
  1411  03D0  1592               	bsf	18,3	;volatile
  1412  03D1                     l1972:
  1413                           
  1414                           ;main.c: 389:     WPUA3 = 1;
  1415  03D1  017E               	movlb	62	; select bank62
  1416  03D2  15B9               	bsf	57,3	;volatile
  1417  03D3                     l1974:
  1418                           
  1419                           ;main.c: 390:     TRISA4 = 1;
  1420  03D3  0140               	movlb	0	; select bank0
  1421  03D4  1612               	bsf	18,4	;volatile
  1422  03D5                     l1976:
  1423                           
  1424                           ;main.c: 391:     TRISA5 = 1;
  1425  03D5  1692               	bsf	18,5	;volatile
  1426  03D6                     l1978:
  1427                           
  1428                           ;main.c: 392:     TRISC0 = 0;
  1429  03D6  1014               	bcf	20,0	;volatile
  1430  03D7                     l1980:
  1431                           
  1432                           ;main.c: 393:     TRISC1 = 0;
  1433  03D7  1094               	bcf	20,1	;volatile
  1434  03D8                     l1982:
  1435                           
  1436                           ;main.c: 394:     TRISC2 = 0;
  1437  03D8  1114               	bcf	20,2	;volatile
  1438  03D9                     l1984:
  1439                           
  1440                           ;main.c: 395:     TRISC3 = 0;
  1441  03D9  1194               	bcf	20,3	;volatile
  1442  03DA                     l1986:
  1443                           
  1444                           ;main.c: 396:     TRISC4 = 0;
  1445  03DA  1214               	bcf	20,4	;volatile
  1446  03DB                     l1988:
  1447                           
  1448                           ;main.c: 397:     TRISC5 = 0;
  1449  03DB  1294               	bcf	20,5	;volatile
  1450  03DC                     l1990:
  1451                           
  1452                           ;main.c: 400:     LATA1 = 1;
  1453  03DC  1498               	bsf	24,1	;volatile
  1454  03DD                     l1992:
  1455                           
  1456                           ;main.c: 401:     LATA2 = 1;
  1457  03DD  1518               	bsf	24,2	;volatile
  1458  03DE                     l1994:
  1459                           
  1460                           ;main.c: 402:     LATC0 = 1;
  1461  03DE  141A               	bsf	26,0	;volatile
  1462  03DF                     l1996:
  1463                           
  1464                           ;main.c: 403:     LATC1 = 1;
  1465  03DF  149A               	bsf	26,1	;volatile
  1466  03E0                     l1998:
  1467                           
  1468                           ;main.c: 404:     LATC2 = 1;
  1469  03E0  151A               	bsf	26,2	;volatile
  1470  03E1                     l2000:
  1471                           
  1472                           ;main.c: 405:     LATC3 = 0;
  1473  03E1  119A               	bcf	26,3	;volatile
  1474  03E2                     l2002:
  1475                           
  1476                           ;main.c: 406:     LATC4 = 0;
  1477  03E2  121A               	bcf	26,4	;volatile
  1478  03E3                     l2004:
  1479                           
  1480                           ;main.c: 407:     LATC5 = 0;
  1481  03E3  129A               	bcf	26,5	;volatile
  1482  03E4                     l2006:
  1483                           
  1484                           ;main.c: 410:     ButtonDebounceInit(&aPorts, (0x0001) | (0x0008));
  1485  03E4  3009               	movlw	9
  1486  03E5  00C3               	movwf	??_main
  1487  03E6  0843               	movf	??_main,w
  1488  03E7  00A0               	movwf	ButtonDebounceInit@pulledUpButtons
  1489  03E8  30A0               	movlw	(low (_aPorts| 0))& (0+255)
  1490  03E9  3187  2768  3183   	fcall	_ButtonDebounceInit
  1491  03EC                     l2008:
  1492                           
  1493                           ;main.c: 417:     OSCFRQbits.FRQ = 0b101;
  1494  03EC  0151               	movlb	17	; select bank17
  1495  03ED  0813               	movf	19,w	;volatile
  1496  03EE  39F8               	andlw	-8
  1497  03EF  3805               	iorlw	5
  1498  03F0  0093               	movwf	19	;volatile
  1499  03F1                     l2010:
  1500                           
  1501                           ;main.c: 418:     OSCENbits.HFOEN = 1;
  1502  03F1  1711               	bsf	17,6	;volatile
  1503  03F2                     l2012:
  1504                           
  1505                           ;main.c: 422:     T0CON0bits.MD16 = 0;
  1506  03F2  014B               	movlb	11	; select bank11
  1507  03F3  121E               	bcf	30,4	;volatile
  1508  03F4                     l2014:
  1509                           
  1510                           ;main.c: 423:     T0CON0bits.OUTPS = 0b0000;
  1511  03F4  30F0               	movlw	-16
  1512  03F5  059E               	andwf	30,f	;volatile
  1513  03F6                     l2016:
  1514                           
  1515                           ;main.c: 424:     T0CON1bits.CS = 0b010;
  1516  03F6  081F               	movf	31,w	;volatile
  1517  03F7  391F               	andlw	-225
  1518  03F8  3840               	iorlw	64
  1519  03F9  009F               	movwf	31	;volatile
  1520  03FA                     l2018:
  1521                           
  1522                           ;main.c: 425:     T0CON1bits.ASYNC = 0;
  1523  03FA  121F               	bcf	31,4	;volatile
  1524  03FB                     l2020:
  1525                           
  1526                           ;main.c: 426:     T0CON1bits.CKPS = 0b0001;
  1527  03FB  081F               	movf	31,w	;volatile
  1528  03FC  39F0               	andlw	-16
  1529  03FD  3801               	iorlw	1
  1530  03FE  009F               	movwf	31	;volatile
  1531  03FF                     l2022:
  1532                           
  1533                           ;main.c: 427:     T0CON0bits.EN = 1;
  1534  03FF  179E               	bsf	30,7	;volatile
  1535  0400                     l2024:
  1536                           
  1537                           ;main.c: 430:     PR2 = 0x00;
  1538  0400  0145               	movlb	5	; select bank5
  1539  0401  018D               	clrf	13	;volatile
  1540  0402                     l2026:
  1541                           
  1542                           ;main.c: 431:     T2CLKCON = 0b001;
  1543  0402  3001               	movlw	1
  1544  0403  0090               	movwf	16	;volatile
  1545  0404                     l2028:
  1546                           
  1547                           ;main.c: 432:     T2CONbits.T2CKPS = 0b110;
  1548  0404  080E               	movf	14,w	;volatile
  1549  0405  398F               	andlw	-113
  1550  0406  3860               	iorlw	96
  1551  0407  008E               	movwf	14	;volatile
  1552  0408                     l2030:
  1553                           
  1554                           ;main.c: 433:     T2HLTbits.PSYNC = 1;
  1555  0408  178F               	bsf	15,7	;volatile
  1556  0409                     l2032:
  1557                           
  1558                           ;main.c: 434:     T2CONbits.TMR2ON = 1;
  1559  0409  178E               	bsf	14,7	;volatile
  1560  040A                     l2034:
  1561                           
  1562                           ;main.c: 437:     TMR0IE = 1;
  1563  040A  014E               	movlb	14	; select bank14
  1564  040B  1696               	bsf	22,5	;volatile
  1565  040C                     l2036:
  1566                           
  1567                           ;main.c: 438:     TMR2IE = 1;
  1568  040C  1717               	bsf	23,6	;volatile
  1569  040D                     l2038:
  1570                           
  1571                           ;main.c: 441:     FVRCONbits.ADFVR = 0b01;
  1572  040D  0152               	movlb	18	; select bank18
  1573  040E  080C               	movf	12,w	;volatile
  1574  040F  39FC               	andlw	-4
  1575  0410  3801               	iorlw	1
  1576  0411  008C               	movwf	12	;volatile
  1577  0412                     l2040:
  1578                           
  1579                           ;main.c: 442:     FVRCONbits.FVREN = 1;
  1580  0412  178C               	bsf	12,7	;volatile
  1581  0413                     l2042:
  1582                           
  1583                           ;main.c: 446:     if (!debugging) NVMCON1bits.NVMREGS = 1;
  1584  0413  0140               	movlb	0	; select bank0
  1585  0414  0866               	movf	_debugging,w
  1586  0415  1D03               	btfss	3,2
  1587  0416  2C18               	goto	u1831
  1588  0417  2C19               	goto	u1830
  1589  0418                     u1831:
  1590  0418  2C1B               	goto	l175
  1591  0419                     u1830:
  1592  0419                     l2044:
  1593  0419  0150               	movlb	16	; select bank16
  1594  041A  171E               	bsf	30,6	;volsfr
  1595  041B                     l175:
  1596                           
  1597                           ;main.c: 447:     NVMADR = 0x8118;
  1598  041B  3081               	movlw	129
  1599  041C  0150               	movlb	16	; select bank16
  1600  041D  009B               	movwf	27	;volatile
  1601  041E  3018               	movlw	24
  1602  041F  009A               	movwf	26	;volatile
  1603                           
  1604                           ;main.c: 448:     NVMCON1bits.RD = 1;
  1605  0420  141E               	bsf	30,0	;volsfr
  1606  0421                     l2046:
  1607                           
  1608                           ;main.c: 449:     calibrationMV = NVMADR;
  1609  0421  081A               	movf	26,w	;volatile
  1610  0422  0140               	movlb	0	; select bank0
  1611  0423  00C4               	movwf	_calibrationMV
  1612  0424  0150               	movlb	16	; select bank16
  1613  0425  081B               	movf	27,w	;volatile
  1614  0426  0140               	movlb	0	; select bank0
  1615  0427  00C5               	movwf	_calibrationMV+1
  1616  0428  01C6               	clrf	_calibrationMV+2
  1617  0429  01C7               	clrf	_calibrationMV+3
  1618  042A                     l2048:
  1619                           
  1620                           ;main.c: 450:     if (!debugging) NVMCON1bits.NVMREGS = 0;
  1621  042A  0866               	movf	_debugging,w
  1622  042B  1D03               	btfss	3,2
  1623  042C  2C2E               	goto	u1841
  1624  042D  2C2F               	goto	u1840
  1625  042E                     u1841:
  1626  042E  2C31               	goto	l2052
  1627  042F                     u1840:
  1628  042F                     l2050:
  1629  042F  0150               	movlb	16	; select bank16
  1630  0430  131E               	bcf	30,6	;volsfr
  1631  0431                     l2052:
  1632                           
  1633                           ;main.c: 453:     ADCON1bits.CS = 0b110;
  1634  0431  0141               	movlb	1	; select bank1
  1635  0432  081E               	movf	30,w	;volatile
  1636  0433  398F               	andlw	-113
  1637  0434  3860               	iorlw	96
  1638  0435  009E               	movwf	30	;volatile
  1639                           
  1640                           ;main.c: 454:     ADCON1bits.PREF = 0b00;
  1641  0436  30FC               	movlw	-4
  1642  0437  059E               	andwf	30,f	;volatile
  1643                           
  1644                           ;main.c: 455:     ADCON0bits.CHS = 0b011110;
  1645  0438  081D               	movf	29,w	;volatile
  1646  0439  3903               	andlw	-253
  1647  043A  3878               	iorlw	120
  1648  043B  009D               	movwf	29	;volatile
  1649  043C                     l2054:
  1650                           
  1651                           ;main.c: 456:     ADCON1bits.FM = 1;
  1652  043C  179E               	bsf	30,7	;volatile
  1653  043D                     l2056:
  1654                           
  1655                           ;main.c: 457:     ADACT = 0x0;
  1656  043D  019F               	clrf	31	;volatile
  1657  043E                     l2058:
  1658                           
  1659                           ;main.c: 460:     if (!debugging) ADCON0bits.ON = 1;
  1660  043E  0140               	movlb	0	; select bank0
  1661  043F  0866               	movf	_debugging,w
  1662  0440  1D03               	btfss	3,2
  1663  0441  2C43               	goto	u1851
  1664  0442  2C44               	goto	u1850
  1665  0443                     u1851:
  1666  0443  2C46               	goto	l177
  1667  0444                     u1850:
  1668  0444                     l2060:
  1669  0444  0141               	movlb	1	; select bank1
  1670  0445  141D               	bsf	29,0	;volatile
  1671  0446                     l177:
  1672                           
  1673                           ;main.c: 475:     INTE = 0;
  1674  0446  014E               	movlb	14	; select bank14
  1675  0447  1016               	bcf	22,0	;volatile
  1676                           
  1677                           ;main.c: 477:     PEIE = 1;
  1678  0448  170B               	bsf	11,6	;volatile
  1679                           
  1680                           ;main.c: 478:     IOCIE = 1;
  1681  0449  1616               	bsf	22,4	;volatile
  1682                           
  1683                           ;main.c: 479:     GIE = 1;
  1684  044A  178B               	bsf	11,7	;volatile
  1685                           
  1686                           ;main.c: 482:     LATC2 = 0;
  1687  044B  0140               	movlb	0	; select bank0
  1688  044C  111A               	bcf	26,2	;volatile
  1689  044D                     l2062:
  1690                           
  1691                           ;main.c: 483:     blockingDelay(100);
  1692  044D  3064               	movlw	100
  1693  044E  00A0               	movwf	blockingDelay@mSecs
  1694  044F  3000               	movlw	0
  1695  0450  00A1               	movwf	blockingDelay@mSecs+1
  1696  0451  3187  27F0  3183   	fcall	_blockingDelay
  1697  0454                     l2064:
  1698                           
  1699                           ;main.c: 484:     LATC2 = 1;
  1700  0454  0140               	movlb	0	; select bank0
  1701  0455  151A               	bsf	26,2	;volatile
  1702                           
  1703                           ;main.c: 485:     blockingDelay(100);
  1704  0456  3064               	movlw	100
  1705  0457  00A0               	movwf	blockingDelay@mSecs
  1706  0458  3000               	movlw	0
  1707  0459  00A1               	movwf	blockingDelay@mSecs+1
  1708  045A  3187  27F0  3183   	fcall	_blockingDelay
  1709  045D                     l2066:
  1710                           
  1711                           ;main.c: 486:     LATC2 = 0;
  1712  045D  0140               	movlb	0	; select bank0
  1713  045E  111A               	bcf	26,2	;volatile
  1714                           
  1715                           ;main.c: 487:     blockingDelay(100);
  1716  045F  3064               	movlw	100
  1717  0460  00A0               	movwf	blockingDelay@mSecs
  1718  0461  3000               	movlw	0
  1719  0462  00A1               	movwf	blockingDelay@mSecs+1
  1720  0463  3187  27F0  3183   	fcall	_blockingDelay
  1721  0466                     l2068:
  1722                           
  1723                           ;main.c: 488:     LATC2 = 1;
  1724  0466  0140               	movlb	0	; select bank0
  1725  0467  151A               	bsf	26,2	;volatile
  1726                           
  1727                           ;main.c: 489:     blockingDelay(100);
  1728  0468  3064               	movlw	100
  1729  0469  00A0               	movwf	blockingDelay@mSecs
  1730  046A  3000               	movlw	0
  1731  046B  00A1               	movwf	blockingDelay@mSecs+1
  1732  046C  3187  27F0  3183   	fcall	_blockingDelay
  1733  046F                     l2070:
  1734                           
  1735                           ;main.c: 490:     LATC2 = 0;
  1736  046F  0140               	movlb	0	; select bank0
  1737  0470  111A               	bcf	26,2	;volatile
  1738                           
  1739                           ;main.c: 491:     blockingDelay(100);
  1740  0471  3064               	movlw	100
  1741  0472  00A0               	movwf	blockingDelay@mSecs
  1742  0473  3000               	movlw	0
  1743  0474  00A1               	movwf	blockingDelay@mSecs+1
  1744  0475  3187  27F0  3183   	fcall	_blockingDelay
  1745  0478                     l2072:
  1746                           
  1747                           ;main.c: 492:     LATC2 = 1;
  1748  0478  0140               	movlb	0	; select bank0
  1749  0479  151A               	bsf	26,2	;volatile
  1750  047A                     l2074:
  1751                           
  1752                           ;main.c: 494:     lowPowerMode = 0;
  1753  047A  01D2               	clrf	_lowPowerMode
  1754  047B  01D3               	clrf	_lowPowerMode+1
  1755  047C                     l2076:
  1756                           
  1757                           ;main.c: 495:                 poweredOn = 1;
  1758  047C  3001               	movlw	1
  1759  047D  00D6               	movwf	_poweredOn
  1760  047E  3000               	movlw	0
  1761  047F  00D7               	movwf	_poweredOn+1
  1762  0480                     l2078:
  1763                           
  1764                           ;main.c: 496:                 showCharge = 1;
  1765  0480  3001               	movlw	1
  1766  0481  00D4               	movwf	_showCharge
  1767  0482  3000               	movlw	0
  1768  0483  00D5               	movwf	_showCharge+1
  1769  0484                     l2080:
  1770                           
  1771                           ;main.c: 501:         PR2 = 0x00;
  1772  0484  0145               	movlb	5	; select bank5
  1773  0485  018D               	clrf	13	;volatile
  1774  0486                     l2082:
  1775                           
  1776                           ;main.c: 503:         if (showCharge) chargeIndicator();
  1777  0486  0140               	movlb	0	; select bank0
  1778  0487  0854               	movf	_showCharge,w
  1779  0488  0455               	iorwf	_showCharge+1,w
  1780  0489  1903               	btfsc	3,2
  1781  048A  2C8C               	goto	u1861
  1782  048B  2C8D               	goto	u1860
  1783  048C                     u1861:
  1784  048C  2C90               	goto	l2086
  1785  048D                     u1860:
  1786  048D                     l2084:
  1787  048D  3184  24B2  3183   	fcall	_chargeIndicator
  1788  0490                     l2086:
  1789                           
  1790                           ;main.c: 504:         if (poweredOn) {
  1791  0490  0140               	movlb	0	; select bank0
  1792  0491  0856               	movf	_poweredOn,w
  1793  0492  0457               	iorwf	_poweredOn+1,w
  1794  0493  1903               	btfsc	3,2
  1795  0494  2C96               	goto	u1871
  1796  0495  2C97               	goto	u1870
  1797  0496                     u1871:
  1798  0496  2CA3               	goto	l180
  1799  0497                     u1870:
  1800  0497                     l2088:
  1801                           
  1802                           ;main.c: 506:             LATC2 = 0;
  1803  0497  111A               	bcf	26,2	;volatile
  1804                           
  1805                           ;main.c: 508:             LATC3 = 1;
  1806  0498  159A               	bsf	26,3	;volatile
  1807  0499                     l2090:
  1808                           
  1809                           ;main.c: 509:             if (gotTheTouch) doTheArc();
  1810  0499  084E               	movf	_gotTheTouch,w
  1811  049A  044F               	iorwf	_gotTheTouch+1,w
  1812  049B  1903               	btfsc	3,2
  1813  049C  2C9E               	goto	u1881
  1814  049D  2C9F               	goto	u1880
  1815  049E                     u1881:
  1816  049E  2CA5               	goto	l2094
  1817  049F                     u1880:
  1818  049F                     l2092:
  1819  049F  3185  259F  3183   	fcall	_doTheArc
  1820  04A2  2CA5               	goto	l2094
  1821  04A3                     l180:
  1822                           
  1823                           ;main.c: 512:             LATC2 = 1;
  1824  04A3  151A               	bsf	26,2	;volatile
  1825                           
  1826                           ;main.c: 514:             LATC3 = 0;
  1827  04A4  119A               	bcf	26,3	;volatile
  1828  04A5                     l2094:
  1829                           
  1830                           ;main.c: 516:         if (lowPowerMode) goToLPmode();
  1831  04A5  0140               	movlb	0	; select bank0
  1832  04A6  0852               	movf	_lowPowerMode,w
  1833  04A7  0453               	iorwf	_lowPowerMode+1,w
  1834  04A8  1903               	btfsc	3,2
  1835  04A9  2CAB               	goto	u1891
  1836  04AA  2CAC               	goto	u1890
  1837  04AB                     u1891:
  1838  04AB  2C84               	goto	l2080
  1839  04AC                     u1890:
  1840  04AC                     l2096:
  1841  04AC  3187  27DA  3183   	fcall	_goToLPmode
  1842  04AF  2C84               	goto	l2080
  1843  04B0  3180  28E9         	ljmp	start
  1844  04B2                     __end_of_main:
  1845                           
  1846                           	psect	text1
  1847  07DA                     __ptext1:	
  1848 ;; *************** function _goToLPmode *****************
  1849 ;; Defined at:
  1850 ;;		line 717 in file "main.c"
  1851 ;; Parameters:    Size  Location     Type
  1852 ;;		None
  1853 ;; Auto vars:     Size  Location     Type
  1854 ;;		None
  1855 ;; Return value:  Size  Location     Type
  1856 ;;                  1    wreg      void 
  1857 ;; Registers used:
  1858 ;;		wreg, fsr0l, fsr0h, status,2, status,0, pclath, cstack
  1859 ;; Tracked objects:
  1860 ;;		On entry : 0/0
  1861 ;;		On exit  : 0/0
  1862 ;;		Unchanged: 0/0
  1863 ;; Data sizes:     COMMON   BANK0   BANK1   BANK2   BANK3   BANK4   BANK5   BANK6
  1864 ;;      Params:         0       0       0       0       0       0       0       0
  1865 ;;      Locals:         0       0       0       0       0       0       0       0
  1866 ;;      Temps:          0       0       0       0       0       0       0       0
  1867 ;;      Totals:         0       0       0       0       0       0       0       0
  1868 ;;Total ram usage:        0 bytes
  1869 ;; Hardware stack levels used: 1
  1870 ;; Hardware stack levels required when called: 4
  1871 ;; This function calls:
  1872 ;;		_playNote
  1873 ;; This function is called by:
  1874 ;;		_main
  1875 ;; This function uses a non-reentrant model
  1876 ;;
  1877                           
  1878                           
  1879                           ;psect for function _goToLPmode
  1880  07DA                     _goToLPmode:
  1881  07DA                     l1942:	
  1882                           ;incstack = 0
  1883                           ; Regs used in _goToLPmode: [wreg-fsr0h+status,2+status,0+pclath+cstack]
  1884                           
  1885                           
  1886                           ;main.c: 718:     forceArc = 0;
  1887  07DA  01F9               	clrf	_forceArc
  1888  07DB  01FA               	clrf	_forceArc+1
  1889  07DC                     l1944:
  1890                           
  1891                           ;main.c: 719:     playNote(0, 100);
  1892  07DC  3000               	movlw	0
  1893  07DD  0140               	movlb	0	; select bank0
  1894  07DE  00A2               	movwf	playNote@note
  1895  07DF  00A3               	movwf	playNote@note+1
  1896  07E0  3064               	movlw	100
  1897  07E1  00A4               	movwf	playNote@duration
  1898  07E2  3000               	movlw	0
  1899  07E3  00A5               	movwf	playNote@duration+1
  1900  07E4  3187  27B8  3187   	fcall	_playNote
  1901  07E7                     l1946:
  1902                           
  1903                           ;main.c: 721:     LATC3 = 0;
  1904  07E7  0140               	movlb	0	; select bank0
  1905  07E8  119A               	bcf	26,3	;volatile
  1906  07E9                     l1948:
  1907                           
  1908                           ;main.c: 724:     LATA1 = 1;
  1909  07E9  1498               	bsf	24,1	;volatile
  1910  07EA                     l1950:
  1911                           
  1912                           ;main.c: 725:     LATA2 = 1;
  1913  07EA  1518               	bsf	24,2	;volatile
  1914  07EB                     l1952:
  1915                           
  1916                           ;main.c: 726:     LATC0 = 1;
  1917  07EB  141A               	bsf	26,0	;volatile
  1918  07EC                     l1954:
  1919                           
  1920                           ;main.c: 727:     LATC1 = 1;
  1921  07EC  149A               	bsf	26,1	;volatile
  1922  07ED                     l1956:
  1923                           
  1924                           ;main.c: 728:     LATC2 = 1;
  1925  07ED  151A               	bsf	26,2	;volatile
  1926  07EE  0063               	sleep	;# 
  1927  07EF                     l251:
  1928  07EF  0008               	return
  1929  07F0                     __end_of_goToLPmode:
  1930                           
  1931                           	psect	text2
  1932  059F                     __ptext2:	
  1933 ;; *************** function _doTheArc *****************
  1934 ;; Defined at:
  1935 ;;		line 644 in file "main.c"
  1936 ;; Parameters:    Size  Location     Type
  1937 ;;		None
  1938 ;; Auto vars:     Size  Location     Type
  1939 ;;		None
  1940 ;; Return value:  Size  Location     Type
  1941 ;;                  1    wreg      void 
  1942 ;; Registers used:
  1943 ;;		wreg, fsr0l, fsr0h, status,2, status,0, pclath, cstack
  1944 ;; Tracked objects:
  1945 ;;		On entry : 0/0
  1946 ;;		On exit  : 0/0
  1947 ;;		Unchanged: 0/0
  1948 ;; Data sizes:     COMMON   BANK0   BANK1   BANK2   BANK3   BANK4   BANK5   BANK6
  1949 ;;      Params:         0       0       0       0       0       0       0       0
  1950 ;;      Locals:         0       0       0       0       0       0       0       0
  1951 ;;      Temps:          0       2       0       0       0       0       0       0
  1952 ;;      Totals:         0       2       0       0       0       0       0       0
  1953 ;;Total ram usage:        2 bytes
  1954 ;; Hardware stack levels used: 1
  1955 ;; Hardware stack levels required when called: 4
  1956 ;; This function calls:
  1957 ;;		_blockingDelay
  1958 ;;		_playNote
  1959 ;; This function is called by:
  1960 ;;		_main
  1961 ;; This function uses a non-reentrant model
  1962 ;;
  1963                           
  1964                           
  1965                           ;psect for function _doTheArc
  1966  059F                     _doTheArc:
  1967  059F                     l1880:	
  1968                           ;incstack = 0
  1969                           ; Regs used in _doTheArc: [wreg-fsr0h+status,2+status,0+pclath+cstack]
  1970                           
  1971                           
  1972                           ;main.c: 646:     forceArc = 1;
  1973  059F  3001               	movlw	1
  1974  05A0  00F9               	movwf	_forceArc
  1975  05A1  3000               	movlw	0
  1976  05A2  00FA               	movwf	_forceArc+1
  1977  05A3                     l1882:
  1978                           
  1979                           ;main.c: 647:     runIndex++;
  1980  05A3  3001               	movlw	1
  1981  05A4  0140               	movlb	0	; select bank0
  1982  05A5  00A6               	movwf	??_doTheArc
  1983  05A6  0826               	movf	??_doTheArc,w
  1984  05A7  07E3               	addwf	_runIndex,f
  1985  05A8                     l1884:
  1986                           
  1987                           ;main.c: 648:     if (runIndex > 4) runIndex = 1;
  1988  05A8  3005               	movlw	5
  1989  05A9  0263               	subwf	_runIndex,w
  1990  05AA  1C03               	skipc
  1991  05AB  2DAD               	goto	u1741
  1992  05AC  2DAE               	goto	u1740
  1993  05AD                     u1741:
  1994  05AD  2E60               	goto	l1926
  1995  05AE                     u1740:
  1996  05AE                     l1886:
  1997  05AE  01E3               	clrf	_runIndex
  1998  05AF  0AE3               	incf	_runIndex,f
  1999  05B0  2E60               	goto	l1926
  2000  05B1                     l217:	
  2001                           ;main.c: 650:         case 1:
  2002                           
  2003                           
  2004                           ;main.c: 652:             LATA1 = 0;
  2005  05B1  1098               	bcf	24,1	;volatile
  2006                           
  2007                           ;main.c: 653:             LATA2 = 1;
  2008  05B2  1518               	bsf	24,2	;volatile
  2009                           
  2010                           ;main.c: 654:             LATC0 = 1;
  2011  05B3  141A               	bsf	26,0	;volatile
  2012                           
  2013                           ;main.c: 655:             LATC1 = 1;
  2014  05B4  149A               	bsf	26,1	;volatile
  2015  05B5                     l1888:	
  2016                           ;main.c: 656:             while (gotTheTouch && poweredOn);
  2017                           
  2018  05B5  084E               	movf	_gotTheTouch,w
  2019  05B6  044F               	iorwf	_gotTheTouch+1,w
  2020  05B7  1903               	btfsc	3,2
  2021  05B8  2DBA               	goto	u1751
  2022  05B9  2DBB               	goto	u1750
  2023  05BA                     u1751:
  2024  05BA  2E73               	goto	l1928
  2025  05BB                     u1750:
  2026  05BB                     l1890:
  2027  05BB  0856               	movf	_poweredOn,w
  2028  05BC  0457               	iorwf	_poweredOn+1,w
  2029  05BD  1D03               	btfss	3,2
  2030  05BE  2DC0               	goto	u1761
  2031  05BF  2DC1               	goto	u1760
  2032  05C0                     u1761:
  2033  05C0  2DB5               	goto	l1888
  2034  05C1                     u1760:
  2035  05C1  2E73               	goto	l1928
  2036  05C2                     l224:	
  2037                           ;main.c: 659:         case 2:
  2038                           
  2039                           
  2040                           ;main.c: 661:             LATA1 = 1;
  2041  05C2  1498               	bsf	24,1	;volatile
  2042                           
  2043                           ;main.c: 662:             LATA2 = 0;
  2044  05C3  1118               	bcf	24,2	;volatile
  2045                           
  2046                           ;main.c: 663:             LATC0 = 1;
  2047  05C4  141A               	bsf	26,0	;volatile
  2048                           
  2049                           ;main.c: 664:             LATC1 = 1;
  2050  05C5  149A               	bsf	26,1	;volatile
  2051  05C6                     l1892:
  2052                           
  2053                           ;main.c: 666:             blockingDelay(1000);
  2054  05C6  30E8               	movlw	232
  2055  05C7  00A0               	movwf	blockingDelay@mSecs
  2056  05C8  3003               	movlw	3
  2057  05C9  00A1               	movwf	blockingDelay@mSecs+1
  2058  05CA  3187  27F0  3185   	fcall	_blockingDelay
  2059  05CD                     l1894:
  2060                           
  2061                           ;main.c: 667:             forceArc = 0;
  2062  05CD  01F9               	clrf	_forceArc
  2063  05CE  01FA               	clrf	_forceArc+1
  2064  05CF                     l1896:
  2065                           
  2066                           ;main.c: 668:             for (i = 0; i < sizeof (sheRa) && gotTheTouch && poweredOn; i+
      +                          +) playNote(sheRa[i][0], sheRa[i][1]);
  2067  05CF  0140               	movlb	0	; select bank0
  2068  05D0  01E0               	clrf	_i
  2069  05D1  01E1               	clrf	_i+1
  2070  05D2  2DFB               	goto	l1902
  2071  05D3                     l1898:
  2072  05D3  0861               	movf	_i+1,w
  2073  05D4  0085               	movwf	5
  2074  05D5  0860               	movf	_i,w
  2075  05D6  0084               	movwf	4
  2076  05D7  3584               	lslf	4,f
  2077  05D8  0D85               	rlf	5,f
  2078  05D9  3584               	lslf	4,f
  2079  05DA  0D85               	rlf	5,f
  2080  05DB  30D2               	movlw	low (_sheRa| (0+32768))
  2081  05DC  0784               	addwf	4,f
  2082  05DD  3082               	movlw	high (_sheRa| (0+32768))
  2083  05DE  3D85               	addwfc	5,f
  2084  05DF  3F00               	moviw [0]fsr0
  2085  05E0  00A2               	movwf	playNote@note
  2086  05E1  3F01               	moviw [1]fsr0
  2087  05E2  00A3               	movwf	playNote@note+1
  2088  05E3  0861               	movf	_i+1,w
  2089  05E4  0085               	movwf	5
  2090  05E5  0860               	movf	_i,w
  2091  05E6  0084               	movwf	4
  2092  05E7  3584               	lslf	4,f
  2093  05E8  0D85               	rlf	5,f
  2094  05E9  3584               	lslf	4,f
  2095  05EA  0D85               	rlf	5,f
  2096  05EB  30D4               	movlw	low ((_sheRa+2)| (0+32768))
  2097  05EC  0784               	addwf	4,f
  2098  05ED  3082               	movlw	high ((_sheRa+2)| (0+32768))
  2099  05EE  3D85               	addwfc	5,f
  2100  05EF  3F00               	moviw [0]fsr0
  2101  05F0  00A4               	movwf	playNote@duration
  2102  05F1  3F01               	moviw [1]fsr0
  2103  05F2  00A5               	movwf	playNote@duration+1
  2104  05F3  3187  27B8  3185   	fcall	_playNote
  2105  05F6                     l1900:
  2106  05F6  3001               	movlw	1
  2107  05F7  0140               	movlb	0	; select bank0
  2108  05F8  07E0               	addwf	_i,f
  2109  05F9  3000               	movlw	0
  2110  05FA  3DE1               	addwfc	_i+1,f
  2111  05FB                     l1902:
  2112  05FB  3000               	movlw	0
  2113  05FC  0261               	subwf	_i+1,w
  2114  05FD  30F0               	movlw	240
  2115  05FE  1903               	skipnz
  2116  05FF  0260               	subwf	_i,w
  2117  0600  1803               	skipnc
  2118  0601  2E03               	goto	u1771
  2119  0602  2E04               	goto	u1770
  2120  0603                     u1771:
  2121  0603  2E73               	goto	l1928
  2122  0604                     u1770:
  2123  0604                     l1904:
  2124  0604  084E               	movf	_gotTheTouch,w
  2125  0605  044F               	iorwf	_gotTheTouch+1,w
  2126  0606  1903               	btfsc	3,2
  2127  0607  2E09               	goto	u1781
  2128  0608  2E0A               	goto	u1780
  2129  0609                     u1781:
  2130  0609  2E73               	goto	l1928
  2131  060A                     u1780:
  2132  060A                     l1906:
  2133  060A  0856               	movf	_poweredOn,w
  2134  060B  0457               	iorwf	_poweredOn+1,w
  2135  060C  1D03               	btfss	3,2
  2136  060D  2E0F               	goto	u1791
  2137  060E  2E10               	goto	u1790
  2138  060F                     u1791:
  2139  060F  2DD3               	goto	l1898
  2140  0610                     u1790:
  2141  0610  2E73               	goto	l1928
  2142  0611                     l230:	
  2143                           ;main.c: 671:         case 3:
  2144                           
  2145                           
  2146                           ;main.c: 673:             LATA1 = 1;
  2147  0611  1498               	bsf	24,1	;volatile
  2148                           
  2149                           ;main.c: 674:             LATA2 = 1;
  2150  0612  1518               	bsf	24,2	;volatile
  2151                           
  2152                           ;main.c: 675:             LATC0 = 0;
  2153  0613  101A               	bcf	26,0	;volatile
  2154                           
  2155                           ;main.c: 676:             LATC1 = 1;
  2156  0614  149A               	bsf	26,1	;volatile
  2157  0615                     l1908:
  2158                           
  2159                           ;main.c: 678:             blockingDelay(1000);
  2160  0615  30E8               	movlw	232
  2161  0616  00A0               	movwf	blockingDelay@mSecs
  2162  0617  3003               	movlw	3
  2163  0618  00A1               	movwf	blockingDelay@mSecs+1
  2164  0619  3187  27F0  3185   	fcall	_blockingDelay
  2165  061C                     l1910:
  2166                           
  2167                           ;main.c: 679:             forceArc = 0;
  2168  061C  01F9               	clrf	_forceArc
  2169  061D  01FA               	clrf	_forceArc+1
  2170  061E                     l1912:
  2171                           
  2172                           ;main.c: 680:             for (i = 0; i < sizeof (gargoyles) && gotTheTouch && poweredOn
      +                          ; i++) playNote(gargoyles[i][0], gargoyles[i][1]);
  2173  061E  0140               	movlb	0	; select bank0
  2174  061F  01E0               	clrf	_i
  2175  0620  01E1               	clrf	_i+1
  2176  0621  2E4A               	goto	l1918
  2177  0622                     l1914:
  2178  0622  0861               	movf	_i+1,w
  2179  0623  0085               	movwf	5
  2180  0624  0860               	movf	_i,w
  2181  0625  0084               	movwf	4
  2182  0626  3584               	lslf	4,f
  2183  0627  0D85               	rlf	5,f
  2184  0628  3584               	lslf	4,f
  2185  0629  0D85               	rlf	5,f
  2186  062A  3012               	movlw	low (_gargoyles| (0+32768))
  2187  062B  0784               	addwf	4,f
  2188  062C  3081               	movlw	high (_gargoyles| (0+32768))
  2189  062D  3D85               	addwfc	5,f
  2190  062E  3F00               	moviw [0]fsr0
  2191  062F  00A2               	movwf	playNote@note
  2192  0630  3F01               	moviw [1]fsr0
  2193  0631  00A3               	movwf	playNote@note+1
  2194  0632  0861               	movf	_i+1,w
  2195  0633  0085               	movwf	5
  2196  0634  0860               	movf	_i,w
  2197  0635  0084               	movwf	4
  2198  0636  3584               	lslf	4,f
  2199  0637  0D85               	rlf	5,f
  2200  0638  3584               	lslf	4,f
  2201  0639  0D85               	rlf	5,f
  2202  063A  3014               	movlw	low ((_gargoyles+2)| (0+32768))
  2203  063B  0784               	addwf	4,f
  2204  063C  3081               	movlw	high ((_gargoyles+2)| (0+32768))
  2205  063D  3D85               	addwfc	5,f
  2206  063E  3F00               	moviw [0]fsr0
  2207  063F  00A4               	movwf	playNote@duration
  2208  0640  3F01               	moviw [1]fsr0
  2209  0641  00A5               	movwf	playNote@duration+1
  2210  0642  3187  27B8  3185   	fcall	_playNote
  2211  0645                     l1916:
  2212  0645  3001               	movlw	1
  2213  0646  0140               	movlb	0	; select bank0
  2214  0647  07E0               	addwf	_i,f
  2215  0648  3000               	movlw	0
  2216  0649  3DE1               	addwfc	_i+1,f
  2217  064A                     l1918:
  2218  064A  3001               	movlw	1
  2219  064B  0261               	subwf	_i+1,w
  2220  064C  30C0               	movlw	192
  2221  064D  1903               	skipnz
  2222  064E  0260               	subwf	_i,w
  2223  064F  1803               	skipnc
  2224  0650  2E52               	goto	u1801
  2225  0651  2E53               	goto	u1800
  2226  0652                     u1801:
  2227  0652  2E73               	goto	l1928
  2228  0653                     u1800:
  2229  0653                     l1920:
  2230  0653  084E               	movf	_gotTheTouch,w
  2231  0654  044F               	iorwf	_gotTheTouch+1,w
  2232  0655  1903               	btfsc	3,2
  2233  0656  2E58               	goto	u1811
  2234  0657  2E59               	goto	u1810
  2235  0658                     u1811:
  2236  0658  2E73               	goto	l1928
  2237  0659                     u1810:
  2238  0659                     l1922:
  2239  0659  0856               	movf	_poweredOn,w
  2240  065A  0457               	iorwf	_poweredOn+1,w
  2241  065B  1D03               	btfss	3,2
  2242  065C  2E5E               	goto	u1821
  2243  065D  2E5F               	goto	u1820
  2244  065E                     u1821:
  2245  065E  2E22               	goto	l1914
  2246  065F                     u1820:
  2247  065F  2E73               	goto	l1928
  2248  0660                     l1926:
  2249  0660  0863               	movf	_runIndex,w
  2250  0661  00A6               	movwf	??_doTheArc
  2251  0662  01A7               	clrf	??_doTheArc+1
  2252                           
  2253                           ; Switch on 2 bytes has been partitioned into a top level switch of size 1, and 1 sub-sw
      +                          itches
  2254                           ; Switch size 1, requested type "simple"
  2255                           ; Number of cases is 1, Range of values is 0 to 0
  2256                           ; switch strategies available:
  2257                           ; Name         Instructions Cycles
  2258                           ; simple_byte            4     3 (average)
  2259                           ; direct_byte            8     6 (fixed)
  2260                           ; jumptable            260     6 (fixed)
  2261                           ;	Chosen strategy is simple_byte
  2262  0663  0827               	movf	??_doTheArc+1,w
  2263  0664  3A00               	xorlw	0	; case 0
  2264  0665  1903               	skipnz
  2265  0666  2E68               	goto	l2118
  2266  0667  2E73               	goto	l1928
  2267  0668                     l2118:
  2268                           
  2269                           ; Switch size 1, requested type "simple"
  2270                           ; Number of cases is 3, Range of values is 1 to 3
  2271                           ; switch strategies available:
  2272                           ; Name         Instructions Cycles
  2273                           ; simple_byte           10     6 (average)
  2274                           ; direct_byte           15     9 (fixed)
  2275                           ; jumptable            263     9 (fixed)
  2276                           ;	Chosen strategy is simple_byte
  2277  0668  0826               	movf	??_doTheArc,w
  2278  0669  3A01               	xorlw	1	; case 1
  2279  066A  1903               	skipnz
  2280  066B  2DB1               	goto	l217
  2281  066C  3A03               	xorlw	3	; case 2
  2282  066D  1903               	skipnz
  2283  066E  2DC2               	goto	l224
  2284  066F  3A01               	xorlw	1	; case 3
  2285  0670  1903               	skipnz
  2286  0671  2E11               	goto	l230
  2287  0672  2E73               	goto	l1928
  2288  0673                     l1928:
  2289                           
  2290                           ;main.c: 687:     forceArc = 0;
  2291  0673  01F9               	clrf	_forceArc
  2292  0674  01FA               	clrf	_forceArc+1
  2293  0675                     l1930:
  2294                           
  2295                           ;main.c: 689:     LATA1 = 1;
  2296  0675  1498               	bsf	24,1	;volatile
  2297  0676                     l1932:
  2298                           
  2299                           ;main.c: 690:     LATA2 = 1;
  2300  0676  1518               	bsf	24,2	;volatile
  2301  0677                     l1934:
  2302                           
  2303                           ;main.c: 691:     LATC0 = 1;
  2304  0677  141A               	bsf	26,0	;volatile
  2305  0678                     l1936:
  2306                           
  2307                           ;main.c: 692:     LATC1 = 1;
  2308  0678  149A               	bsf	26,1	;volatile
  2309  0679                     l237:
  2310  0679  0008               	return
  2311  067A                     __end_of_doTheArc:
  2312                           
  2313                           	psect	text3
  2314  07B8                     __ptext3:	
  2315 ;; *************** function _playNote *****************
  2316 ;; Defined at:
  2317 ;;		line 705 in file "main.c"
  2318 ;; Parameters:    Size  Location     Type
  2319 ;;  note            2    2[BANK0 ] unsigned int 
  2320 ;;  duration        2    4[BANK0 ] unsigned int 
  2321 ;; Auto vars:     Size  Location     Type
  2322 ;;		None
  2323 ;; Return value:  Size  Location     Type
  2324 ;;                  1    wreg      void 
  2325 ;; Registers used:
  2326 ;;		wreg, fsr0l, fsr0h, status,2, status,0, pclath, cstack
  2327 ;; Tracked objects:
  2328 ;;		On entry : 0/0
  2329 ;;		On exit  : 0/0
  2330 ;;		Unchanged: 0/0
  2331 ;; Data sizes:     COMMON   BANK0   BANK1   BANK2   BANK3   BANK4   BANK5   BANK6
  2332 ;;      Params:         0       4       0       0       0       0       0       0
  2333 ;;      Locals:         0       0       0       0       0       0       0       0
  2334 ;;      Temps:          0       0       0       0       0       0       0       0
  2335 ;;      Totals:         0       4       0       0       0       0       0       0
  2336 ;;Total ram usage:        4 bytes
  2337 ;; Hardware stack levels used: 1
  2338 ;; Hardware stack levels required when called: 3
  2339 ;; This function calls:
  2340 ;;		_blockingDelay
  2341 ;; This function is called by:
  2342 ;;		_doTheArc
  2343 ;;		_goToLPmode
  2344 ;; This function uses a non-reentrant model
  2345 ;;
  2346                           
  2347                           
  2348                           ;psect for function _playNote
  2349  07B8                     _playNote:
  2350  07B8                     l1794:	
  2351                           ;incstack = 0
  2352                           ; Regs used in _playNote: [wreg-fsr0h+status,2+status,0+pclath+cstack]
  2353                           
  2354                           
  2355                           ;main.c: 706:     if (note > 0) {
  2356  07B8  0140               	movlb	0	; select bank0
  2357  07B9  0822               	movf	playNote@note,w
  2358  07BA  0423               	iorwf	playNote@note+1,w
  2359  07BB  1903               	btfsc	3,2
  2360  07BC  2FBE               	goto	u1521
  2361  07BD  2FBF               	goto	u1520
  2362  07BE                     u1521:
  2363  07BE  2FCD               	goto	l1800
  2364  07BF                     u1520:
  2365  07BF                     l1796:
  2366                           
  2367                           ;main.c: 707:         noGate = 0;
  2368  07BF  01E4               	clrf	_noGate
  2369  07C0  01E5               	clrf	_noGate+1
  2370  07C1                     l1798:
  2371                           
  2372                           ;main.c: 708:         PR2 = notes[note];
  2373  07C1  0823               	movf	playNote@note+1,w
  2374  07C2  0085               	movwf	5
  2375  07C3  0822               	movf	playNote@note,w
  2376  07C4  0084               	movwf	4
  2377  07C5  3094               	movlw	low (_notes| (0+32768))
  2378  07C6  0784               	addwf	4,f
  2379  07C7  3087               	movlw	high (_notes| (0+32768))
  2380  07C8  3D85               	addwfc	5,f
  2381  07C9  0800               	movf	0,w	;code access
  2382  07CA  0145               	movlb	5	; select bank5
  2383  07CB  008D               	movwf	13	;volatile
  2384                           
  2385                           ;main.c: 709:     } else {
  2386  07CC  2FD1               	goto	l1802
  2387  07CD                     l1800:
  2388                           
  2389                           ;main.c: 710:         noGate = 1;
  2390  07CD  3001               	movlw	1
  2391  07CE  00E4               	movwf	_noGate
  2392  07CF  3000               	movlw	0
  2393  07D0  00E5               	movwf	_noGate+1
  2394  07D1                     l1802:
  2395                           
  2396                           ;main.c: 712:     blockingDelay(duration);
  2397  07D1  0140               	movlb	0	; select bank0
  2398  07D2  0825               	movf	playNote@duration+1,w
  2399  07D3  00A1               	movwf	blockingDelay@mSecs+1
  2400  07D4  0824               	movf	playNote@duration,w
  2401  07D5  00A0               	movwf	blockingDelay@mSecs
  2402  07D6  3187  27F0  3187   	fcall	_blockingDelay
  2403  07D9                     l248:
  2404  07D9  0008               	return
  2405  07DA                     __end_of_playNote:
  2406                           
  2407                           	psect	text4
  2408  04B2                     __ptext4:	
  2409 ;; *************** function _chargeIndicator *****************
  2410 ;; Defined at:
  2411 ;;		line 747 in file "main.c"
  2412 ;; Parameters:    Size  Location     Type
  2413 ;;		None
  2414 ;; Auto vars:     Size  Location     Type
  2415 ;;		None
  2416 ;; Return value:  Size  Location     Type
  2417 ;;                  1    wreg      void 
  2418 ;; Registers used:
  2419 ;;		wreg, status,2, status,0, pclath, cstack
  2420 ;; Tracked objects:
  2421 ;;		On entry : 0/0
  2422 ;;		On exit  : 0/0
  2423 ;;		Unchanged: 0/0
  2424 ;; Data sizes:     COMMON   BANK0   BANK1   BANK2   BANK3   BANK4   BANK5   BANK6
  2425 ;;      Params:         0       0       0       0       0       0       0       0
  2426 ;;      Locals:         0       4       0       0       0       0       0       0
  2427 ;;      Temps:          0       1       0       0       0       0       0       0
  2428 ;;      Totals:         0       5       0       0       0       0       0       0
  2429 ;;Total ram usage:        5 bytes
  2430 ;; Hardware stack levels used: 1
  2431 ;; Hardware stack levels required when called: 3
  2432 ;; This function calls:
  2433 ;;		___lldiv
  2434 ;;		___lmul
  2435 ;;		_blockingDelay
  2436 ;; This function is called by:
  2437 ;;		_main
  2438 ;; This function uses a non-reentrant model
  2439 ;;
  2440                           
  2441                           
  2442                           ;psect for function _chargeIndicator
  2443  04B2                     _chargeIndicator:
  2444  04B2                     l1818:	
  2445                           ;incstack = 0
  2446                           ; Regs used in _chargeIndicator: [wreg+status,2+status,0+pclath+cstack]
  2447                           
  2448                           
  2449                           ;main.c: 749:     if (!debugging) ADCON0bits.ON = 1;
  2450  04B2  0140               	movlb	0	; select bank0
  2451  04B3  0866               	movf	_debugging,w
  2452  04B4  1D03               	btfss	3,2
  2453  04B5  2CB7               	goto	u1571
  2454  04B6  2CB8               	goto	u1570
  2455  04B7                     u1571:
  2456  04B7  2CBA               	goto	l257
  2457  04B8                     u1570:
  2458  04B8                     l1820:
  2459  04B8  0141               	movlb	1	; select bank1
  2460  04B9  141D               	bsf	29,0	;volatile
  2461  04BA                     l257:
  2462                           
  2463                           ;main.c: 755:     ADCON0bits.GO = 1;
  2464  04BA  0141               	movlb	1	; select bank1
  2465  04BB  149D               	bsf	29,1	;volatile
  2466  04BC                     l1822:
  2467                           
  2468                           ;main.c: 756:     if (!debugging) while (ADCON0bits.GO == 1);
  2469  04BC  0140               	movlb	0	; select bank0
  2470  04BD  0866               	movf	_debugging,w
  2471  04BE  1D03               	btfss	3,2
  2472  04BF  2CC1               	goto	u1581
  2473  04C0  2CC2               	goto	u1580
  2474  04C1                     u1581:
  2475  04C1  2CC7               	goto	l1826
  2476  04C2                     u1580:
  2477  04C2                     l259:
  2478  04C2  0141               	movlb	1	; select bank1
  2479  04C3  189D               	btfsc	29,1	;volatile
  2480  04C4  2CC6               	goto	u1591
  2481  04C5  2CC7               	goto	u1590
  2482  04C6                     u1591:
  2483  04C6  2CC2               	goto	l259
  2484  04C7                     u1590:
  2485  04C7                     l1826:
  2486                           
  2487                           ;main.c: 757:     adcVolts = ADRES;
  2488  04C7  0141               	movlb	1	; select bank1
  2489  04C8  081C               	movf	28,w	;volatile
  2490  04C9  0140               	movlb	0	; select bank0
  2491  04CA  00C9               	movwf	_adcVolts+1
  2492  04CB  0141               	movlb	1	; select bank1
  2493  04CC  081B               	movf	27,w	;volatile
  2494  04CD  0140               	movlb	0	; select bank0
  2495  04CE  00C8               	movwf	_adcVolts
  2496  04CF                     l1828:
  2497                           
  2498                           ;main.c: 758:     if (!debugging) battVolts = ((calibrationMV * 1204) / adcVolts) / 10;
  2499  04CF  0866               	movf	_debugging,w
  2500  04D0  1D03               	btfss	3,2
  2501  04D1  2CD3               	goto	u1601
  2502  04D2  2CD4               	goto	u1600
  2503  04D3                     u1601:
  2504  04D3  2D1A               	goto	l1832
  2505  04D4                     u1600:
  2506  04D4                     l1830:
  2507  04D4  0848               	movf	_adcVolts,w
  2508  04D5  00AC               	movwf	___lldiv@divisor
  2509  04D6  0849               	movf	_adcVolts+1,w
  2510  04D7  00AD               	movwf	___lldiv@divisor+1
  2511  04D8  01AE               	clrf	___lldiv@divisor+2
  2512  04D9  01AF               	clrf	___lldiv@divisor+3
  2513  04DA  0847               	movf	_calibrationMV+3,w
  2514  04DB  00A3               	movwf	___lmul@multiplier+3
  2515  04DC  0846               	movf	_calibrationMV+2,w
  2516  04DD  00A2               	movwf	___lmul@multiplier+2
  2517  04DE  0845               	movf	_calibrationMV+1,w
  2518  04DF  00A1               	movwf	___lmul@multiplier+1
  2519  04E0  0844               	movf	_calibrationMV,w
  2520  04E1  00A0               	movwf	___lmul@multiplier
  2521  04E2  3000               	movlw	0
  2522  04E3  00A7               	movwf	___lmul@multiplicand+3
  2523  04E4  3000               	movlw	0
  2524  04E5  00A6               	movwf	___lmul@multiplicand+2
  2525  04E6  3004               	movlw	4
  2526  04E7  00A5               	movwf	___lmul@multiplicand+1
  2527  04E8  30B4               	movlw	180
  2528  04E9  00A4               	movwf	___lmul@multiplicand
  2529  04EA  3187  2734  3184   	fcall	___lmul
  2530  04ED  0140               	movlb	0	; select bank0
  2531  04EE  0823               	movf	?___lmul+3,w
  2532  04EF  00B3               	movwf	___lldiv@dividend+3
  2533  04F0  0822               	movf	?___lmul+2,w
  2534  04F1  00B2               	movwf	___lldiv@dividend+2
  2535  04F2  0821               	movf	?___lmul+1,w
  2536  04F3  00B1               	movwf	___lldiv@dividend+1
  2537  04F4  0820               	movf	?___lmul,w
  2538  04F5  00B0               	movwf	___lldiv@dividend
  2539  04F6  3186  26D9  3184   	fcall	___lldiv
  2540  04F9  0140               	movlb	0	; select bank0
  2541  04FA  082F               	movf	?___lldiv+3,w
  2542  04FB  00BE               	movwf	_chargeIndicator$1114+3
  2543  04FC  082E               	movf	?___lldiv+2,w
  2544  04FD  00BD               	movwf	_chargeIndicator$1114+2
  2545  04FE  082D               	movf	?___lldiv+1,w
  2546  04FF  00BC               	movwf	_chargeIndicator$1114+1
  2547  0500  082C               	movf	?___lldiv,w
  2548  0501  00BB               	movwf	_chargeIndicator$1114
  2549  0502  3000               	movlw	0
  2550  0503  00AF               	movwf	___lldiv@divisor+3
  2551  0504  3000               	movlw	0
  2552  0505  00AE               	movwf	___lldiv@divisor+2
  2553  0506  3000               	movlw	0
  2554  0507  00AD               	movwf	___lldiv@divisor+1
  2555  0508  300A               	movlw	10
  2556  0509  00AC               	movwf	___lldiv@divisor
  2557  050A  083E               	movf	_chargeIndicator$1114+3,w
  2558  050B  00B3               	movwf	___lldiv@dividend+3
  2559  050C  083D               	movf	_chargeIndicator$1114+2,w
  2560  050D  00B2               	movwf	___lldiv@dividend+2
  2561  050E  083C               	movf	_chargeIndicator$1114+1,w
  2562  050F  00B1               	movwf	___lldiv@dividend+1
  2563  0510  083B               	movf	_chargeIndicator$1114,w
  2564  0511  00B0               	movwf	___lldiv@dividend
  2565  0512  3186  26D9  3184   	fcall	___lldiv
  2566  0515  0140               	movlb	0	; select bank0
  2567  0516  082D               	movf	?___lldiv+1,w
  2568  0517  00CB               	movwf	_battVolts+1
  2569  0518  082C               	movf	?___lldiv,w
  2570  0519  00CA               	movwf	_battVolts
  2571  051A                     l1832:
  2572                           
  2573                           ;main.c: 760:     if (battVolts > 415) {
  2574  051A  3001               	movlw	1
  2575  051B  024B               	subwf	_battVolts+1,w
  2576  051C  30A0               	movlw	160
  2577  051D  1903               	skipnz
  2578  051E  024A               	subwf	_battVolts,w
  2579  051F  1C03               	skipc
  2580  0520  2D22               	goto	u1611
  2581  0521  2D23               	goto	u1610
  2582  0522                     u1611:
  2583  0522  2D32               	goto	l1840
  2584  0523                     u1610:
  2585  0523                     l1834:
  2586                           
  2587                           ;main.c: 763:         LATA1 = 0;
  2588  0523  1098               	bcf	24,1	;volatile
  2589                           
  2590                           ;main.c: 764:         LATA2 = 0;
  2591  0524  1118               	bcf	24,2	;volatile
  2592                           
  2593                           ;main.c: 765:         LATC0 = 0;
  2594  0525  101A               	bcf	26,0	;volatile
  2595                           
  2596                           ;main.c: 766:         LATC1 = 0;
  2597  0526  109A               	bcf	26,1	;volatile
  2598  0527                     l1836:
  2599                           
  2600                           ;main.c: 767:         if (charging) lowPowerMode = 1;
  2601  0527  084C               	movf	_charging,w
  2602  0528  044D               	iorwf	_charging+1,w
  2603  0529  1903               	btfsc	3,2
  2604  052A  2D2C               	goto	u1621
  2605  052B  2D2D               	goto	u1620
  2606  052C                     u1621:
  2607  052C  2D8D               	goto	l1874
  2608  052D                     u1620:
  2609  052D                     l1838:
  2610  052D  3001               	movlw	1
  2611  052E  00D2               	movwf	_lowPowerMode
  2612  052F  3000               	movlw	0
  2613  0530  00D3               	movwf	_lowPowerMode+1
  2614  0531  2D8D               	goto	l1874
  2615  0532                     l1840:
  2616  0532  3001               	movlw	1
  2617  0533  024B               	subwf	_battVolts+1,w
  2618  0534  308F               	movlw	143
  2619  0535  1903               	skipnz
  2620  0536  024A               	subwf	_battVolts,w
  2621  0537  1C03               	skipc
  2622  0538  2D3A               	goto	u1631
  2623  0539  2D3B               	goto	u1630
  2624  053A                     u1631:
  2625  053A  2D4D               	goto	l1850
  2626  053B                     u1630:
  2627  053B                     l1842:
  2628                           
  2629                           ;main.c: 771:         LATA1 = 0;
  2630  053B  1098               	bcf	24,1	;volatile
  2631                           
  2632                           ;main.c: 772:         LATA2 = 0;
  2633  053C  1118               	bcf	24,2	;volatile
  2634                           
  2635                           ;main.c: 773:         LATC0 = 0;
  2636  053D  101A               	bcf	26,0	;volatile
  2637  053E                     l1844:
  2638                           
  2639                           ;main.c: 774:         if (charging) {
  2640  053E  084C               	movf	_charging,w
  2641  053F  044D               	iorwf	_charging+1,w
  2642  0540  1903               	btfsc	3,2
  2643  0541  2D43               	goto	u1641
  2644  0542  2D44               	goto	u1640
  2645  0543                     u1641:
  2646  0543  2D8D               	goto	l1874
  2647  0544                     u1640:
  2648  0544                     l1846:
  2649                           
  2650                           ;main.c: 775:             if (chargeCycle) LATC1 = 0;
  2651  0544  0862               	movf	_chargeCycle,w
  2652  0545  1903               	btfsc	3,2
  2653  0546  2D48               	goto	u1651
  2654  0547  2D49               	goto	u1650
  2655  0548                     u1651:
  2656  0548  2D4B               	goto	l268
  2657  0549                     u1650:
  2658  0549                     l1848:
  2659  0549  109A               	bcf	26,1	;volatile
  2660  054A  2D8D               	goto	l1874
  2661  054B                     l268:	
  2662                           ;main.c: 776:             else LATC1 = 1;
  2663                           
  2664  054B  149A               	bsf	26,1	;volatile
  2665  054C  2D8D               	goto	l1874
  2666  054D                     l1850:
  2667  054D  3001               	movlw	1
  2668  054E  024B               	subwf	_battVolts+1,w
  2669  054F  3081               	movlw	129
  2670  0550  1903               	skipnz
  2671  0551  024A               	subwf	_battVolts,w
  2672  0552  1C03               	skipc
  2673  0553  2D55               	goto	u1661
  2674  0554  2D56               	goto	u1660
  2675  0555                     u1661:
  2676  0555  2D67               	goto	l1860
  2677  0556                     u1660:
  2678  0556                     l1852:
  2679                           
  2680                           ;main.c: 781:         LATA1 = 0;
  2681  0556  1098               	bcf	24,1	;volatile
  2682                           
  2683                           ;main.c: 782:         LATA2 = 0;
  2684  0557  1118               	bcf	24,2	;volatile
  2685  0558                     l1854:
  2686                           
  2687                           ;main.c: 783:         if (charging) {
  2688  0558  084C               	movf	_charging,w
  2689  0559  044D               	iorwf	_charging+1,w
  2690  055A  1903               	btfsc	3,2
  2691  055B  2D5D               	goto	u1671
  2692  055C  2D5E               	goto	u1670
  2693  055D                     u1671:
  2694  055D  2D4B               	goto	l268
  2695  055E                     u1670:
  2696  055E                     l1856:
  2697                           
  2698                           ;main.c: 784:             if (chargeCycle) LATC0 = 0;
  2699  055E  0862               	movf	_chargeCycle,w
  2700  055F  1903               	btfsc	3,2
  2701  0560  2D62               	goto	u1681
  2702  0561  2D63               	goto	u1680
  2703  0562                     u1681:
  2704  0562  2D65               	goto	l273
  2705  0563                     u1680:
  2706  0563                     l1858:
  2707  0563  101A               	bcf	26,0	;volatile
  2708  0564  2D4B               	goto	l268
  2709  0565                     l273:	
  2710                           ;main.c: 785:             else LATC0 = 1;
  2711                           
  2712  0565  141A               	bsf	26,0	;volatile
  2713  0566  2D4B               	goto	l268
  2714  0567                     l1860:
  2715  0567  3001               	movlw	1
  2716  0568  024B               	subwf	_battVolts+1,w
  2717  0569  3078               	movlw	120
  2718  056A  1903               	skipnz
  2719  056B  024A               	subwf	_battVolts,w
  2720  056C  1C03               	skipc
  2721  056D  2D6F               	goto	u1691
  2722  056E  2D70               	goto	u1690
  2723  056F                     u1691:
  2724  056F  2D82               	goto	l1870
  2725  0570                     u1690:
  2726  0570                     l1862:
  2727                           
  2728                           ;main.c: 791:         LATA1 = 0;
  2729  0570  1098               	bcf	24,1	;volatile
  2730  0571                     l1864:
  2731                           
  2732                           ;main.c: 792:         if (charging) {
  2733  0571  084C               	movf	_charging,w
  2734  0572  044D               	iorwf	_charging+1,w
  2735  0573  1903               	btfsc	3,2
  2736  0574  2D76               	goto	u1701
  2737  0575  2D77               	goto	u1700
  2738  0576                     u1701:
  2739  0576  2D7F               	goto	l277
  2740  0577                     u1700:
  2741  0577                     l1866:
  2742                           
  2743                           ;main.c: 793:             if (chargeCycle) LATA2 = 0;
  2744  0577  0862               	movf	_chargeCycle,w
  2745  0578  1903               	btfsc	3,2
  2746  0579  2D7B               	goto	u1711
  2747  057A  2D7C               	goto	u1710
  2748  057B                     u1711:
  2749  057B  2D7E               	goto	l278
  2750  057C                     u1710:
  2751  057C                     l1868:
  2752  057C  1118               	bcf	24,2	;volatile
  2753  057D  2D7F               	goto	l277
  2754  057E                     l278:	
  2755                           ;main.c: 794:             else LATA2 = 1;
  2756                           
  2757  057E  1518               	bsf	24,2	;volatile
  2758  057F                     l277:	
  2759                           ;main.c: 795:         }
  2760                           
  2761                           
  2762                           ;main.c: 796:         LATC0 = 1;
  2763  057F  141A               	bsf	26,0	;volatile
  2764                           
  2765                           ;main.c: 797:         LATC1 = 1;
  2766  0580  149A               	bsf	26,1	;volatile
  2767                           
  2768                           ;main.c: 798:     } else {
  2769  0581  2D8D               	goto	l1874
  2770  0582                     l1870:
  2771                           
  2772                           ;main.c: 800:         if (chargeCycle) LATA1 = 0;
  2773  0582  0862               	movf	_chargeCycle,w
  2774  0583  1903               	btfsc	3,2
  2775  0584  2D86               	goto	u1721
  2776  0585  2D87               	goto	u1720
  2777  0586                     u1721:
  2778  0586  2D89               	goto	l281
  2779  0587                     u1720:
  2780  0587                     l1872:
  2781  0587  1098               	bcf	24,1	;volatile
  2782  0588  2D8A               	goto	l282
  2783  0589                     l281:	
  2784                           ;main.c: 801:         else LATA1 = 1;
  2785                           
  2786  0589  1498               	bsf	24,1	;volatile
  2787  058A                     l282:
  2788                           
  2789                           ;main.c: 802:         LATA2 = 1;
  2790  058A  1518               	bsf	24,2	;volatile
  2791                           
  2792                           ;main.c: 803:         LATC0 = 1;
  2793  058B  141A               	bsf	26,0	;volatile
  2794                           
  2795                           ;main.c: 804:         LATC1 = 1;
  2796  058C  149A               	bsf	26,1	;volatile
  2797  058D                     l1874:
  2798                           
  2799                           ;main.c: 806:     if (charging) {
  2800  058D  084C               	movf	_charging,w
  2801  058E  044D               	iorwf	_charging+1,w
  2802  058F  1903               	btfsc	3,2
  2803  0590  2D92               	goto	u1731
  2804  0591  2D93               	goto	u1730
  2805  0592                     u1731:
  2806  0592  2D9E               	goto	l284
  2807  0593                     u1730:
  2808  0593                     l1876:
  2809                           
  2810                           ;main.c: 807:         chargeCycle ^= 1;
  2811  0593  3001               	movlw	1
  2812  0594  00BA               	movwf	??_chargeIndicator
  2813  0595  083A               	movf	??_chargeIndicator,w
  2814  0596  06E2               	xorwf	_chargeCycle,f
  2815  0597                     l1878:
  2816                           
  2817                           ;main.c: 809:         blockingDelay(500);
  2818  0597  30F4               	movlw	244
  2819  0598  00A0               	movwf	blockingDelay@mSecs
  2820  0599  3001               	movlw	1
  2821  059A  00A1               	movwf	blockingDelay@mSecs+1
  2822  059B  3187  27F0  3184   	fcall	_blockingDelay
  2823  059E                     l284:
  2824  059E  0008               	return
  2825  059F                     __end_of_chargeIndicator:
  2826                           
  2827                           	psect	text5
  2828  07F0                     __ptext5:	
  2829 ;; *************** function _blockingDelay *****************
  2830 ;; Defined at:
  2831 ;;		line 698 in file "main.c"
  2832 ;; Parameters:    Size  Location     Type
  2833 ;;  mSecs           2    0[BANK0 ] unsigned int 
  2834 ;; Auto vars:     Size  Location     Type
  2835 ;;		None
  2836 ;; Return value:  Size  Location     Type
  2837 ;;                  1    wreg      void 
  2838 ;; Registers used:
  2839 ;;		wreg, status,2, status,0
  2840 ;; Tracked objects:
  2841 ;;		On entry : 0/0
  2842 ;;		On exit  : 0/0
  2843 ;;		Unchanged: 0/0
  2844 ;; Data sizes:     COMMON   BANK0   BANK1   BANK2   BANK3   BANK4   BANK5   BANK6
  2845 ;;      Params:         0       2       0       0       0       0       0       0
  2846 ;;      Locals:         0       0       0       0       0       0       0       0
  2847 ;;      Temps:          0       0       0       0       0       0       0       0
  2848 ;;      Totals:         0       2       0       0       0       0       0       0
  2849 ;;Total ram usage:        2 bytes
  2850 ;; Hardware stack levels used: 1
  2851 ;; Hardware stack levels required when called: 2
  2852 ;; This function calls:
  2853 ;;		Nothing
  2854 ;; This function is called by:
  2855 ;;		_main
  2856 ;;		_doTheArc
  2857 ;;		_playNote
  2858 ;;		_chargeIndicator
  2859 ;; This function uses a non-reentrant model
  2860 ;;
  2861                           
  2862                           
  2863                           ;psect for function _blockingDelay
  2864  07F0                     _blockingDelay:
  2865  07F0                     l1790:	
  2866                           ;incstack = 0
  2867                           ; Regs used in _blockingDelay: [wreg+status,2+status,0]
  2868                           
  2869                           
  2870                           ;main.c: 699:     genericDelay = mSecs;
  2871  07F0  0140               	movlb	0	; select bank0
  2872  07F1  0821               	movf	blockingDelay@mSecs+1,w
  2873  07F2  00F8               	movwf	_genericDelay+1
  2874  07F3  0820               	movf	blockingDelay@mSecs,w
  2875  07F4  00F7               	movwf	_genericDelay
  2876  07F5                     l1792:	
  2877                           ;main.c: 700:     while (genericDelay > 0);
  2878                           
  2879  07F5  0877               	movf	_genericDelay,w
  2880  07F6  0478               	iorwf	_genericDelay+1,w
  2881  07F7  1D03               	btfss	3,2
  2882  07F8  2FFA               	goto	u1511
  2883  07F9  2FFB               	goto	u1510
  2884  07FA                     u1511:
  2885  07FA  2FF5               	goto	l1792
  2886  07FB                     u1510:
  2887  07FB                     l243:
  2888  07FB  0008               	return
  2889  07FC                     __end_of_blockingDelay:
  2890                           
  2891                           	psect	text6
  2892  0734                     __ptext6:	
  2893 ;; *************** function ___lmul *****************
  2894 ;; Defined at:
  2895 ;;		line 15 in file "C:\Program Files\Microchip\xc8\v2.32\pic\sources\c99\common\Umul32.c"
  2896 ;; Parameters:    Size  Location     Type
  2897 ;;  multiplier      4    0[BANK0 ] unsigned long 
  2898 ;;  multiplicand    4    4[BANK0 ] unsigned long 
  2899 ;; Auto vars:     Size  Location     Type
  2900 ;;  product         4    8[BANK0 ] unsigned long 
  2901 ;; Return value:  Size  Location     Type
  2902 ;;                  4    0[BANK0 ] unsigned long 
  2903 ;; Registers used:
  2904 ;;		wreg, status,2, status,0
  2905 ;; Tracked objects:
  2906 ;;		On entry : 0/0
  2907 ;;		On exit  : 0/0
  2908 ;;		Unchanged: 0/0
  2909 ;; Data sizes:     COMMON   BANK0   BANK1   BANK2   BANK3   BANK4   BANK5   BANK6
  2910 ;;      Params:         0       8       0       0       0       0       0       0
  2911 ;;      Locals:         0       4       0       0       0       0       0       0
  2912 ;;      Temps:          0       0       0       0       0       0       0       0
  2913 ;;      Totals:         0      12       0       0       0       0       0       0
  2914 ;;Total ram usage:       12 bytes
  2915 ;; Hardware stack levels used: 1
  2916 ;; Hardware stack levels required when called: 2
  2917 ;; This function calls:
  2918 ;;		Nothing
  2919 ;; This function is called by:
  2920 ;;		_chargeIndicator
  2921 ;; This function uses a non-reentrant model
  2922 ;;
  2923                           
  2924                           
  2925                           ;psect for function ___lmul
  2926  0734                     ___lmul:
  2927  0734                     l1804:	
  2928                           ;incstack = 0
  2929                           ; Regs used in ___lmul: [wreg+status,2+status,0]
  2930                           
  2931  0734  3000               	movlw	0
  2932  0735  0140               	movlb	0	; select bank0
  2933  0736  00AB               	movwf	___lmul@product+3
  2934  0737  3000               	movlw	0
  2935  0738  00AA               	movwf	___lmul@product+2
  2936  0739  3000               	movlw	0
  2937  073A  00A9               	movwf	___lmul@product+1
  2938  073B  3000               	movlw	0
  2939  073C  00A8               	movwf	___lmul@product
  2940  073D                     l1806:
  2941  073D  1C20               	btfss	___lmul@multiplier,0
  2942  073E  2F40               	goto	u1531
  2943  073F  2F41               	goto	u1530
  2944  0740                     u1531:
  2945  0740  2F49               	goto	l1810
  2946  0741                     u1530:
  2947  0741                     l1808:
  2948  0741  0824               	movf	___lmul@multiplicand,w
  2949  0742  07A8               	addwf	___lmul@product,f
  2950  0743  0825               	movf	___lmul@multiplicand+1,w
  2951  0744  3DA9               	addwfc	___lmul@product+1,f
  2952  0745  0826               	movf	___lmul@multiplicand+2,w
  2953  0746  3DAA               	addwfc	___lmul@product+2,f
  2954  0747  0827               	movf	___lmul@multiplicand+3,w
  2955  0748  3DAB               	addwfc	___lmul@product+3,f
  2956  0749                     l1810:
  2957  0749  3001               	movlw	1
  2958  074A                     u1545:
  2959  074A  35A4               	lslf	___lmul@multiplicand,f
  2960  074B  0DA5               	rlf	___lmul@multiplicand+1,f
  2961  074C  0DA6               	rlf	___lmul@multiplicand+2,f
  2962  074D  0DA7               	rlf	___lmul@multiplicand+3,f
  2963  074E  0B89               	decfsz	9,f
  2964  074F  2F4A               	goto	u1545
  2965  0750                     l1812:
  2966  0750  3001               	movlw	1
  2967  0751                     u1555:
  2968  0751  36A3               	lsrf	___lmul@multiplier+3,f
  2969  0752  0CA2               	rrf	___lmul@multiplier+2,f
  2970  0753  0CA1               	rrf	___lmul@multiplier+1,f
  2971  0754  0CA0               	rrf	___lmul@multiplier,f
  2972  0755  0B89               	decfsz	9,f
  2973  0756  2F51               	goto	u1555
  2974  0757  0823               	movf	___lmul@multiplier+3,w
  2975  0758  0422               	iorwf	___lmul@multiplier+2,w
  2976  0759  0421               	iorwf	___lmul@multiplier+1,w
  2977  075A  0420               	iorwf	___lmul@multiplier,w
  2978  075B  1D03               	skipz
  2979  075C  2F5E               	goto	u1561
  2980  075D  2F5F               	goto	u1560
  2981  075E                     u1561:
  2982  075E  2F3D               	goto	l1806
  2983  075F                     u1560:
  2984  075F                     l1814:
  2985  075F  082B               	movf	___lmul@product+3,w
  2986  0760  00A3               	movwf	?___lmul+3
  2987  0761  082A               	movf	___lmul@product+2,w
  2988  0762  00A2               	movwf	?___lmul+2
  2989  0763  0829               	movf	___lmul@product+1,w
  2990  0764  00A1               	movwf	?___lmul+1
  2991  0765  0828               	movf	___lmul@product,w
  2992  0766  00A0               	movwf	?___lmul
  2993  0767                     l386:
  2994  0767  0008               	return
  2995  0768                     __end_of___lmul:
  2996                           
  2997                           	psect	text7
  2998  06D9                     __ptext7:	
  2999 ;; *************** function ___lldiv *****************
  3000 ;; Defined at:
  3001 ;;		line 5 in file "C:\Program Files\Microchip\xc8\v2.32\pic\sources\c99\common\__lldiv.c"
  3002 ;; Parameters:    Size  Location     Type
  3003 ;;  divisor         4   12[BANK0 ] unsigned long 
  3004 ;;  dividend        4   16[BANK0 ] unsigned long 
  3005 ;; Auto vars:     Size  Location     Type
  3006 ;;  quotient        4   21[BANK0 ] unsigned long 
  3007 ;;  counter         1   25[BANK0 ] unsigned char 
  3008 ;; Return value:  Size  Location     Type
  3009 ;;                  4   12[BANK0 ] unsigned long 
  3010 ;; Registers used:
  3011 ;;		wreg, status,2, status,0
  3012 ;; Tracked objects:
  3013 ;;		On entry : 0/0
  3014 ;;		On exit  : 0/0
  3015 ;;		Unchanged: 0/0
  3016 ;; Data sizes:     COMMON   BANK0   BANK1   BANK2   BANK3   BANK4   BANK5   BANK6
  3017 ;;      Params:         0       8       0       0       0       0       0       0
  3018 ;;      Locals:         0       5       0       0       0       0       0       0
  3019 ;;      Temps:          0       1       0       0       0       0       0       0
  3020 ;;      Totals:         0      14       0       0       0       0       0       0
  3021 ;;Total ram usage:       14 bytes
  3022 ;; Hardware stack levels used: 1
  3023 ;; Hardware stack levels required when called: 2
  3024 ;; This function calls:
  3025 ;;		Nothing
  3026 ;; This function is called by:
  3027 ;;		_chargeIndicator
  3028 ;; This function uses a non-reentrant model
  3029 ;;
  3030                           
  3031                           
  3032                           ;psect for function ___lldiv
  3033  06D9                     ___lldiv:
  3034  06D9                     l1338:	
  3035                           ;incstack = 0
  3036                           ; Regs used in ___lldiv: [wreg+status,2+status,0]
  3037                           
  3038  06D9  3000               	movlw	0
  3039  06DA  0140               	movlb	0	; select bank0
  3040  06DB  00B8               	movwf	___lldiv@quotient+3
  3041  06DC  3000               	movlw	0
  3042  06DD  00B7               	movwf	___lldiv@quotient+2
  3043  06DE  3000               	movlw	0
  3044  06DF  00B6               	movwf	___lldiv@quotient+1
  3045  06E0  3000               	movlw	0
  3046  06E1  00B5               	movwf	___lldiv@quotient
  3047  06E2  082F               	movf	___lldiv@divisor+3,w
  3048  06E3  042E               	iorwf	___lldiv@divisor+2,w
  3049  06E4  042D               	iorwf	___lldiv@divisor+1,w
  3050  06E5  042C               	iorwf	___lldiv@divisor,w
  3051  06E6  1903               	skipnz
  3052  06E7  2EE9               	goto	u821
  3053  06E8  2EEA               	goto	u820
  3054  06E9                     u821:
  3055  06E9  2F2B               	goto	l1358
  3056  06EA                     u820:
  3057  06EA                     l1340:
  3058  06EA  01B9               	clrf	___lldiv@counter
  3059  06EB  0AB9               	incf	___lldiv@counter,f
  3060  06EC  2EF8               	goto	l1344
  3061  06ED                     l1342:
  3062  06ED  3001               	movlw	1
  3063  06EE                     u835:
  3064  06EE  35AC               	lslf	___lldiv@divisor,f
  3065  06EF  0DAD               	rlf	___lldiv@divisor+1,f
  3066  06F0  0DAE               	rlf	___lldiv@divisor+2,f
  3067  06F1  0DAF               	rlf	___lldiv@divisor+3,f
  3068  06F2  0B89               	decfsz	9,f
  3069  06F3  2EEE               	goto	u835
  3070  06F4  3001               	movlw	1
  3071  06F5  00B4               	movwf	??___lldiv
  3072  06F6  0834               	movf	??___lldiv,w
  3073  06F7  07B9               	addwf	___lldiv@counter,f
  3074  06F8                     l1344:
  3075  06F8  1FAF               	btfss	___lldiv@divisor+3,7
  3076  06F9  2EFB               	goto	u841
  3077  06FA  2EFC               	goto	u840
  3078  06FB                     u841:
  3079  06FB  2EED               	goto	l1342
  3080  06FC                     u840:
  3081  06FC                     l1346:
  3082  06FC  3001               	movlw	1
  3083  06FD                     u855:
  3084  06FD  35B5               	lslf	___lldiv@quotient,f
  3085  06FE  0DB6               	rlf	___lldiv@quotient+1,f
  3086  06FF  0DB7               	rlf	___lldiv@quotient+2,f
  3087  0700  0DB8               	rlf	___lldiv@quotient+3,f
  3088  0701  0B89               	decfsz	9,f
  3089  0702  2EFD               	goto	u855
  3090  0703                     l1348:
  3091  0703  082F               	movf	___lldiv@divisor+3,w
  3092  0704  0233               	subwf	___lldiv@dividend+3,w
  3093  0705  1D03               	skipz
  3094  0706  2F11               	goto	u865
  3095  0707  082E               	movf	___lldiv@divisor+2,w
  3096  0708  0232               	subwf	___lldiv@dividend+2,w
  3097  0709  1D03               	skipz
  3098  070A  2F11               	goto	u865
  3099  070B  082D               	movf	___lldiv@divisor+1,w
  3100  070C  0231               	subwf	___lldiv@dividend+1,w
  3101  070D  1D03               	skipz
  3102  070E  2F11               	goto	u865
  3103  070F  082C               	movf	___lldiv@divisor,w
  3104  0710  0230               	subwf	___lldiv@dividend,w
  3105  0711                     u865:
  3106  0711  1C03               	skipc
  3107  0712  2F14               	goto	u861
  3108  0713  2F15               	goto	u860
  3109  0714                     u861:
  3110  0714  2F1E               	goto	l1354
  3111  0715                     u860:
  3112  0715                     l1350:
  3113  0715  082C               	movf	___lldiv@divisor,w
  3114  0716  02B0               	subwf	___lldiv@dividend,f
  3115  0717  082D               	movf	___lldiv@divisor+1,w
  3116  0718  3BB1               	subwfb	___lldiv@dividend+1,f
  3117  0719  082E               	movf	___lldiv@divisor+2,w
  3118  071A  3BB2               	subwfb	___lldiv@dividend+2,f
  3119  071B  082F               	movf	___lldiv@divisor+3,w
  3120  071C  3BB3               	subwfb	___lldiv@dividend+3,f
  3121  071D                     l1352:
  3122  071D  1435               	bsf	___lldiv@quotient,0
  3123  071E                     l1354:
  3124  071E  3001               	movlw	1
  3125  071F                     u875:
  3126  071F  36AF               	lsrf	___lldiv@divisor+3,f
  3127  0720  0CAE               	rrf	___lldiv@divisor+2,f
  3128  0721  0CAD               	rrf	___lldiv@divisor+1,f
  3129  0722  0CAC               	rrf	___lldiv@divisor,f
  3130  0723  0B89               	decfsz	9,f
  3131  0724  2F1F               	goto	u875
  3132  0725                     l1356:
  3133  0725  3001               	movlw	1
  3134  0726  02B9               	subwf	___lldiv@counter,f
  3135  0727  1D03               	btfss	3,2
  3136  0728  2F2A               	goto	u881
  3137  0729  2F2B               	goto	u880
  3138  072A                     u881:
  3139  072A  2EFC               	goto	l1346
  3140  072B                     u880:
  3141  072B                     l1358:
  3142  072B  0838               	movf	___lldiv@quotient+3,w
  3143  072C  00AF               	movwf	?___lldiv+3
  3144  072D  0837               	movf	___lldiv@quotient+2,w
  3145  072E  00AE               	movwf	?___lldiv+2
  3146  072F  0836               	movf	___lldiv@quotient+1,w
  3147  0730  00AD               	movwf	?___lldiv+1
  3148  0731  0835               	movf	___lldiv@quotient,w
  3149  0732  00AC               	movwf	?___lldiv
  3150  0733                     l408:
  3151  0733  0008               	return
  3152  0734                     __end_of___lldiv:
  3153                           
  3154                           	psect	text8
  3155  0768                     __ptext8:	
  3156 ;; *************** function _ButtonDebounceInit *****************
  3157 ;; Defined at:
  3158 ;;		line 56 in file "source/button_debounce.c"
  3159 ;; Parameters:    Size  Location     Type
  3160 ;;  port            1    wreg     PTR struct .
  3161 ;;		 -> aPorts(12), 
  3162 ;;  pulledUpButt    1    0[BANK0 ] unsigned char 
  3163 ;; Auto vars:     Size  Location     Type
  3164 ;;  port            1    3[BANK0 ] PTR struct .
  3165 ;;		 -> aPorts(12), 
  3166 ;;  i               1    2[BANK0 ] unsigned char 
  3167 ;; Return value:  Size  Location     Type
  3168 ;;                  1    wreg      void 
  3169 ;; Registers used:
  3170 ;;		wreg, fsr1l, fsr1h, status,2, status,0
  3171 ;; Tracked objects:
  3172 ;;		On entry : 0/0
  3173 ;;		On exit  : 0/0
  3174 ;;		Unchanged: 0/0
  3175 ;; Data sizes:     COMMON   BANK0   BANK1   BANK2   BANK3   BANK4   BANK5   BANK6
  3176 ;;      Params:         0       1       0       0       0       0       0       0
  3177 ;;      Locals:         0       2       0       0       0       0       0       0
  3178 ;;      Temps:          0       1       0       0       0       0       0       0
  3179 ;;      Totals:         0       4       0       0       0       0       0       0
  3180 ;;Total ram usage:        4 bytes
  3181 ;; Hardware stack levels used: 1
  3182 ;; Hardware stack levels required when called: 2
  3183 ;; This function calls:
  3184 ;;		Nothing
  3185 ;; This function is called by:
  3186 ;;		_main
  3187 ;; This function uses a non-reentrant model
  3188 ;;
  3189                           
  3190                           
  3191                           ;psect for function _ButtonDebounceInit
  3192  0768                     _ButtonDebounceInit:
  3193                           
  3194                           ;incstack = 0
  3195                           ; Regs used in _ButtonDebounceInit: [wreg+fsr1l+fsr1h+status,2+status,0]
  3196                           ;ButtonDebounceInit@port stored from wreg
  3197  0768  0140               	movlb	0	; select bank0
  3198  0769  00A3               	movwf	ButtonDebounceInit@port
  3199  076A                     l1362:
  3200                           
  3201                           ;source/button_debounce.c: 56: ButtonDebounceInit(Debouncer *port, uint8_t pulledUpButto
      +                          ns);source/button_debounce.c: 57: {;source/button_debounce.c: 58:     uint8_t i;;source/
      +                          button_debounce.c: 60:     port->index = 0;
  3202  076A  0823               	movf	ButtonDebounceInit@port,w
  3203  076B  3E08               	addlw	8
  3204  076C  0086               	movwf	6
  3205  076D  0187               	clrf	7
  3206  076E  0181               	clrf	1
  3207                           
  3208                           ;source/button_debounce.c: 61:     port->debouncedState = 0x00;
  3209  076F  0823               	movf	ButtonDebounceInit@port,w
  3210  0770  3E09               	addlw	9
  3211  0771  0086               	movwf	6
  3212  0772  0187               	clrf	7
  3213  0773  0181               	clrf	1
  3214                           
  3215                           ;source/button_debounce.c: 62:     port->changed = 0x00;
  3216  0774  0823               	movf	ButtonDebounceInit@port,w
  3217  0775  3E0A               	addlw	10
  3218  0776  0086               	movwf	6
  3219  0777  0187               	clrf	7
  3220  0778  0181               	clrf	1
  3221                           
  3222                           ;source/button_debounce.c: 63:     port->pullType = pulledUpButtons;
  3223  0779  0820               	movf	ButtonDebounceInit@pulledUpButtons,w
  3224  077A  00A1               	movwf	??_ButtonDebounceInit
  3225  077B  0823               	movf	ButtonDebounceInit@port,w
  3226  077C  3E0B               	addlw	11
  3227  077D  0086               	movwf	6
  3228  077E  0187               	clrf	7
  3229  077F  0821               	movf	??_ButtonDebounceInit,w
  3230  0780  0081               	movwf	1
  3231  0781                     l1364:
  3232                           
  3233                           ;source/button_debounce.c: 66:     for(i = 0; i < 8; i++)
  3234  0781  01A2               	clrf	ButtonDebounceInit@i
  3235  0782                     l1370:
  3236                           
  3237                           ;source/button_debounce.c: 67:     {;source/button_debounce.c: 68:         port->state[i
      +                          ] = 0x00;
  3238  0782  0822               	movf	ButtonDebounceInit@i,w
  3239  0783  0723               	addwf	ButtonDebounceInit@port,w
  3240  0784  00A1               	movwf	??_ButtonDebounceInit
  3241  0785  0821               	movf	??_ButtonDebounceInit,w
  3242  0786  0086               	movwf	6
  3243  0787  0187               	clrf	7
  3244  0788  0181               	clrf	1
  3245  0789                     l1372:
  3246                           
  3247                           ;source/button_debounce.c: 69:     }
  3248  0789  3001               	movlw	1
  3249  078A  00A1               	movwf	??_ButtonDebounceInit
  3250  078B  0821               	movf	??_ButtonDebounceInit,w
  3251  078C  07A2               	addwf	ButtonDebounceInit@i,f
  3252  078D                     l1374:
  3253  078D  3008               	movlw	8
  3254  078E  0222               	subwf	ButtonDebounceInit@i,w
  3255  078F  1C03               	skipc
  3256  0790  2F92               	goto	u891
  3257  0791  2F93               	goto	u890
  3258  0792                     u891:
  3259  0792  2F82               	goto	l1370
  3260  0793                     u890:
  3261  0793                     l353:
  3262  0793  0008               	return
  3263  0794                     __end_of_ButtonDebounceInit:
  3264                           
  3265                           	psect	intentry
  3266  0004                     __pintentry:	
  3267 ;; *************** function _isr *****************
  3268 ;; Defined at:
  3269 ;;		line 538 in file "main.c"
  3270 ;; Parameters:    Size  Location     Type
  3271 ;;		None
  3272 ;; Auto vars:     Size  Location     Type
  3273 ;;		None
  3274 ;; Return value:  Size  Location     Type
  3275 ;;                  1    wreg      void 
  3276 ;; Registers used:
  3277 ;;		wreg, fsr1l, fsr1h, status,2, status,0, pclath, cstack
  3278 ;; Tracked objects:
  3279 ;;		On entry : 0/0
  3280 ;;		On exit  : 0/0
  3281 ;;		Unchanged: 0/0
  3282 ;; Data sizes:     COMMON   BANK0   BANK1   BANK2   BANK3   BANK4   BANK5   BANK6
  3283 ;;      Params:         0       0       0       0       0       0       0       0
  3284 ;;      Locals:         0       0       0       0       0       0       0       0
  3285 ;;      Temps:          1       0       0       0       0       0       0       0
  3286 ;;      Totals:         1       0       0       0       0       0       0       0
  3287 ;;Total ram usage:        1 bytes
  3288 ;; Hardware stack levels used: 1
  3289 ;; Hardware stack levels required when called: 1
  3290 ;; This function calls:
  3291 ;;		_ButtonCurrent
  3292 ;;		_ButtonProcess
  3293 ;; This function is called by:
  3294 ;;		Interrupt level 1
  3295 ;; This function uses a non-reentrant model
  3296 ;;
  3297                           
  3298  0004                     _isr:
  3299                           
  3300                           ;incstack = 0
  3301  0004  147E               	bsf	int$flags,0	;set compiler interrupt flag (level 1)
  3302                           
  3303                           ; Regs used in _isr: [wreg+fsr1l+fsr1h+status,2+status,0+pclath+cstack]
  3304  0005  3180               	pagesel	$
  3305  0006                     i1l1682:
  3306                           
  3307                           ;main.c: 541:     if (PIR0bits.IOCIF) {
  3308  0006  014E               	movlb	14	; select bank14
  3309  0007  1E0C               	btfss	12,4	;volatile
  3310  0008  280A               	goto	u125_21
  3311  0009  280B               	goto	u125_20
  3312  000A                     u125_21:
  3313  000A  2836               	goto	i1l1706
  3314  000B                     u125_20:
  3315  000B                     i1l1684:
  3316                           
  3317                           ;main.c: 565:         if (IOCAF0) {
  3318  000B  017E               	movlb	62	; select bank62
  3319  000C  1C3F               	btfss	63,0	;volatile
  3320  000D  280F               	goto	u126_21
  3321  000E  2810               	goto	u126_20
  3322  000F                     u126_21:
  3323  000F  2836               	goto	i1l1706
  3324  0010                     u126_20:
  3325  0010                     i1l1686:
  3326                           
  3327                           ;main.c: 566:             IOCAF0 = 0;
  3328  0010  103F               	bcf	63,0	;volatile
  3329                           
  3330                           ;main.c: 568:             if (!PORTAbits.RA0 && !PORTAbits.RA5) {
  3331  0011  0140               	movlb	0	; select bank0
  3332  0012  180C               	btfsc	12,0	;volatile
  3333  0013  2815               	goto	u127_21
  3334  0014  2816               	goto	u127_20
  3335  0015                     u127_21:
  3336  0015  2824               	goto	i1l1696
  3337  0016                     u127_20:
  3338  0016                     i1l1688:
  3339  0016  1A8C               	btfsc	12,5	;volatile
  3340  0017  2819               	goto	u128_21
  3341  0018  281A               	goto	u128_20
  3342  0019                     u128_21:
  3343  0019  2824               	goto	i1l1696
  3344  001A                     u128_20:
  3345  001A                     i1l1690:
  3346                           
  3347                           ;main.c: 569:                 lowPowerMode = 0;
  3348  001A  01D2               	clrf	_lowPowerMode
  3349  001B  01D3               	clrf	_lowPowerMode+1
  3350  001C                     i1l1692:
  3351                           
  3352                           ;main.c: 570:                 poweredOn = 1;
  3353  001C  3001               	movlw	1
  3354  001D  00D6               	movwf	_poweredOn
  3355  001E  3000               	movlw	0
  3356  001F  00D7               	movwf	_poweredOn+1
  3357  0020                     i1l1694:
  3358                           
  3359                           ;main.c: 571:                 showCharge = 1;
  3360  0020  3001               	movlw	1
  3361  0021  00D4               	movwf	_showCharge
  3362  0022  3000               	movlw	0
  3363  0023  00D5               	movwf	_showCharge+1
  3364  0024                     i1l1696:
  3365                           
  3366                           ;main.c: 574:             if (PORTAbits.RA0 && !PORTAbits.RA5) {
  3367  0024  1C0C               	btfss	12,0	;volatile
  3368  0025  2827               	goto	u129_21
  3369  0026  2828               	goto	u129_20
  3370  0027                     u129_21:
  3371  0027  2836               	goto	i1l1706
  3372  0028                     u129_20:
  3373  0028                     i1l1698:
  3374  0028  1A8C               	btfsc	12,5	;volatile
  3375  0029  282B               	goto	u130_21
  3376  002A  282C               	goto	u130_20
  3377  002B                     u130_21:
  3378  002B  2836               	goto	i1l1706
  3379  002C                     u130_20:
  3380  002C                     i1l1700:
  3381                           
  3382                           ;main.c: 576:                 showCharge = 0;
  3383  002C  01D4               	clrf	_showCharge
  3384  002D  01D5               	clrf	_showCharge+1
  3385                           
  3386                           ;main.c: 577:                 poweredOn = 0;
  3387  002E  01D6               	clrf	_poweredOn
  3388  002F  01D7               	clrf	_poweredOn+1
  3389  0030                     i1l1702:
  3390                           
  3391                           ;main.c: 578:                 lowPowerMode = 1;
  3392  0030  3001               	movlw	1
  3393  0031  00D2               	movwf	_lowPowerMode
  3394  0032  3000               	movlw	0
  3395  0033  00D3               	movwf	_lowPowerMode+1
  3396  0034                     i1l1704:
  3397                           
  3398                           ;main.c: 579:                 forceArc = 0;
  3399  0034  01F9               	clrf	_forceArc
  3400  0035  01FA               	clrf	_forceArc+1
  3401  0036                     i1l1706:
  3402                           
  3403                           ;main.c: 589:     if (PIR1bits.TMR2IF) {
  3404  0036  014E               	movlb	14	; select bank14
  3405  0037  1F0D               	btfss	13,6	;volatile
  3406  0038  283A               	goto	u131_21
  3407  0039  283B               	goto	u131_20
  3408  003A                     u131_21:
  3409  003A  2861               	goto	i1l1724
  3410  003B                     u131_20:
  3411  003B                     i1l1708:
  3412                           
  3413                           ;main.c: 590:         if (!noGate && poweredOn && gotTheTouch) {
  3414  003B  0140               	movlb	0	; select bank0
  3415  003C  0864               	movf	_noGate,w
  3416  003D  0465               	iorwf	_noGate+1,w
  3417  003E  1D03               	btfss	3,2
  3418  003F  2841               	goto	u132_21
  3419  0040  2842               	goto	u132_20
  3420  0041                     u132_21:
  3421  0041  285D               	goto	i1l1720
  3422  0042                     u132_20:
  3423  0042                     i1l1710:
  3424  0042  0856               	movf	_poweredOn,w
  3425  0043  0457               	iorwf	_poweredOn+1,w
  3426  0044  1903               	btfsc	3,2
  3427  0045  2847               	goto	u133_21
  3428  0046  2848               	goto	u133_20
  3429  0047                     u133_21:
  3430  0047  285D               	goto	i1l1720
  3431  0048                     u133_20:
  3432  0048                     i1l1712:
  3433  0048  084E               	movf	_gotTheTouch,w
  3434  0049  044F               	iorwf	_gotTheTouch+1,w
  3435  004A  1903               	btfsc	3,2
  3436  004B  284D               	goto	u134_21
  3437  004C  284E               	goto	u134_20
  3438  004D                     u134_21:
  3439  004D  285D               	goto	i1l1720
  3440  004E                     u134_20:
  3441  004E                     i1l1714:
  3442                           
  3443                           ;main.c: 591:             postscaler ^= 1;
  3444  004E  3001               	movlw	1
  3445  004F  06DA               	xorwf	_postscaler,f
  3446  0050  3000               	movlw	0
  3447  0051  06DB               	xorwf	_postscaler+1,f
  3448  0052                     i1l1716:
  3449                           
  3450                           ;main.c: 592:             if (postscaler) {
  3451  0052  085A               	movf	_postscaler,w
  3452  0053  045B               	iorwf	_postscaler+1,w
  3453  0054  1903               	btfsc	3,2
  3454  0055  2857               	goto	u135_21
  3455  0056  2858               	goto	u135_20
  3456  0057                     u135_21:
  3457  0057  285F               	goto	i1l1722
  3458  0058                     u135_20:
  3459  0058                     i1l1718:
  3460                           
  3461                           ;main.c: 593:                 gate ^= 1;
  3462  0058  3001               	movlw	1
  3463  0059  06DE               	xorwf	_gate,f
  3464  005A  3000               	movlw	0
  3465  005B  06DF               	xorwf	_gate+1,f
  3466  005C  285F               	goto	i1l1722
  3467  005D                     i1l1720:
  3468                           
  3469                           ;main.c: 596:             gate = 0;
  3470  005D  01DE               	clrf	_gate
  3471  005E  01DF               	clrf	_gate+1
  3472  005F                     i1l1722:
  3473                           
  3474                           ;main.c: 598:         PIR1bits.TMR2IF = 0;
  3475  005F  014E               	movlb	14	; select bank14
  3476  0060  130D               	bcf	13,6	;volatile
  3477  0061                     i1l1724:
  3478                           
  3479                           ;main.c: 603:     if (PIR0bits.TMR0IF) {
  3480  0061  1E8C               	btfss	12,5	;volatile
  3481  0062  2864               	goto	u136_21
  3482  0063  2865               	goto	u136_20
  3483  0064                     u136_21:
  3484  0064  28E7               	goto	i1l212
  3485  0065                     u136_20:
  3486  0065                     i1l1726:
  3487                           
  3488                           ;main.c: 604:         if (clockDivider < 15) {
  3489  0065  300F               	movlw	15
  3490  0066  027C               	subwf	_clockDivider,w
  3491  0067  1803               	skipnc
  3492  0068  286A               	goto	u137_21
  3493  0069  286B               	goto	u137_20
  3494  006A                     u137_21:
  3495  006A  287B               	goto	i1l1734
  3496  006B                     u137_20:
  3497  006B                     i1l1728:
  3498                           
  3499                           ;main.c: 605:             if(debugging) clockDivider = 15;
  3500  006B  0140               	movlb	0	; select bank0
  3501  006C  0866               	movf	_debugging,w
  3502  006D  1903               	btfsc	3,2
  3503  006E  2870               	goto	u138_21
  3504  006F  2871               	goto	u138_20
  3505  0070                     u138_21:
  3506  0070  2876               	goto	i1l1732
  3507  0071                     u138_20:
  3508  0071                     i1l1730:
  3509  0071  300F               	movlw	15
  3510  0072  00F6               	movwf	??_isr
  3511  0073  0876               	movf	??_isr,w
  3512  0074  00FC               	movwf	_clockDivider
  3513  0075  28B8               	goto	i1l1754
  3514  0076                     i1l1732:
  3515  0076  3001               	movlw	1
  3516  0077  00F6               	movwf	??_isr
  3517  0078  0876               	movf	??_isr,w
  3518  0079  07FC               	addwf	_clockDivider,f
  3519  007A  28B8               	goto	i1l1754
  3520  007B                     i1l1734:
  3521                           
  3522                           ;main.c: 609:             if (debugging) genericDelay = 0;
  3523  007B  0140               	movlb	0	; select bank0
  3524  007C  0866               	movf	_debugging,w
  3525  007D  1903               	btfsc	3,2
  3526  007E  2880               	goto	u139_21
  3527  007F  2881               	goto	u139_20
  3528  0080                     u139_21:
  3529  0080  2884               	goto	i1l1738
  3530  0081                     u139_20:
  3531  0081                     i1l1736:
  3532  0081  01F7               	clrf	_genericDelay
  3533  0082  01F8               	clrf	_genericDelay+1
  3534  0083  288E               	goto	i1l1742
  3535  0084                     i1l1738:
  3536  0084  0877               	movf	_genericDelay,w
  3537  0085  0478               	iorwf	_genericDelay+1,w
  3538  0086  1903               	btfsc	3,2
  3539  0087  2889               	goto	u140_21
  3540  0088  288A               	goto	u140_20
  3541  0089                     u140_21:
  3542  0089  288E               	goto	i1l1742
  3543  008A                     u140_20:
  3544  008A                     i1l1740:
  3545  008A  3001               	movlw	1
  3546  008B  02F7               	subwf	_genericDelay,f
  3547  008C  3000               	movlw	0
  3548  008D  3BF8               	subwfb	_genericDelay+1,f
  3549  008E                     i1l1742:
  3550                           
  3551                           ;main.c: 611:             clockDivider = 0;
  3552  008E  01FC               	clrf	_clockDivider
  3553  008F                     i1l1744:
  3554                           
  3555                           ;main.c: 614:             if (buttonDebounce < 5) buttonDebounce++;
  3556  008F  3005               	movlw	5
  3557  0090  027B               	subwf	_buttonDebounce,w
  3558  0091  1803               	skipnc
  3559  0092  2894               	goto	u141_21
  3560  0093  2895               	goto	u141_20
  3561  0094                     u141_21:
  3562  0094  289A               	goto	i1l1748
  3563  0095                     u141_20:
  3564  0095                     i1l1746:
  3565  0095  3001               	movlw	1
  3566  0096  00F6               	movwf	??_isr
  3567  0097  0876               	movf	??_isr,w
  3568  0098  07FB               	addwf	_buttonDebounce,f
  3569  0099  28B8               	goto	i1l1754
  3570  009A                     i1l1748:
  3571                           
  3572                           ;main.c: 619:                 ButtonProcess(&aPorts, PORTA);
  3573  009A  080C               	movf	12,w	;volatile
  3574  009B  00F6               	movwf	??_isr
  3575  009C  0876               	movf	??_isr,w
  3576  009D  00F0               	movwf	ButtonProcess@portStatus
  3577  009E  30A0               	movlw	(low (_aPorts| 0))& (0+255)
  3578  009F  3186  267A  3180   	fcall	_ButtonProcess
  3579                           
  3580                           ;main.c: 622:                 if(ButtonCurrent(&aPorts, (0x0008))) gotTheTouch = 1;
  3581  00A2  3008               	movlw	8
  3582  00A3  00F6               	movwf	??_isr
  3583  00A4  0876               	movf	??_isr,w
  3584  00A5  00F0               	movwf	ButtonCurrent@GPIOButtonPins
  3585  00A6  30A0               	movlw	(low (_aPorts| 0))& (0+255)
  3586  00A7  318F  27F8  3180   	fcall	_ButtonCurrent
  3587  00AA  3A00               	xorlw	0
  3588  00AB  1903               	skipnz
  3589  00AC  28AE               	goto	u142_21
  3590  00AD  28AF               	goto	u142_20
  3591  00AE                     u142_21:
  3592  00AE  28B5               	goto	i1l1752
  3593  00AF                     u142_20:
  3594  00AF                     i1l1750:
  3595  00AF  3001               	movlw	1
  3596  00B0  0140               	movlb	0	; select bank0
  3597  00B1  00CE               	movwf	_gotTheTouch
  3598  00B2  3000               	movlw	0
  3599  00B3  00CF               	movwf	_gotTheTouch+1
  3600  00B4  28B8               	goto	i1l1754
  3601  00B5                     i1l1752:
  3602  00B5  0140               	movlb	0	; select bank0
  3603  00B6  01CE               	clrf	_gotTheTouch
  3604  00B7  01CF               	clrf	_gotTheTouch+1
  3605  00B8                     i1l1754:
  3606                           
  3607                           ;main.c: 630:         if ((gate || forceArc) && poweredOn && gotTheTouch) {
  3608  00B8  085E               	movf	_gate,w
  3609  00B9  045F               	iorwf	_gate+1,w
  3610  00BA  1D03               	btfss	3,2
  3611  00BB  28BD               	goto	u143_21
  3612  00BC  28BE               	goto	u143_20
  3613  00BD                     u143_21:
  3614  00BD  28C4               	goto	i1l1758
  3615  00BE                     u143_20:
  3616  00BE                     i1l1756:
  3617  00BE  0879               	movf	_forceArc,w
  3618  00BF  047A               	iorwf	_forceArc+1,w
  3619  00C0  1903               	btfsc	3,2
  3620  00C1  28C3               	goto	u144_21
  3621  00C2  28C4               	goto	u144_20
  3622  00C3                     u144_21:
  3623  00C3  28E3               	goto	i1l208
  3624  00C4                     u144_20:
  3625  00C4                     i1l1758:
  3626  00C4  0856               	movf	_poweredOn,w
  3627  00C5  0457               	iorwf	_poweredOn+1,w
  3628  00C6  1903               	btfsc	3,2
  3629  00C7  28C9               	goto	u145_21
  3630  00C8  28CA               	goto	u145_20
  3631  00C9                     u145_21:
  3632  00C9  28E3               	goto	i1l208
  3633  00CA                     u145_20:
  3634  00CA                     i1l1760:
  3635  00CA  084E               	movf	_gotTheTouch,w
  3636  00CB  044F               	iorwf	_gotTheTouch+1,w
  3637  00CC  1903               	btfsc	3,2
  3638  00CD  28CF               	goto	u146_21
  3639  00CE  28D0               	goto	u146_20
  3640  00CF                     u146_21:
  3641  00CF  28E3               	goto	i1l208
  3642  00D0                     u146_20:
  3643  00D0                     i1l1762:
  3644                           
  3645                           ;main.c: 631:             pinState ^= 1;
  3646  00D0  3001               	movlw	(0+1) shl (_pinState& (0+7))
  3647  00D1  06FD               	xorwf	_pinState/(0+8),f
  3648  00D2                     i1l1764:
  3649                           
  3650                           ;main.c: 632:             LATC4 = pinState;
  3651  00D2  187D               	btfsc	_pinState/(0+8),_pinState& (0+7)
  3652  00D3  28D5               	goto	u147_21
  3653  00D4  28D8               	goto	u147_20
  3654  00D5                     u147_21:
  3655  00D5  0140               	movlb	0	; select bank0
  3656  00D6  161A               	bsf	26,4	;volatile
  3657  00D7  28DA               	goto	u148_24
  3658  00D8                     u147_20:
  3659  00D8  0140               	movlb	0	; select bank0
  3660  00D9  121A               	bcf	26,4	;volatile
  3661  00DA                     u148_24:
  3662  00DA                     i1l1766:
  3663                           
  3664                           ;main.c: 633:             LATC5 = (pinState^1);
  3665  00DA  1C7D               	btfss	_pinState/(0+8),_pinState& (0+7)
  3666  00DB  28DD               	goto	u149_21
  3667  00DC  28E0               	goto	u149_20
  3668  00DD                     u149_21:
  3669  00DD  0140               	movlb	0	; select bank0
  3670  00DE  169A               	bsf	26,5	;volatile
  3671  00DF  28E2               	goto	u150_24
  3672  00E0                     u149_20:
  3673  00E0  0140               	movlb	0	; select bank0
  3674  00E1  129A               	bcf	26,5	;volatile
  3675  00E2                     u150_24:
  3676                           
  3677                           ;main.c: 634:         } else {
  3678  00E2  28E5               	goto	i1l211
  3679  00E3                     i1l208:
  3680                           
  3681                           ;main.c: 635:             LATC4 = 0;
  3682  00E3  121A               	bcf	26,4	;volatile
  3683                           
  3684                           ;main.c: 636:             LATC5 = 0;
  3685  00E4  129A               	bcf	26,5	;volatile
  3686  00E5                     i1l211:	
  3687                           ;main.c: 637:         }
  3688                           
  3689                           
  3690                           ;main.c: 638:         PIR0bits.TMR0IF = 0;
  3691  00E5  014E               	movlb	14	; select bank14
  3692  00E6  128C               	bcf	12,5	;volatile
  3693  00E7                     i1l212:
  3694  00E7  107E               	bcf	int$flags,0	;clear compiler interrupt flag (level 1)
  3695  00E8  0009               	retfie
  3696  00E9                     __end_of_isr:
  3697                           
  3698                           	psect	text10
  3699  067A                     __ptext10:	
  3700 ;; *************** function _ButtonProcess *****************
  3701 ;; Defined at:
  3702 ;;		line 73 in file "source/button_debounce.c"
  3703 ;; Parameters:    Size  Location     Type
  3704 ;;  port            1    wreg     PTR struct .
  3705 ;;		 -> aPorts(12), 
  3706 ;;  portStatus      1    0[COMMON] unsigned char 
  3707 ;; Auto vars:     Size  Location     Type
  3708 ;;  port            1    5[COMMON] PTR struct .
  3709 ;;		 -> aPorts(12), 
  3710 ;;  i               1    4[COMMON] unsigned char 
  3711 ;;  lastDebounce    1    3[COMMON] unsigned char 
  3712 ;; Return value:  Size  Location     Type
  3713 ;;                  1    wreg      void 
  3714 ;; Registers used:
  3715 ;;		wreg, fsr1l, fsr1h, status,2, status,0
  3716 ;; Tracked objects:
  3717 ;;		On entry : 0/0
  3718 ;;		On exit  : 0/0
  3719 ;;		Unchanged: 0/0
  3720 ;; Data sizes:     COMMON   BANK0   BANK1   BANK2   BANK3   BANK4   BANK5   BANK6
  3721 ;;      Params:         1       0       0       0       0       0       0       0
  3722 ;;      Locals:         3       0       0       0       0       0       0       0
  3723 ;;      Temps:          2       0       0       0       0       0       0       0
  3724 ;;      Totals:         6       0       0       0       0       0       0       0
  3725 ;;Total ram usage:        6 bytes
  3726 ;; Hardware stack levels used: 1
  3727 ;; This function calls:
  3728 ;;		Nothing
  3729 ;; This function is called by:
  3730 ;;		_isr
  3731 ;;		_checkForCharging
  3732 ;; This function uses a non-reentrant model
  3733 ;;
  3734                           
  3735                           
  3736                           ;psect for function _ButtonProcess
  3737  067A                     _ButtonProcess:
  3738                           
  3739                           ;incstack = 0
  3740                           ; Regs used in _ButtonProcess: [wreg+fsr1l+fsr1h+status,2+status,0]
  3741                           ;ButtonProcess@port stored from wreg
  3742  067A  00F5               	movwf	ButtonProcess@port
  3743  067B                     i1l1516:
  3744                           
  3745                           ;source/button_debounce.c: 73: ButtonProcess(Debouncer *port, uint8_t portStatus);source
      +                          /button_debounce.c: 74: {;source/button_debounce.c: 75:     uint8_t i;;source/button_deb
      +                          ounce.c: 76:     uint8_t lastDebouncedState = port->debouncedState;
  3746  067B  0875               	movf	ButtonProcess@port,w
  3747  067C  0086               	movwf	6
  3748  067D  0187               	clrf	7
  3749  067E  3F49               	moviw [9]fsr1
  3750  067F  00F3               	movwf	ButtonProcess@lastDebouncedState
  3751  0680                     i1l1518:
  3752                           
  3753                           ;source/button_debounce.c: 83:     port->state[port->index] = portStatus ^ port->pullTyp
      +                          e;
  3754  0680  0875               	movf	ButtonProcess@port,w
  3755  0681  3E0B               	addlw	11
  3756  0682  0086               	movwf	6
  3757  0683  0187               	clrf	7
  3758  0684  0801               	movf	1,w
  3759  0685  0670               	xorwf	ButtonProcess@portStatus,w
  3760  0686  00F1               	movwf	??_ButtonProcess
  3761  0687  0875               	movf	ButtonProcess@port,w
  3762  0688  3E08               	addlw	8
  3763  0689  0086               	movwf	6
  3764  068A  0187               	clrf	7
  3765  068B  0801               	movf	1,w
  3766  068C  0775               	addwf	ButtonProcess@port,w
  3767  068D  00F2               	movwf	??_ButtonProcess+1
  3768  068E  0872               	movf	??_ButtonProcess+1,w
  3769  068F  0086               	movwf	6
  3770  0690  0187               	clrf	7
  3771  0691  0871               	movf	??_ButtonProcess,w
  3772  0692  0081               	movwf	1
  3773  0693                     i1l1520:
  3774                           
  3775                           ;source/button_debounce.c: 86:     for(i = 0, port->debouncedState = 0xFF; i < 8; i++)
  3776  0693  01F4               	clrf	ButtonProcess@i
  3777  0694                     i1l1522:
  3778  0694  30FF               	movlw	255
  3779  0695  00F1               	movwf	??_ButtonProcess
  3780  0696  0875               	movf	ButtonProcess@port,w
  3781  0697  3E09               	addlw	9
  3782  0698  0086               	movwf	6
  3783  0699  0187               	clrf	7
  3784  069A  0871               	movf	??_ButtonProcess,w
  3785  069B  0081               	movwf	1
  3786  069C                     i1l1528:
  3787                           
  3788                           ;source/button_debounce.c: 87:     {;source/button_debounce.c: 88:         port->debounc
      +                          edState &= port->state[i];
  3789  069C  0874               	movf	ButtonProcess@i,w
  3790  069D  0775               	addwf	ButtonProcess@port,w
  3791  069E  00F1               	movwf	??_ButtonProcess
  3792  069F  0871               	movf	??_ButtonProcess,w
  3793  06A0  0086               	movwf	6
  3794  06A1  0187               	clrf	7
  3795  06A2  0801               	movf	1,w
  3796  06A3  00F2               	movwf	??_ButtonProcess+1
  3797  06A4  0875               	movf	ButtonProcess@port,w
  3798  06A5  3E09               	addlw	9
  3799  06A6  0086               	movwf	6
  3800  06A7  0187               	clrf	7
  3801  06A8  0872               	movf	??_ButtonProcess+1,w
  3802  06A9  0581               	andwf	1,f
  3803  06AA                     i1l1530:
  3804                           
  3805                           ;source/button_debounce.c: 89:     }
  3806  06AA  3001               	movlw	1
  3807  06AB  00F1               	movwf	??_ButtonProcess
  3808  06AC  0871               	movf	??_ButtonProcess,w
  3809  06AD  07F4               	addwf	ButtonProcess@i,f
  3810  06AE                     i1l1532:
  3811  06AE  3008               	movlw	8
  3812  06AF  0274               	subwf	ButtonProcess@i,w
  3813  06B0  1C03               	skipc
  3814  06B1  2EB3               	goto	u116_21
  3815  06B2  2EB4               	goto	u116_20
  3816  06B3                     u116_21:
  3817  06B3  2E9C               	goto	i1l1528
  3818  06B4                     u116_20:
  3819  06B4                     i1l1534:
  3820                           
  3821                           ;source/button_debounce.c: 92:     port->index++;
  3822  06B4  3001               	movlw	1
  3823  06B5  00F1               	movwf	??_ButtonProcess
  3824  06B6  0875               	movf	ButtonProcess@port,w
  3825  06B7  3E08               	addlw	8
  3826  06B8  0086               	movwf	6
  3827  06B9  0187               	clrf	7
  3828  06BA  0871               	movf	??_ButtonProcess,w
  3829  06BB  0781               	addwf	1,f
  3830                           
  3831                           ;source/button_debounce.c: 93:     if(port->index >= 8)
  3832  06BC  0875               	movf	ButtonProcess@port,w
  3833  06BD  3E08               	addlw	8
  3834  06BE  0086               	movwf	6
  3835  06BF  0187               	clrf	7
  3836  06C0  3008               	movlw	8
  3837  06C1  0201               	subwf	1,w
  3838  06C2  1C03               	skipc
  3839  06C3  2EC5               	goto	u117_21
  3840  06C4  2EC6               	goto	u117_20
  3841  06C5                     u117_21:
  3842  06C5  2ECB               	goto	i1l358
  3843  06C6                     u117_20:
  3844  06C6                     i1l1536:
  3845                           
  3846                           ;source/button_debounce.c: 94:     {;source/button_debounce.c: 95:         port->index =
      +                           0;
  3847  06C6  0875               	movf	ButtonProcess@port,w
  3848  06C7  3E08               	addlw	8
  3849  06C8  0086               	movwf	6
  3850  06C9  0187               	clrf	7
  3851  06CA  0181               	clrf	1
  3852  06CB                     i1l358:	
  3853                           ;source/button_debounce.c: 96:     }
  3854                           
  3855                           
  3856                           ;source/button_debounce.c: 103:     port->changed = port->debouncedState ^ lastDebounced
      +                          State;
  3857  06CB  0875               	movf	ButtonProcess@port,w
  3858  06CC  3E09               	addlw	9
  3859  06CD  0086               	movwf	6
  3860  06CE  0187               	clrf	7
  3861  06CF  0801               	movf	1,w
  3862  06D0  0673               	xorwf	ButtonProcess@lastDebouncedState,w
  3863  06D1  00F1               	movwf	??_ButtonProcess
  3864  06D2  0875               	movf	ButtonProcess@port,w
  3865  06D3  3E0A               	addlw	10
  3866  06D4  0086               	movwf	6
  3867  06D5  0187               	clrf	7
  3868  06D6  0871               	movf	??_ButtonProcess,w
  3869  06D7  0081               	movwf	1
  3870  06D8                     i1l359:
  3871  06D8  0008               	return
  3872  06D9                     __end_of_ButtonProcess:
  3873                           
  3874                           	psect	text11
  3875  0FF8                     __ptext11:	
  3876 ;; *************** function _ButtonCurrent *****************
  3877 ;; Defined at:
  3878 ;;		line 123 in file "source/button_debounce.c"
  3879 ;; Parameters:    Size  Location     Type
  3880 ;;  port            1    wreg     PTR struct .
  3881 ;;		 -> aPorts(12), 
  3882 ;;  GPIOButtonPi    1    0[COMMON] unsigned char 
  3883 ;; Auto vars:     Size  Location     Type
  3884 ;;  port            1    1[COMMON] PTR struct .
  3885 ;;		 -> aPorts(12), 
  3886 ;; Return value:  Size  Location     Type
  3887 ;;                  1    wreg      unsigned char 
  3888 ;; Registers used:
  3889 ;;		wreg, fsr1l, fsr1h, status,2, status,0
  3890 ;; Tracked objects:
  3891 ;;		On entry : 0/0
  3892 ;;		On exit  : 0/0
  3893 ;;		Unchanged: 0/0
  3894 ;; Data sizes:     COMMON   BANK0   BANK1   BANK2   BANK3   BANK4   BANK5   BANK6
  3895 ;;      Params:         1       0       0       0       0       0       0       0
  3896 ;;      Locals:         1       0       0       0       0       0       0       0
  3897 ;;      Temps:          0       0       0       0       0       0       0       0
  3898 ;;      Totals:         2       0       0       0       0       0       0       0
  3899 ;;Total ram usage:        2 bytes
  3900 ;; Hardware stack levels used: 1
  3901 ;; This function calls:
  3902 ;;		Nothing
  3903 ;; This function is called by:
  3904 ;;		_isr
  3905 ;;		_checkForCharging
  3906 ;; This function uses a non-reentrant model
  3907 ;;
  3908                           
  3909                           
  3910                           ;psect for function _ButtonCurrent
  3911  0FF8                     _ButtonCurrent:
  3912                           
  3913                           ;incstack = 0
  3914                           ; Regs used in _ButtonCurrent: [wreg+fsr1l+fsr1h+status,2+status,0]
  3915                           ;ButtonCurrent@port stored from wreg
  3916  0FF8  00F1               	movwf	ButtonCurrent@port
  3917  0FF9                     i1l1538:
  3918                           
  3919                           ;source/button_debounce.c: 123: ButtonCurrent(Debouncer *port, uint8_t GPIOButtonPins);s
      +                          ource/button_debounce.c: 124: {;source/button_debounce.c: 128:     return port->debounce
      +                          dState & GPIOButtonPins;
  3920  0FF9  0871               	movf	ButtonCurrent@port,w
  3921  0FFA  3E09               	addlw	9
  3922  0FFB  0086               	movwf	6
  3923  0FFC  0187               	clrf	7
  3924  0FFD  0801               	movf	1,w
  3925  0FFE  0570               	andwf	ButtonCurrent@GPIOButtonPins,w
  3926  0FFF                     i1l368:
  3927  0FFF  0008               	return
  3928  1000                     __end_of_ButtonCurrent:
  3929  007E                     btemp	set	126	;btemp
  3930  007E                     int$flags	set	126
  3931  007E                     wtemp0	set	126
  3932                           
  3933                           	psect	config
  3934                           
  3935                           ;Config register CONFIG1 @ 0x8007
  3936                           ;	External Oscillator Mode Selection bits
  3937                           ;	FEXTOSC = 0x3, unprogrammed default
  3938                           ;	Power-up Default Value for COSC bits
  3939                           ;	RSTOSC = 0x0, user specified literal
  3940                           ;	Clock Out Enable bit
  3941                           ;	CLKOUTEN = 0x1, user specified literal
  3942                           ;	VDD Range Analog Calibration Selection bit
  3943                           ;	VDDAR = 0x1, unprogrammed default
  3944  8007                     	org	32775
  3945  8007  3FCF               	dw	16335
  3946                           
  3947                           ;Config register CONFIG2 @ 0x8008
  3948                           ;	Master Clear Enable bit
  3949                           ;	MCLRE = 0x0, user specified literal
  3950                           ;	Power-up Timer Selection bits
  3951                           ;	PWRTS = 0x3, unprogrammed default
  3952                           ;	WDT Operating Mode bits
  3953                           ;	WDTE = 0x0, user specified literal
  3954                           ;	Brown-out Reset Enable bits
  3955                           ;	BOREN = 0x0, user specified literal
  3956                           ;	Brown-out Reset Voltage Selection bit
  3957                           ;	BORV = LO, Brown-out Reset Voltage (VBOR) set to 1.9V
  3958                           ;	PPSLOCKED One-Way Set Enable bit
  3959                           ;	PPS1WAY = 0x1, unprogrammed default
  3960                           ;	Stack Overflow/Underflow Reset Enable bit
  3961                           ;	STVREN = ON, Stack Overflow or Underflow will cause a reset
  3962  8008                     	org	32776
  3963  8008  3F26               	dw	16166
  3964                           
  3965                           ;Config register CONFIG4 @ 0x800A
  3966                           ;	Boot Block Size Selection bits
  3967                           ;	BBSIZE = 0x7, unprogrammed default
  3968                           ;	Boot Block Enable bit
  3969                           ;	BBEN = 0x1, unprogrammed default
  3970                           ;	SAF Enable bit
  3971                           ;	SAFEN = 0x1, unprogrammed default
  3972                           ;	Application Block Write Protection bit
  3973                           ;	WRTAPP = 0x1, unprogrammed default
  3974                           ;	Boot Block Write Protection bit
  3975                           ;	WRTB = 0x1, unprogrammed default
  3976                           ;	Configuration Registers Write Protection bit
  3977                           ;	WRTC = 0x1, unprogrammed default
  3978                           ;	Storage Area Flash (SAF) Write Protection bit
  3979                           ;	WRTSAF = OFF, SAF is not write-protected
  3980                           ;	Low Voltage Programming Enable bit
  3981                           ;	LVP = OFF, High Voltage on MCLR/Vpp must be used for programming
  3982  800A                     	org	32778
  3983  800A  1FFF               	dw	8191
  3984                           
  3985                           ;Config register CONFIG5 @ 0x800B
  3986                           ;	User Program Flash Memory Code Protection bit
  3987                           ;	CP = OFF, User Program Flash Memory code protection is disabled
  3988  800B                     	org	32779
  3989  800B  3FFF               	dw	16383

Data Sizes:
    Strings     0
    Constant    724
    Data        3
    BSS         50
    Persistent  32
    Stack       0

Auto Spaces:
    Space          Size  Autos    Used
    COMMON           14      7      14
    BANK0            80     36      71
    BANK1            80      0      12
    BANK2            80      0       0
    BANK3            80      0       0
    BANK4            80      0       0
    BANK5            80      0       0
    BANK6            16      0       0

Pointer List with Targets:

    ButtonCurrent@port	PTR struct . size(1) Largest target is 12
		 -> aPorts(BANK1[12]), 

    ButtonProcess@port	PTR struct . size(1) Largest target is 12
		 -> aPorts(BANK1[12]), 

    ButtonDebounceInit@port	PTR struct . size(1) Largest target is 12
		 -> aPorts(BANK1[12]), 


Critical Paths under _main in COMMON

    None.

Critical Paths under _isr in COMMON

    _isr->_ButtonProcess

Critical Paths under _main in BANK0

    _main->_chargeIndicator
    _goToLPmode->_playNote
    _doTheArc->_playNote
    _playNote->_blockingDelay
    _chargeIndicator->___lldiv
    ___lldiv->___lmul

Critical Paths under _isr in BANK0

    None.

Critical Paths under _main in BANK1

    None.

Critical Paths under _isr in BANK1

    None.

Critical Paths under _main in BANK2

    None.

Critical Paths under _isr in BANK2

    None.

Critical Paths under _main in BANK3

    None.

Critical Paths under _isr in BANK3

    None.

Critical Paths under _main in BANK4

    None.

Critical Paths under _isr in BANK4

    None.

Critical Paths under _main in BANK5

    None.

Critical Paths under _isr in BANK5

    None.

Critical Paths under _main in BANK6

    None.

Critical Paths under _isr in BANK6

    None.

Call Graph Tables:

 ---------------------------------------------------------------------------------
 (Depth) Function   	        Calls       Base Space   Used Autos Params    Refs
 ---------------------------------------------------------------------------------
 (0) _main                                                 5     1      4    6596
                                             31 BANK0      5     1      4
                 _ButtonDebounceInit
                      _blockingDelay
                    _chargeIndicator
                           _doTheArc
                         _goToLPmode
 ---------------------------------------------------------------------------------
 (1) _goToLPmode                                           0     0      0    1474
                           _playNote
 ---------------------------------------------------------------------------------
 (1) _doTheArc                                             2     2      0    2315
                                              6 BANK0      2     2      0
                      _blockingDelay
                           _playNote
 ---------------------------------------------------------------------------------
 (2) _playNote                                             4     0      4    1474
                                              2 BANK0      4     0      4
                      _blockingDelay
 ---------------------------------------------------------------------------------
 (1) _chargeIndicator                                      5     5      0    1657
                                             26 BANK0      5     5      0
                            ___lldiv
                             ___lmul
                      _blockingDelay
 ---------------------------------------------------------------------------------
 (3) _blockingDelay                                        2     0      2     841
                                              0 BANK0      2     0      2
 ---------------------------------------------------------------------------------
 (2) ___lmul                                              12     4      8     316
                                              0 BANK0     12     4      8
 ---------------------------------------------------------------------------------
 (2) ___lldiv                                             14     6      8     466
                                             12 BANK0     14     6      8
                             ___lmul (ARG)
 ---------------------------------------------------------------------------------
 (1) _ButtonDebounceInit                                   4     3      1     309
                                              0 BANK0      4     3      1
 ---------------------------------------------------------------------------------
 Estimated maximum stack depth 3
 ---------------------------------------------------------------------------------
 (Depth) Function   	        Calls       Base Space   Used Autos Params    Refs
 ---------------------------------------------------------------------------------
 (4) _isr                                                  1     1      0     857
                                              6 COMMON     1     1      0
                      _ButtonCurrent
                      _ButtonProcess
 ---------------------------------------------------------------------------------
 (5) _ButtonProcess                                        6     5      1     595
                                              0 COMMON     6     5      1
 ---------------------------------------------------------------------------------
 (5) _ButtonCurrent                                        2     1      1     262
                                              0 COMMON     2     1      1
 ---------------------------------------------------------------------------------
 Estimated maximum stack depth 5
 ---------------------------------------------------------------------------------

 Call Graph Graphs:

 _main (ROOT)
   _ButtonDebounceInit
   _blockingDelay
   _chargeIndicator
     ___lldiv
       ___lmul (ARG)
     ___lmul
     _blockingDelay
   _doTheArc
     _blockingDelay
     _playNote
       _blockingDelay
   _goToLPmode
     _playNote

 _isr (ROOT)
   _ButtonCurrent
   _ButtonProcess

 Address spaces:
Name               Size   Autos  Total    Cost      Usage
BIGRAM             1F0      0       0       0        0.0%
NULL                 0      0       0       0        0.0%
CODE                 0      0       0       0        0.0%
BITCOMMON            E      0       1       1        7.1%
BITSFR0              0      0       0       1        0.0%
SFR0                 0      0       0       1        0.0%
COMMON               E      7       E       2      100.0%
BITSFR1              0      0       0       2        0.0%
SFR1                 0      0       0       2        0.0%
BITSFR2              0      0       0       3        0.0%
SFR2                 0      0       0       3        0.0%
STACK                0      0       0       3        0.0%
BITSFR3              0      0       0       4        0.0%
SFR3                 0      0       0       4        0.0%
ABS                  0      0      61       4        0.0%
BITBANK0            50      0       0       5        0.0%
BITSFR4              0      0       0       5        0.0%
SFR4                 0      0       0       5        0.0%
BANK0               50     24      47       6       88.8%
BITSFR5              0      0       0       6        0.0%
SFR5                 0      0       0       6        0.0%
BITBANK1            50      0       0       7        0.0%
BITSFR6              0      0       0       7        0.0%
SFR6                 0      0       0       7        0.0%
BANK1               50      0       C       8       15.0%
BITSFR7              0      0       0       8        0.0%
SFR7                 0      0       0       8        0.0%
BITBANK2            50      0       0       9        0.0%
BITSFR8              0      0       0       9        0.0%
SFR8                 0      0       0       9        0.0%
BANK2               50      0       0      10        0.0%
BITSFR9              0      0       0      10        0.0%
SFR9                 0      0       0      10        0.0%
BITBANK3            50      0       0      11        0.0%
BITSFR10             0      0       0      11        0.0%
SFR10                0      0       0      11        0.0%
BANK3               50      0       0      12        0.0%
BITSFR11             0      0       0      12        0.0%
SFR11                0      0       0      12        0.0%
BITBANK4            50      0       0      13        0.0%
BITSFR12             0      0       0      13        0.0%
SFR12                0      0       0      13        0.0%
BANK4               50      0       0      14        0.0%
BITSFR13             0      0       0      14        0.0%
SFR13                0      0       0      14        0.0%
BITBANK5            50      0       0      15        0.0%
BITSFR14             0      0       0      15        0.0%
SFR14                0      0       0      15        0.0%
BANK5               50      0       0      16        0.0%
BITSFR15             0      0       0      16        0.0%
SFR15                0      0       0      16        0.0%
BITBANK6            10      0       0      17        0.0%
BITSFR16             0      0       0      17        0.0%
SFR16                0      0       0      17        0.0%
BANK6               10      0       0      18        0.0%
BITSFR17             0      0       0      18        0.0%
SFR17                0      0       0      18        0.0%
BITSFR18             0      0       0      19        0.0%
SFR18                0      0       0      19        0.0%
DATA                 0      0      61      19        0.0%
BITSFR19             0      0       0      20        0.0%
SFR19                0      0       0      20        0.0%
BITSFR20             0      0       0      21        0.0%
SFR20                0      0       0      21        0.0%
BITSFR21             0      0       0      22        0.0%
SFR21                0      0       0      22        0.0%
BITSFR22             0      0       0      23        0.0%
SFR22                0      0       0      23        0.0%
BITSFR23             0      0       0      24        0.0%
SFR23                0      0       0      24        0.0%
BITSFR24             0      0       0      25        0.0%
SFR24                0      0       0      25        0.0%
BITSFR25             0      0       0      26        0.0%
SFR25                0      0       0      26        0.0%
BITSFR26             0      0       0      27        0.0%
SFR26                0      0       0      27        0.0%
BITSFR27             0      0       0      28        0.0%
SFR27                0      0       0      28        0.0%
BITSFR28             0      0       0      29        0.0%
SFR28                0      0       0      29        0.0%
BITSFR29             0      0       0      30        0.0%
SFR29                0      0       0      30        0.0%
BITSFR30             0      0       0      31        0.0%
SFR30                0      0       0      31        0.0%
BITSFR31             0      0       0      32        0.0%
SFR31                0      0       0      32        0.0%
BITSFR32             0      0       0      33        0.0%
SFR32                0      0       0      33        0.0%
BITSFR33             0      0       0      34        0.0%
SFR33                0      0       0      34        0.0%
BITSFR34             0      0       0      35        0.0%
SFR34                0      0       0      35        0.0%
BITSFR35             0      0       0      36        0.0%
SFR35                0      0       0      36        0.0%
BITSFR36             0      0       0      37        0.0%
SFR36                0      0       0      37        0.0%
BITSFR37             0      0       0      38        0.0%
SFR37                0      0       0      38        0.0%
BITSFR38             0      0       0      39        0.0%
SFR38                0      0       0      39        0.0%
BITSFR39             0      0       0      40        0.0%
SFR39                0      0       0      40        0.0%
BITSFR40             0      0       0      41        0.0%
SFR40                0      0       0      41        0.0%
BITSFR41             0      0       0      42        0.0%
SFR41                0      0       0      42        0.0%
BITSFR42             0      0       0      43        0.0%
SFR42                0      0       0      43        0.0%
BITSFR43             0      0       0      44        0.0%
SFR43                0      0       0      44        0.0%
BITSFR44             0      0       0      45        0.0%
SFR44                0      0       0      45        0.0%
BITSFR45             0      0       0      46        0.0%
SFR45                0      0       0      46        0.0%
BITSFR46             0      0       0      47        0.0%
SFR46                0      0       0      47        0.0%
BITSFR47             0      0       0      48        0.0%
SFR47                0      0       0      48        0.0%
BITSFR48             0      0       0      49        0.0%
SFR48                0      0       0      49        0.0%
BITSFR49             0      0       0      50        0.0%
SFR49                0      0       0      50        0.0%
BITSFR50             0      0       0      51        0.0%
SFR50                0      0       0      51        0.0%
BITSFR51             0      0       0      52        0.0%
SFR51                0      0       0      52        0.0%
BITSFR52             0      0       0      53        0.0%
SFR52                0      0       0      53        0.0%
BITSFR53             0      0       0      54        0.0%
SFR53                0      0       0      54        0.0%
BITSFR54             0      0       0      55        0.0%
SFR54                0      0       0      55        0.0%
BITSFR55             0      0       0      56        0.0%
SFR55                0      0       0      56        0.0%
BITSFR56             0      0       0      57        0.0%
SFR56                0      0       0      57        0.0%
BITSFR57             0      0       0      58        0.0%
SFR57                0      0       0      58        0.0%
BITSFR58             0      0       0      59        0.0%
SFR58                0      0       0      59        0.0%
BITSFR59             0      0       0      60        0.0%
SFR59                0      0       0      60        0.0%
BITSFR60             0      0       0      61        0.0%
SFR60                0      0       0      61        0.0%
BITSFR61             0      0       0      62        0.0%
SFR61                0      0       0      62        0.0%
BITSFR62             0      0       0      63        0.0%
SFR62                0      0       0      63        0.0%
BITSFR63             0      0       0      64        0.0%
SFR63                0      0       0      64        0.0%


Microchip Technology PIC Macro Assembler V2.32 build 20210201212658 
Symbol Table                                                                                   Thu Sep 23 15:25:22 2021

                                _i 0060                                l230 0611  
                              l224 05C2                                l217 05B1  
                              l243 07FB                                l251 07EF  
                              l180 04A3                                l237 0679  
                              l175 041B                                l408 0733  
                              l248 07D9                                l353 0793  
                              l281 0589                                l273 0565  
                              l257 04BA                                l177 0446  
                              l282 058A                                l259 04C2  
                              l284 059E                                l268 054B  
                              l277 057F                                l278 057E  
                              l386 0767                                _GIE 005F  
                              _PR2 028D                                u820 06EA  
                              u821 06E9                                u840 06FC  
                              u841 06FB                                u835 06EE  
                              u860 0715                                u861 0714  
                              u855 06FD                                u880 072B  
                              u881 072A                                u865 0711  
                              u890 0793                                u891 0792  
                              u875 071F                                _isr 0004  
                              wreg 0009             __size_of_ButtonCurrent 0008  
                             l2000 03E1                               l2010 03F1  
                             l2002 03E2                               l2020 03FB  
                             l2012 03F2                               l2004 03E3  
                             l2030 0408                               l2022 03FF  
                             l2014 03F4                               l2006 03E4  
                             l2040 0412                               l2032 0409  
                             l2024 0400                               l2016 03F6  
                             l2008 03EC                               l2050 042F  
                             l2042 0413                               l2034 040A  
                             l2026 0402                               l2018 03FA  
                             l1340 06EA                               l2060 0444  
                             l2052 0431                               l2044 0419  
                             l2036 040C                               l2028 0404  
                             l1350 0715                               l1342 06ED  
                             l2118 0668                               l2070 046F  
                             l2062 044D                               l2054 043C  
                             l2046 0421                               l2038 040D  
                             l1352 071D                               l1344 06F8  
                             l2080 0484                               l2072 0478  
                             l2064 0454                               l2056 043D  
                             l2048 042A                               l1370 0782  
                             l1362 076A                               l1354 071E  
                             l1346 06FC                               l1338 06D9  
                             l2090 0499                               l2082 0486  
                             l2074 047A                               l2066 045D  
                             l2058 043E                               l1372 0789  
                             l1364 0781                               l1356 0725  
                             l1348 0703                               l2092 049F  
                             l2084 048D                               l2076 047C  
                             l2068 0466                               l1374 078D  
                             l1358 072B                               l2094 04A5  
                             l2086 0490                               l2078 0480  
                             l1800 07CD                               l2096 04AC  
                             l2088 0497                               l1810 0749  
                             l1802 07D1                               l1812 0750  
                             l1804 0734                               l1820 04B8  
                             l1900 05F6                               l1814 075F  
                             l1806 073D                               l1830 04D4  
                             l1822 04BC                               l1910 061C  
                             l1902 05FB                               l1808 0741  
                             l1840 0532                               l1832 051A  
                             l1920 0653                               l1912 061E  
                             l1904 0604                               l1842 053B  
                             l1850 054D                               l1834 0523  
                             l1826 04C7                               l1818 04B2  
                             l1930 0675                               l1922 0659  
                             l1914 0622                               l1906 060A  
                             l1852 0556                               l1860 0567  
                             l1844 053E                               l1836 0527  
                             l1828 04CF                               l1932 0676  
                             l1916 0645                               l1908 0615  
                             l1790 07F0                               l1862 0570  
                             l1870 0582                               l1854 0558  
                             l1846 0544                               l1838 052D  
                             l1934 0677                               l1918 064A  
                             l1926 0660                               l1950 07EA  
                             l1942 07DA                               l1792 07F5  
                             l1872 0587                               l1864 0571  
                             l1856 055E                               l1848 0549  
                             l1936 0678                               l1928 0673  
                             l1880 059F                               l1952 07EB  
                             l1944 07DC                               l1960 03C8  
                             l1866 0577                               l1858 0563  
                             l1874 058D                               l1794 07B8  
                             l1890 05BB                               l1882 05A3  
                             l1954 07EC                               l1946 07E7  
                             l1970 03D0                               l1962 03C9  
                             l1876 0593                               l1868 057C  
                             l1796 07BF                               l1892 05C6  
                             l1884 05A8                               l1956 07ED  
                             l1948 07E9                               l1980 03D7  
                             l1972 03D1                               l1964 03CB  
                             l1878 0597                               l1798 07C1  
                             l1894 05CD                               l1886 05AE  
                             l1990 03DC                               l1982 03D8  
                             l1974 03D3                               l1966 03CD  
                             l1958 03C2                               l1896 05CF  
                             l1888 05B5                               l1992 03DD  
                             l1984 03D9                               l1976 03D5  
                             l1968 03CF                               l1898 05D3  
                             l1994 03DE                               l1986 03DA  
                             l1978 03D6                               l1996 03DF  
                             l1988 03DB                               l1998 03E0  
                             ?_isr 0070                               u1510 07FB  
                             u1511 07FA                               u1600 04D4  
                             u1520 07BF                               u1601 04D3  
                             u1521 07BE                               u1530 0741  
                             u1610 0523                               u1531 0740  
                             u1611 0522                               u1700 0577  
                             u1620 052D                               u1701 0576  
                             u1621 052C                               u1710 057C  
                             u1630 053B                               u1711 057B  
                             u1631 053A                               u1560 075F  
                             u1720 0587                               u1640 0544  
                             u1800 0653                               u1561 075E  
                             u1545 074A                               u1721 0586  
                             u1641 0543                               u1801 0652  
                             u1730 0593                               u1650 0549  
                             u1570 04B8                               u1810 0659  
                             u1555 0751                               u1731 0592  
                             u1651 0548                               u1571 04B7  
                             u1811 0658                               u1660 0556  
                             u1580 04C2                               u1820 065F  
                             u1740 05AE                               u1661 0555  
                             u1581 04C1                               u1821 065E  
                             u1741 05AD                               u1670 055E  
                             u1590 04C7                               u1750 05BB  
                             u1830 0419                               u1671 055D  
                             u1591 04C6                               u1751 05BA  
                             u1831 0418                               u1680 0563  
                             u1760 05C1                               u1840 042F  
                             u1681 0562                               u1761 05C0  
                             u1841 042E                               u1690 0570  
                             u1770 0604                               u1850 0444  
                             u1691 056F                               u1771 0603  
                             u1851 0443                               u1780 060A  
                             u1860 048D                               u1781 0609  
                             u1861 048C                               u1790 0610  
                             u1870 0497                               u1791 060F  
                             u1871 0496                               u1880 049F  
                             u1881 049E                               u1890 04AC  
                             u1891 04AB                               _PEIE 005E  
                             _INTE 38B0             __size_of_ButtonProcess 005F  
                             _gate 005E                               _main 03C2  
                             fsr0h 0005                               fsr1h 0007  
                             indf0 0000                               fsr0l 0004  
                             indf1 0001                               fsr1l 0006  
                             btemp 007E                               start 00E9  
              ButtonDebounceInit@i 0022                   playNote@duration 0024  
                            ??_isr 0076                              _ADACT 009F  
                            ?_main 003F                              _ADRES 009B  
                  __end_of___lldiv 0734                              _LATA1 00C1  
                            _LATA2 00C2                              _LATC0 00D0  
                            _LATC1 00D1                              _LATC2 00D2  
                            _LATC3 00D3                              _LATC4 00D4  
                            _LATC5 00D5                              _IOCIE 38B4  
                            i1l211 00E5                              i1l212 00E7  
                            i1l208 00E3                              i1l358 06CB  
                            i1l359 06D8                              i1l368 0FFF  
                            _PORTA 000C                              _WPUA0 F9C8  
                            _WPUA3 F9CB                ___lmul@multiplicand 0024  
                            _sheRa 02D2                              _notes 0794  
                   __pbitbssCOMMON 03E8                     ButtonProcess@i 0074  
                            status 0003                              wtemp0 007E  
                  __initialization 00EB                      _ButtonCurrent 0FF8  
                     __end_of_main 04B2                    _chargeIndicator 04B2  
                    _ButtonProcess 067A                             ??_main 0043  
                           _ANSELC 1F4E                             _IOCAF0 F9F8  
                           i1l1520 0693                             i1l1530 06AA  
                           i1l1522 0694                             i1l1532 06AE  
                           i1l1516 067B                             i1l1700 002C  
                           i1l1534 06B4                             i1l1518 0680  
                           i1l1710 0042                             i1l1702 0030  
                           i1l1536 06C6                             i1l1528 069C  
                           i1l1712 0048                             i1l1720 005D  
                           i1l1704 0034                             i1l1538 0FF9  
                           i1l1730 0071                             i1l1722 005F  
                           i1l1714 004E                             i1l1706 0036  
                           i1l1740 008A                             i1l1732 0076  
                           i1l1716 0052                             i1l1708 003B  
                           i1l1724 0061                             i1l1750 00AF  
                           i1l1742 008E                             i1l1734 007B  
                           i1l1726 0065                             i1l1718 0058  
                           i1l1760 00CA                             i1l1752 00B5  
                           i1l1744 008F                             i1l1736 0081  
                           i1l1728 006B                             u130_20 002C  
                           u130_21 002B                             i1l1762 00D0  
                           i1l1746 0095                             i1l1738 0084  
                           i1l1754 00B8                             i1l1690 001A  
                           i1l1682 0006                             i1l1764 00D2  
                           i1l1756 00BE                             i1l1748 009A  
                           i1l1692 001C                             i1l1684 000B  
                           i1l1766 00DA                             i1l1758 00C4  
                           i1l1694 0020                             i1l1686 0010  
                           u131_20 003B                             i1l1688 0016  
                           i1l1696 0024                             u131_21 003A  
                           i1l1698 0028                             u116_20 06B4  
                           u140_20 008A                             u132_20 0042  
                           u116_21 06B3                             u140_21 0089  
                           u132_21 0041                             u117_20 06C6  
                           u141_20 0095                             u133_20 0048  
                           u125_20 000B                             u117_21 06C5  
                           u141_21 0094                             u133_21 0047  
                           u125_21 000A                             u142_20 00AF  
                           u134_20 004E                             u126_20 0010  
                           u142_21 00AE                             u134_21 004D  
                           u126_21 000F                             u150_24 00E2  
                           u143_20 00BE                             u135_20 0058  
                           u127_20 0016                             u143_21 00BD  
                           u135_21 0057                             u127_21 0015  
                           u144_20 00C4                             u136_20 0065  
                           u128_20 001A                             u144_21 00C3  
                           u136_21 0064                             u128_21 0019  
                           u145_20 00CA                             u137_20 006B  
                           u129_20 0028                             u145_21 00C9  
                           u137_21 006A                             u129_21 0027  
                           u146_20 00D0                             u138_20 0071  
                           u146_21 00CF                             u138_21 0070  
                           u147_20 00D8                             u139_20 0081  
                           u147_21 00D5                             u139_21 0080  
                           u148_24 00DA                             u149_20 00E0  
                           u149_21 00DD                             _NVMADR 081A  
                           _TMR0IE 38B5                             _TMR2IE 38BE  
                           _TRISA0 0090                             _TRISA1 0091  
                           _TRISA2 0092                             _TRISA3 0093  
                           _TRISA4 0094                             _TRISC0 00A0  
                           _TRISA5 0095                             _TRISC1 00A1  
                           _TRISC2 00A2                             _TRISC3 00A3  
                           _TRISC4 00A4                             _TRISC5 00A5  
                 __end_of_doTheArc 067A                     ?_ButtonCurrent 0070  
                           _aPorts 00A0                             ___lmul 0734  
                   ?_ButtonProcess 0070                          ??___lldiv 0034  
                           _noGate 0064                   __end_of_playNote 07DA  
          __end_of__initialization 010E            __end_of_chargeIndicator 059F  
                   __pcstackCOMMON 0070                       __pidataBANK0 07FC  
                    __end_of_sheRa 03C2                      __end_of_notes 07B8  
            __end_of_blockingDelay 07FC                         _abortAbort 005C  
                       __pbssBANK0 0044                         __pbssBANK1 00A0  
                  ??_ButtonCurrent 0071        __size_of_ButtonDebounceInit 002C  
                  ??_ButtonProcess 0071                         __pmaintext 03C2  
                       _goToLPmode 07DA                            ?___lmul 0020  
                       __pintentry 0004                     ___lmul@product 0028  
                        ?_doTheArc 0070                       _clockDivider 007C  
                 ?_chargeIndicator 0070                          ?_playNote 0022  
                __end_of_gargoyles 02D2                    __size_of___lmul 0034  
                          ___lldiv 06D9                            __ptext1 07DA  
                          __ptext2 059F                            __ptext3 07B8  
                          __ptext4 04B2                            __ptext5 07F0  
                          __ptext6 0734                            __ptext7 06D9  
                          __ptext8 0768                            _lidOpen 0050  
                        _T2CONbits 028E                       __size_of_isr 00E5  
                       ??_doTheArc 0026                          _T2HLTbits 028F  
             _chargeIndicator$1114 003B                       _genericDelay 0077  
                          clrloop0 0FF3               end_of_initialization 010E  
                    _calibrationMV 0044                         ??_playNote 0026  
                  ___lldiv@divisor 002C                    ___lldiv@counter 0039  
                      ?_goToLPmode 0070                          _OSCENbits 0891  
                       _showCharge 0054                          _PORTAbits 000C  
ButtonDebounceInit@pulledUpButtons 0020            ButtonProcess@portStatus 0070  
                       _postscaler 005A                     __end_of___lmul 0768  
              start_initialization 00EB                        __end_of_isr 00E9  
              __size_of_goToLPmode 0016                     _buttonDebounce 007B  
      ButtonCurrent@GPIOButtonPins 0070                 blockingDelay@mSecs 0020  
           ButtonDebounceInit@port 0023                           ??___lmul 0028  
                      __pdataBANK0 0064                  ButtonCurrent@port 0071  
                      __pbssCOMMON 0077                          ___latbits 0001  
                    __pcstackBANK0 0020                        _chargeCycle 0062  
                __size_of_doTheArc 00DB         __end_of_ButtonDebounceInit 0794  
                        _battVolts 004A                          _debugging 0066  
            __end_of_ButtonCurrent 1000             __size_of_blockingDelay 000C  
                __size_of_playNote 0022              __end_of_ButtonProcess 06D9  
                         ?___lldiv 002C                          _gargoyles 0112  
                     playNote@note 0022                           _T2CLKCON 0290  
                        _playIndex 0058                          clear_ram0 0FF2  
                         _PIR0bits 070C                           _PIR1bits 070D  
                     ??_goToLPmode 0026           __size_of_chargeIndicator 00ED  
                        _poweredOn 0056                         _ADCON0bits 009D  
                       _ADCON1bits 009E                      _blockingDelay 07F0  
                ___lmul@multiplier 0020                 __end_of_goToLPmode 07F0  
                     _lowPowerMode 0052                        _gotTheTouch 004E  
                 __size_of___lldiv 005B                           _adcVolts 0048  
                       _ANSELAbits 1F38                           _doTheArc 059F  
                   ?_blockingDelay 0020                         _T0CON0bits 059E  
                       _T0CON1bits 059F                           _charging 004C  
                         __ptext10 067A                           __ptext11 0FF8  
                         _forceArc 0079                      __size_of_main 00F0  
                         _pinState 03E8                           _playNote 07B8  
                         _runIndex 0063                           int$flags 007E  
                         main@argc 003F                           main@argv 0041  
                ??_chargeIndicator 003A                        _NVMCON1bits 081E  
                       _FVRCONbits 090C                           intlevel1 0000  
                 ___lldiv@dividend 0030                  ButtonProcess@port 0075  
                       _OSCFRQbits 0893                 _ButtonDebounceInit 0768  
                    __pstringtext1 0112                      __pstringtext2 02D2  
                    __pstringtext3 0794                    ??_blockingDelay 0022  
                 ___lldiv@quotient 0035                ?_ButtonDebounceInit 0020  
  ButtonProcess@lastDebouncedState 0073               ??_ButtonDebounceInit 0021  
