

Microchip MPLAB XC8 Assembler V2.32 build 20210201212658 
                                                                                               Thu Sep 23 17:03:54 2021

Microchip MPLAB XC8 C Compiler v2.32 (Free license) build 20210201212658 Og1 
     1                           	processor	16F15224
     2                           	pagewidth 120
     3                           	opt	flic
     4                           	psect	idataBANK0,global,class=CODE,delta=2,noexec
     5                           	psect	stringtext1,global,class=STRCODE,delta=2,noexec
     6                           	psect	stringtext2,global,class=STRCODE,delta=2,noexec
     7                           	psect	stringtext3,global,class=STRCODE,delta=2,noexec
     8                           	psect	cinit,global,class=CODE,merge=1,delta=2
     9                           	psect	bitbssCOMMON,global,bit,class=COMMON,space=1,delta=1,noexec
    10                           	psect	bssBANK0,global,class=BANK0,space=1,delta=1,noexec
    11                           	psect	dataBANK0,global,class=BANK0,space=1,delta=1,noexec
    12                           	psect	clrtext,global,class=CODE,delta=2
    13                           	psect	cstackCOMMON,global,class=COMMON,space=1,delta=1,noexec
    14                           	psect	cstackBANK0,global,class=BANK0,space=1,delta=1,noexec
    15                           	psect	maintext,global,class=CODE,merge=1,split=1,delta=2
    16                           	psect	text1,local,class=CODE,merge=1,delta=2
    17                           	psect	text2,local,class=CODE,merge=1,delta=2
    18                           	psect	text3,local,class=CODE,merge=1,delta=2
    19                           	psect	text4,local,class=CODE,merge=1,delta=2
    20                           	psect	text5,local,class=CODE,merge=1,delta=2
    21                           	psect	text6,local,class=CODE,merge=1,delta=2,group=2
    22                           	psect	text7,local,class=CODE,merge=1,delta=2,group=2
    23                           	psect	text8,local,class=CODE,merge=1,delta=2,group=1
    24                           	psect	intentry,global,class=CODE,delta=2
    25                           	psect	config,global,abs,ovrld,class=CONFIG,space=4,delta=2,noexec
    26                           	dabs	1,0x7E,2
    27  0000                     
    28                           ; Version 2.35
    29                           ; Generated 01/06/2021 GMT
    30                           ; 
    31                           ; Copyright © 2021, Microchip Technology Inc. and its subsidiaries ("Microchip")
    32                           ; All rights reserved.
    33                           ; 
    34                           ; This software is developed by Microchip Technology Inc. and its subsidiaries ("Microch
      +                          ip").
    35                           ; 
    36                           ; Redistribution and use in source and binary forms, with or without modification, are
    37                           ; permitted provided that the following conditions are met:
    38                           ; 
    39                           ;     1. Redistributions of source code must retain the above copyright notice, this lis
      +                          t of
    40                           ;        conditions and the following disclaimer.
    41                           ; 
    42                           ;     2. Redistributions in binary form must reproduce the above copyright notice, this 
      +                          list
    43                           ;        of conditions and the following disclaimer in the documentation and/or other
    44                           ;        materials provided with the distribution. Publication is not required when
    45                           ;        this file is used in an embedded application.
    46                           ; 
    47                           ;     3. Microchip's name may not be used to endorse or promote products derived from th
      +                          is
    48                           ;        software without specific prior written permission.
    49                           ; 
    50                           ; THIS SOFTWARE IS PROVIDED BY MICROCHIP "AS IS" AND ANY EXPRESS OR IMPLIED WARRANTIES,
    51                           ; INCLUDING, BUT NOT LIMITED TO, THE IMPLIED WARRANTIES OF MERCHANTABILITY AND FITNESS F
      +                          OR
    52                           ; PURPOSE ARE DISCLAIMED.  IN NO EVENT SHALL MICROCHIP BE LIABLE FOR ANY DIRECT, INDIREC
      +                          T,
    53                           ; INCIDENTAL, SPECIAL, EXEMPLARY, OR CONSEQUENTIAL DAMAGES (INCLUDING BUT NOT LIMITED TO
    54                           ; PROCUREMENT OF SUBSTITUTE GOODS OR SERVICES; LOSS OF USE, DATA OR PROFITS; OR BUSINESS
    55                           ; INTERRUPTION) HOWSOEVER CAUSED AND ON ANY THEORY OF LIABILITY, WHETHER IN CONTRACT, ST
      +                          RICT
    56                           ; LIABILITY, OR TORT (INCLUDING NEGLIGENCE OR OTHERWISE) ARISING IN ANY WAY OUT OF THE U
      +                          SE OF
    57                           ; THIS SOFTWARE, EVEN IF ADVISED OF THE POSSIBILITY OF SUCH DAMAGE.
    58                           ; 
    59                           ; 
    60                           ; Code-generator required, PIC16F15224 Definitions
    61                           ; 
    62                           ; SFR Addresses
    63  0000                     	;# 
    64  0001                     	;# 
    65  0002                     	;# 
    66  0003                     	;# 
    67  0004                     	;# 
    68  0005                     	;# 
    69  0006                     	;# 
    70  0007                     	;# 
    71  0008                     	;# 
    72  0009                     	;# 
    73  000A                     	;# 
    74  000B                     	;# 
    75  000C                     	;# 
    76  000E                     	;# 
    77  0012                     	;# 
    78  0014                     	;# 
    79  0018                     	;# 
    80  001A                     	;# 
    81  009A                     	;# 
    82  009B                     	;# 
    83  009B                     	;# 
    84  009C                     	;# 
    85  009D                     	;# 
    86  009E                     	;# 
    87  009F                     	;# 
    88  010E                     	;# 
    89  010F                     	;# 
    90  0119                     	;# 
    91  011A                     	;# 
    92  011B                     	;# 
    93  011B                     	;# 
    94  011C                     	;# 
    95  011D                     	;# 
    96  011E                     	;# 
    97  011F                     	;# 
    98  018C                     	;# 
    99  018D                     	;# 
   100  018E                     	;# 
   101  018F                     	;# 
   102  0190                     	;# 
   103  0191                     	;# 
   104  0192                     	;# 
   105  020C                     	;# 
   106  020D                     	;# 
   107  020E                     	;# 
   108  020E                     	;# 
   109  020F                     	;# 
   110  020F                     	;# 
   111  0210                     	;# 
   112  0210                     	;# 
   113  0211                     	;# 
   114  0211                     	;# 
   115  028C                     	;# 
   116  028C                     	;# 
   117  028D                     	;# 
   118  028D                     	;# 
   119  028E                     	;# 
   120  028F                     	;# 
   121  0290                     	;# 
   122  0291                     	;# 
   123  030C                     	;# 
   124  030C                     	;# 
   125  030D                     	;# 
   126  030E                     	;# 
   127  030F                     	;# 
   128  0310                     	;# 
   129  0310                     	;# 
   130  0311                     	;# 
   131  0312                     	;# 
   132  0313                     	;# 
   133  0314                     	;# 
   134  0314                     	;# 
   135  0315                     	;# 
   136  0316                     	;# 
   137  0318                     	;# 
   138  0318                     	;# 
   139  0319                     	;# 
   140  031A                     	;# 
   141  059C                     	;# 
   142  059C                     	;# 
   143  059D                     	;# 
   144  059D                     	;# 
   145  059E                     	;# 
   146  059F                     	;# 
   147  070C                     	;# 
   148  070D                     	;# 
   149  070E                     	;# 
   150  0716                     	;# 
   151  0717                     	;# 
   152  0718                     	;# 
   153  080C                     	;# 
   154  0811                     	;# 
   155  0813                     	;# 
   156  0814                     	;# 
   157  081A                     	;# 
   158  081A                     	;# 
   159  081B                     	;# 
   160  081C                     	;# 
   161  081C                     	;# 
   162  081D                     	;# 
   163  081E                     	;# 
   164  081F                     	;# 
   165  088E                     	;# 
   166  0890                     	;# 
   167  0891                     	;# 
   168  0892                     	;# 
   169  0893                     	;# 
   170  090C                     	;# 
   171  1E8F                     	;# 
   172  1E90                     	;# 
   173  1E91                     	;# 
   174  1E92                     	;# 
   175  1E93                     	;# 
   176  1E9C                     	;# 
   177  1EA1                     	;# 
   178  1EA2                     	;# 
   179  1EC3                     	;# 
   180  1EC5                     	;# 
   181  1EC6                     	;# 
   182  1EC7                     	;# 
   183  1ECB                     	;# 
   184  1ECB                     	;# 
   185  1ECB                     	;# 
   186  1ECC                     	;# 
   187  1ECC                     	;# 
   188  1ECC                     	;# 
   189  1F10                     	;# 
   190  1F11                     	;# 
   191  1F12                     	;# 
   192  1F14                     	;# 
   193  1F15                     	;# 
   194  1F20                     	;# 
   195  1F21                     	;# 
   196  1F22                     	;# 
   197  1F23                     	;# 
   198  1F24                     	;# 
   199  1F25                     	;# 
   200  1F38                     	;# 
   201  1F39                     	;# 
   202  1F3A                     	;# 
   203  1F3B                     	;# 
   204  1F3C                     	;# 
   205  1F3D                     	;# 
   206  1F3E                     	;# 
   207  1F3F                     	;# 
   208  1F4E                     	;# 
   209  1F4F                     	;# 
   210  1F50                     	;# 
   211  1F51                     	;# 
   212  1F52                     	;# 
   213  1F53                     	;# 
   214  1F54                     	;# 
   215  1F55                     	;# 
   216  1FE4                     	;# 
   217  1FE5                     	;# 
   218  1FE6                     	;# 
   219  1FE7                     	;# 
   220  1FE8                     	;# 
   221  1FE8                     	;# 
   222  1FE9                     	;# 
   223  1FEA                     	;# 
   224  1FEB                     	;# 
   225  1FED                     	;# 
   226  1FEE                     	;# 
   227  1FEF                     	;# 
   228                           
   229                           	psect	idataBANK0
   230  0786                     __pidataBANK0:
   231                           
   232                           ;initializer for _noGate
   233  0786  3401               	retlw	1
   234  0787  3400               	retlw	0
   235                           
   236                           	psect	stringtext1
   237  00F9                     __pstringtext1:
   238  00F9                     _gargoyles:
   239  00F9  341E               	retlw	30
   240  00FA  3400               	retlw	0
   241  00FB  343E               	retlw	62
   242  00FC  3406               	retlw	6
   243  00FD  341C               	retlw	28
   244  00FE  3400               	retlw	0
   245  00FF  3466               	retlw	102
   246  0100  3401               	retlw	1
   247  0101  3400               	retlw	0
   248  0102  3400               	retlw	0
   249  0103  3428               	retlw	40
   250  0104  3400               	retlw	0
   251  0105  341A               	retlw	26
   252  0106  3400               	retlw	0
   253  0107  3466               	retlw	102
   254  0108  3401               	retlw	1
   255  0109  3400               	retlw	0
   256  010A  3400               	retlw	0
   257  010B  3428               	retlw	40
   258  010C  3400               	retlw	0
   259  010D  3419               	retlw	25
   260  010E  3400               	retlw	0
   261  010F  3466               	retlw	102
   262  0110  3401               	retlw	1
   263  0111  3400               	retlw	0
   264  0112  3400               	retlw	0
   265  0113  3428               	retlw	40
   266  0114  3400               	retlw	0
   267  0115  3417               	retlw	23
   268  0116  3400               	retlw	0
   269  0117  3466               	retlw	102
   270  0118  3401               	retlw	1
   271  0119  3400               	retlw	0
   272  011A  3400               	retlw	0
   273  011B  3428               	retlw	40
   274  011C  3400               	retlw	0
   275  011D  341F               	retlw	31
   276  011E  3400               	retlw	0
   277  011F  34AE               	retlw	174
   278  0120  3404               	retlw	4
   279  0121  341E               	retlw	30
   280  0122  3400               	retlw	0
   281  0123  34C6               	retlw	198
   282  0124  3400               	retlw	0
   283  0125  341C               	retlw	28
   284  0126  3400               	retlw	0
   285  0127  34C6               	retlw	198
   286  0128  3400               	retlw	0
   287  0129  3419               	retlw	25
   288  012A  3400               	retlw	0
   289  012B  3469               	retlw	105
   290  012C  3405               	retlw	5
   291  012D  3400               	retlw	0
   292  012E  3400               	retlw	0
   293  012F  3450               	retlw	80
   294  0130  3400               	retlw	0
   295  0131  341E               	retlw	30
   296  0132  3400               	retlw	0
   297  0133  343E               	retlw	62
   298  0134  3406               	retlw	6
   299  0135  341A               	retlw	26
   300  0136  3400               	retlw	0
   301  0137  347A               	retlw	122
   302  0138  3401               	retlw	1
   303  0139  3400               	retlw	0
   304  013A  3400               	retlw	0
   305  013B  3414               	retlw	20
   306  013C  3400               	retlw	0
   307  013D  341C               	retlw	28
   308  013E  3400               	retlw	0
   309  013F  347A               	retlw	122
   310  0140  3401               	retlw	1
   311  0141  3400               	retlw	0
   312  0142  3400               	retlw	0
   313  0143  3414               	retlw	20
   314  0144  3400               	retlw	0
   315  0145  341E               	retlw	30
   316  0146  3400               	retlw	0
   317  0147  347A               	retlw	122
   318  0148  3401               	retlw	1
   319  0149  3400               	retlw	0
   320  014A  3400               	retlw	0
   321  014B  3414               	retlw	20
   322  014C  3400               	retlw	0
   323  014D  341C               	retlw	28
   324  014E  3400               	retlw	0
   325  014F  347A               	retlw	122
   326  0150  3401               	retlw	1
   327  0151  3400               	retlw	0
   328  0152  3400               	retlw	0
   329  0153  3414               	retlw	20
   330  0154  3400               	retlw	0
   331  0155  341C               	retlw	28
   332  0156  3400               	retlw	0
   333  0157  34F6               	retlw	246
   334  0158  3402               	retlw	2
   335  0159  3400               	retlw	0
   336  015A  3400               	retlw	0
   337  015B  3428               	retlw	40
   338  015C  3400               	retlw	0
   339  015D  341F               	retlw	31
   340  015E  3400               	retlw	0
   341  015F  34F6               	retlw	246
   342  0160  3402               	retlw	2
   343  0161  3400               	retlw	0
   344  0162  3400               	retlw	0
   345  0163  3428               	retlw	40
   346  0164  3400               	retlw	0
   347  0165  3422               	retlw	34
   348  0166  3400               	retlw	0
   349  0167  3469               	retlw	105
   350  0168  3405               	retlw	5
   351  0169  3400               	retlw	0
   352  016A  3400               	retlw	0
   353  016B  3450               	retlw	80
   354  016C  3400               	retlw	0
   355  016D  341A               	retlw	26
   356  016E  3400               	retlw	0
   357  016F  340A               	retlw	10
   358  0170  3403               	retlw	3
   359  0171  3400               	retlw	0
   360  0172  3400               	retlw	0
   361  0173  3414               	retlw	20
   362  0174  3400               	retlw	0
   363  0175  3419               	retlw	25
   364  0176  3400               	retlw	0
   365  0177  347A               	retlw	122
   366  0178  3401               	retlw	1
   367  0179  3400               	retlw	0
   368  017A  3400               	retlw	0
   369  017B  3414               	retlw	20
   370  017C  3400               	retlw	0
   371  017D  3417               	retlw	23
   372  017E  3400               	retlw	0
   373  017F  3466               	retlw	102
   374  0180  3401               	retlw	1
   375  0181  3400               	retlw	0
   376  0182  3400               	retlw	0
   377  0183  3428               	retlw	40
   378  0184  3400               	retlw	0
   379  0185  3419               	retlw	25
   380  0186  3400               	retlw	0
   381  0187  341E               	retlw	30
   382  0188  3403               	retlw	3
   383  0189  341C               	retlw	28
   384  018A  3400               	retlw	0
   385  018B  34F6               	retlw	246
   386  018C  3402               	retlw	2
   387  018D  3400               	retlw	0
   388  018E  3400               	retlw	0
   389  018F  3428               	retlw	40
   390  0190  3400               	retlw	0
   391  0191  341C               	retlw	28
   392  0192  3400               	retlw	0
   393  0193  34F6               	retlw	246
   394  0194  3402               	retlw	2
   395  0195  3400               	retlw	0
   396  0196  3400               	retlw	0
   397  0197  3428               	retlw	40
   398  0198  3400               	retlw	0
   399  0199  341A               	retlw	26
   400  019A  3400               	retlw	0
   401  019B  3466               	retlw	102
   402  019C  3401               	retlw	1
   403  019D  3400               	retlw	0
   404  019E  3400               	retlw	0
   405  019F  3428               	retlw	40
   406  01A0  3400               	retlw	0
   407  01A1  3419               	retlw	25
   408  01A2  3400               	retlw	0
   409  01A3  3466               	retlw	102
   410  01A4  3401               	retlw	1
   411  01A5  3400               	retlw	0
   412  01A6  3400               	retlw	0
   413  01A7  3428               	retlw	40
   414  01A8  3400               	retlw	0
   415  01A9  341A               	retlw	26
   416  01AA  3400               	retlw	0
   417  01AB  341E               	retlw	30
   418  01AC  3403               	retlw	3
   419  01AD  341E               	retlw	30
   420  01AE  3400               	retlw	0
   421  01AF  34F6               	retlw	246
   422  01B0  3402               	retlw	2
   423  01B1  3400               	retlw	0
   424  01B2  3400               	retlw	0
   425  01B3  3428               	retlw	40
   426  01B4  3400               	retlw	0
   427  01B5  341E               	retlw	30
   428  01B6  3400               	retlw	0
   429  01B7  34F6               	retlw	246
   430  01B8  3402               	retlw	2
   431  01B9  3400               	retlw	0
   432  01BA  3400               	retlw	0
   433  01BB  3428               	retlw	40
   434  01BC  3400               	retlw	0
   435  01BD  341D               	retlw	29
   436  01BE  3400               	retlw	0
   437  01BF  3466               	retlw	102
   438  01C0  3401               	retlw	1
   439  01C1  3400               	retlw	0
   440  01C2  3400               	retlw	0
   441  01C3  3428               	retlw	40
   442  01C4  3400               	retlw	0
   443  01C5  341B               	retlw	27
   444  01C6  3400               	retlw	0
   445  01C7  3466               	retlw	102
   446  01C8  3401               	retlw	1
   447  01C9  3400               	retlw	0
   448  01CA  3400               	retlw	0
   449  01CB  3428               	retlw	40
   450  01CC  3400               	retlw	0
   451  01CD  341D               	retlw	29
   452  01CE  3400               	retlw	0
   453  01CF  341E               	retlw	30
   454  01D0  3403               	retlw	3
   455  01D1  3420               	retlw	32
   456  01D2  3400               	retlw	0
   457  01D3  34F6               	retlw	246
   458  01D4  3402               	retlw	2
   459  01D5  3400               	retlw	0
   460  01D6  3400               	retlw	0
   461  01D7  3428               	retlw	40
   462  01D8  3400               	retlw	0
   463  01D9  3420               	retlw	32
   464  01DA  3400               	retlw	0
   465  01DB  34F6               	retlw	246
   466  01DC  3402               	retlw	2
   467  01DD  3400               	retlw	0
   468  01DE  3400               	retlw	0
   469  01DF  3428               	retlw	40
   470  01E0  3400               	retlw	0
   471  01E1  341E               	retlw	30
   472  01E2  3400               	retlw	0
   473  01E3  3466               	retlw	102
   474  01E4  3401               	retlw	1
   475  01E5  3400               	retlw	0
   476  01E6  3400               	retlw	0
   477  01E7  3428               	retlw	40
   478  01E8  3400               	retlw	0
   479  01E9  341D               	retlw	29
   480  01EA  3400               	retlw	0
   481  01EB  3466               	retlw	102
   482  01EC  3401               	retlw	1
   483  01ED  3400               	retlw	0
   484  01EE  3400               	retlw	0
   485  01EF  3428               	retlw	40
   486  01F0  3400               	retlw	0
   487  01F1  3422               	retlw	34
   488  01F2  3400               	retlw	0
   489  01F3  34EE               	retlw	238
   490  01F4  3405               	retlw	5
   491  01F5  3400               	retlw	0
   492  01F6  3400               	retlw	0
   493  01F7  3450               	retlw	80
   494  01F8  3400               	retlw	0
   495  01F9  341E               	retlw	30
   496  01FA  3400               	retlw	0
   497  01FB  343E               	retlw	62
   498  01FC  3406               	retlw	6
   499  01FD  341C               	retlw	28
   500  01FE  3400               	retlw	0
   501  01FF  3466               	retlw	102
   502  0200  3401               	retlw	1
   503  0201  3400               	retlw	0
   504  0202  3400               	retlw	0
   505  0203  3428               	retlw	40
   506  0204  3400               	retlw	0
   507  0205  341A               	retlw	26
   508  0206  3400               	retlw	0
   509  0207  3466               	retlw	102
   510  0208  3401               	retlw	1
   511  0209  3400               	retlw	0
   512  020A  3400               	retlw	0
   513  020B  3428               	retlw	40
   514  020C  3400               	retlw	0
   515  020D  3419               	retlw	25
   516  020E  3400               	retlw	0
   517  020F  3466               	retlw	102
   518  0210  3401               	retlw	1
   519  0211  3400               	retlw	0
   520  0212  3400               	retlw	0
   521  0213  3428               	retlw	40
   522  0214  3400               	retlw	0
   523  0215  3417               	retlw	23
   524  0216  3400               	retlw	0
   525  0217  3466               	retlw	102
   526  0218  3401               	retlw	1
   527  0219  3400               	retlw	0
   528  021A  3400               	retlw	0
   529  021B  3428               	retlw	40
   530  021C  3400               	retlw	0
   531  021D  341F               	retlw	31
   532  021E  3400               	retlw	0
   533  021F  34AE               	retlw	174
   534  0220  3404               	retlw	4
   535  0221  341E               	retlw	30
   536  0222  3400               	retlw	0
   537  0223  34C6               	retlw	198
   538  0224  3400               	retlw	0
   539  0225  341C               	retlw	28
   540  0226  3400               	retlw	0
   541  0227  34C6               	retlw	198
   542  0228  3400               	retlw	0
   543  0229  3419               	retlw	25
   544  022A  3400               	retlw	0
   545  022B  3469               	retlw	105
   546  022C  3405               	retlw	5
   547  022D  3400               	retlw	0
   548  022E  3400               	retlw	0
   549  022F  3450               	retlw	80
   550  0230  3400               	retlw	0
   551  0231  341E               	retlw	30
   552  0232  3400               	retlw	0
   553  0233  343E               	retlw	62
   554  0234  3406               	retlw	6
   555  0235  341A               	retlw	26
   556  0236  3400               	retlw	0
   557  0237  347A               	retlw	122
   558  0238  3401               	retlw	1
   559  0239  3400               	retlw	0
   560  023A  3400               	retlw	0
   561  023B  3414               	retlw	20
   562  023C  3400               	retlw	0
   563  023D  341C               	retlw	28
   564  023E  3400               	retlw	0
   565  023F  347A               	retlw	122
   566  0240  3401               	retlw	1
   567  0241  3400               	retlw	0
   568  0242  3400               	retlw	0
   569  0243  3414               	retlw	20
   570  0244  3400               	retlw	0
   571  0245  341E               	retlw	30
   572  0246  3400               	retlw	0
   573  0247  347A               	retlw	122
   574  0248  3401               	retlw	1
   575  0249  3400               	retlw	0
   576  024A  3400               	retlw	0
   577  024B  3414               	retlw	20
   578  024C  3400               	retlw	0
   579  024D  341C               	retlw	28
   580  024E  3400               	retlw	0
   581  024F  347A               	retlw	122
   582  0250  3401               	retlw	1
   583  0251  3400               	retlw	0
   584  0252  3400               	retlw	0
   585  0253  3414               	retlw	20
   586  0254  3400               	retlw	0
   587  0255  341C               	retlw	28
   588  0256  3400               	retlw	0
   589  0257  34F6               	retlw	246
   590  0258  3402               	retlw	2
   591  0259  3400               	retlw	0
   592  025A  3400               	retlw	0
   593  025B  3428               	retlw	40
   594  025C  3400               	retlw	0
   595  025D  341F               	retlw	31
   596  025E  3400               	retlw	0
   597  025F  34F6               	retlw	246
   598  0260  3402               	retlw	2
   599  0261  3400               	retlw	0
   600  0262  3400               	retlw	0
   601  0263  3428               	retlw	40
   602  0264  3400               	retlw	0
   603  0265  3422               	retlw	34
   604  0266  3400               	retlw	0
   605  0267  34B9               	retlw	185
   606  0268  3405               	retlw	5
   607  0269  3400               	retlw	0
   608  026A  3400               	retlw	0
   609  026B  3428               	retlw	40
   610  026C  3400               	retlw	0
   611  026D  3423               	retlw	35
   612  026E  3400               	retlw	0
   613  026F  340A               	retlw	10
   614  0270  3403               	retlw	3
   615  0271  3400               	retlw	0
   616  0272  3400               	retlw	0
   617  0273  3414               	retlw	20
   618  0274  3400               	retlw	0
   619  0275  3423               	retlw	35
   620  0276  3400               	retlw	0
   621  0277  346F               	retlw	111
   622  0278  3400               	retlw	0
   623  0279  3400               	retlw	0
   624  027A  3400               	retlw	0
   625  027B  3414               	retlw	20
   626  027C  3400               	retlw	0
   627  027D  3423               	retlw	35
   628  027E  3400               	retlw	0
   629  027F  346F               	retlw	111
   630  0280  3400               	retlw	0
   631  0281  3400               	retlw	0
   632  0282  3400               	retlw	0
   633  0283  3414               	retlw	20
   634  0284  3400               	retlw	0
   635  0285  3423               	retlw	35
   636  0286  3400               	retlw	0
   637  0287  346F               	retlw	111
   638  0288  3400               	retlw	0
   639  0289  3400               	retlw	0
   640  028A  3400               	retlw	0
   641  028B  3414               	retlw	20
   642  028C  3400               	retlw	0
   643  028D  3423               	retlw	35
   644  028E  3400               	retlw	0
   645  028F  340A               	retlw	10
   646  0290  3403               	retlw	3
   647  0291  3400               	retlw	0
   648  0292  3400               	retlw	0
   649  0293  3414               	retlw	20
   650  0294  3400               	retlw	0
   651  0295  3423               	retlw	35
   652  0296  3400               	retlw	0
   653  0297  346F               	retlw	111
   654  0298  3400               	retlw	0
   655  0299  3400               	retlw	0
   656  029A  3400               	retlw	0
   657  029B  3414               	retlw	20
   658  029C  3400               	retlw	0
   659  029D  3423               	retlw	35
   660  029E  3400               	retlw	0
   661  029F  346F               	retlw	111
   662  02A0  3400               	retlw	0
   663  02A1  3400               	retlw	0
   664  02A2  3400               	retlw	0
   665  02A3  3414               	retlw	20
   666  02A4  3400               	retlw	0
   667  02A5  3423               	retlw	35
   668  02A6  3400               	retlw	0
   669  02A7  346F               	retlw	111
   670  02A8  3400               	retlw	0
   671  02A9  3400               	retlw	0
   672  02AA  3400               	retlw	0
   673  02AB  3414               	retlw	20
   674  02AC  3400               	retlw	0
   675  02AD  3423               	retlw	35
   676  02AE  3400               	retlw	0
   677  02AF  346F               	retlw	111
   678  02B0  3400               	retlw	0
   679  02B1  3400               	retlw	0
   680  02B2  3400               	retlw	0
   681  02B3  3414               	retlw	20
   682  02B4  3400               	retlw	0
   683  02B5  3423               	retlw	35
   684  02B6  3400               	retlw	0
   685  02B7  341E               	retlw	30
   686  02B8  3403               	retlw	3
   687  02B9                     __end_of_gargoyles:
   688                           
   689                           	psect	stringtext2
   690  02B9                     __pstringtext2:
   691  02B9                     _sheRa:
   692  02B9  340B               	retlw	11
   693  02BA  3400               	retlw	0
   694  02BB  34D8               	retlw	216
   695  02BC  3400               	retlw	0
   696  02BD  340D               	retlw	13
   697  02BE  3400               	retlw	0
   698  02BF  34D8               	retlw	216
   699  02C0  3400               	retlw	0
   700  02C1  340E               	retlw	14
   701  02C2  3400               	retlw	0
   702  02C3  349C               	retlw	156
   703  02C4  3401               	retlw	1
   704  02C5  3400               	retlw	0
   705  02C6  3400               	retlw	0
   706  02C7  3415               	retlw	21
   707  02C8  3400               	retlw	0
   708  02C9  3412               	retlw	18
   709  02CA  3400               	retlw	0
   710  02CB  34A7               	retlw	167
   711  02CC  3401               	retlw	1
   712  02CD  3400               	retlw	0
   713  02CE  3400               	retlw	0
   714  02CF  3415               	retlw	21
   715  02D0  3400               	retlw	0
   716  02D1  3413               	retlw	19
   717  02D2  3400               	retlw	0
   718  02D3  348B               	retlw	139
   719  02D4  3402               	retlw	2
   720  02D5  3412               	retlw	18
   721  02D6  3400               	retlw	0
   722  02D7  346B               	retlw	107
   723  02D8  3400               	retlw	0
   724  02D9  3410               	retlw	16
   725  02DA  3400               	retlw	0
   726  02DB  346B               	retlw	107
   727  02DC  3400               	retlw	0
   728  02DD  3412               	retlw	18
   729  02DE  3400               	retlw	0
   730  02DF  3464               	retlw	100
   731  02E0  3403               	retlw	3
   732  02E1  3400               	retlw	0
   733  02E2  3400               	retlw	0
   734  02E3  34B1               	retlw	177
   735  02E4  3401               	retlw	1
   736  02E5  340B               	retlw	11
   737  02E6  3400               	retlw	0
   738  02E7  34D8               	retlw	216
   739  02E8  3400               	retlw	0
   740  02E9  340D               	retlw	13
   741  02EA  3400               	retlw	0
   742  02EB  34D8               	retlw	216
   743  02EC  3400               	retlw	0
   744  02ED  340E               	retlw	14
   745  02EE  3400               	retlw	0
   746  02EF  34B1               	retlw	177
   747  02F0  3401               	retlw	1
   748  02F1  3412               	retlw	18
   749  02F2  3400               	retlw	0
   750  02F3  34B1               	retlw	177
   751  02F4  3401               	retlw	1
   752  02F5  3417               	retlw	23
   753  02F6  3400               	retlw	0
   754  02F7  349C               	retlw	156
   755  02F8  3401               	retlw	1
   756  02F9  3400               	retlw	0
   757  02FA  3400               	retlw	0
   758  02FB  3415               	retlw	21
   759  02FC  3400               	retlw	0
   760  02FD  3415               	retlw	21
   761  02FE  3400               	retlw	0
   762  02FF  349C               	retlw	156
   763  0300  3401               	retlw	1
   764  0301  3400               	retlw	0
   765  0302  3400               	retlw	0
   766  0303  3415               	retlw	21
   767  0304  3400               	retlw	0
   768  0305  3412               	retlw	18
   769  0306  3400               	retlw	0
   770  0307  3464               	retlw	100
   771  0308  3403               	retlw	3
   772  0309  3400               	retlw	0
   773  030A  3400               	retlw	0
   774  030B  34B1               	retlw	177
   775  030C  3401               	retlw	1
   776  030D  340B               	retlw	11
   777  030E  3400               	retlw	0
   778  030F  34D8               	retlw	216
   779  0310  3400               	retlw	0
   780  0311  340D               	retlw	13
   781  0312  3400               	retlw	0
   782  0313  34D8               	retlw	216
   783  0314  3400               	retlw	0
   784  0315  340E               	retlw	14
   785  0316  3400               	retlw	0
   786  0317  34B1               	retlw	177
   787  0318  3401               	retlw	1
   788  0319  3412               	retlw	18
   789  031A  3400               	retlw	0
   790  031B  34B1               	retlw	177
   791  031C  3401               	retlw	1
   792  031D  3413               	retlw	19
   793  031E  3400               	retlw	0
   794  031F  348B               	retlw	139
   795  0320  3402               	retlw	2
   796  0321  3412               	retlw	18
   797  0322  3400               	retlw	0
   798  0323  346B               	retlw	107
   799  0324  3400               	retlw	0
   800  0325  3410               	retlw	16
   801  0326  3400               	retlw	0
   802  0327  346B               	retlw	107
   803  0328  3400               	retlw	0
   804  0329  3412               	retlw	18
   805  032A  3400               	retlw	0
   806  032B  3464               	retlw	100
   807  032C  3403               	retlw	3
   808  032D  3413               	retlw	19
   809  032E  3400               	retlw	0
   810  032F  342F               	retlw	47
   811  0330  3401               	retlw	1
   812  0331  3400               	retlw	0
   813  0332  3400               	retlw	0
   814  0333  3415               	retlw	21
   815  0334  3400               	retlw	0
   816  0335  3412               	retlw	18
   817  0336  3400               	retlw	0
   818  0337  342F               	retlw	47
   819  0338  3401               	retlw	1
   820  0339  3400               	retlw	0
   821  033A  3400               	retlw	0
   822  033B  3415               	retlw	21
   823  033C  3400               	retlw	0
   824  033D  3413               	retlw	19
   825  033E  3400               	retlw	0
   826  033F  34C2               	retlw	194
   827  0340  3400               	retlw	0
   828  0341  3400               	retlw	0
   829  0342  3400               	retlw	0
   830  0343  3415               	retlw	21
   831  0344  3400               	retlw	0
   832  0345  3415               	retlw	21
   833  0346  3400               	retlw	0
   834  0347  348B               	retlw	139
   835  0348  3402               	retlw	2
   836  0349  3412               	retlw	18
   837  034A  3400               	retlw	0
   838  034B  3462               	retlw	98
   839  034C  3400               	retlw	0
   840  034D  3410               	retlw	16
   841  034E  3400               	retlw	0
   842  034F  346B               	retlw	107
   843  0350  3400               	retlw	0
   844  0351  3412               	retlw	18
   845  0352  3400               	retlw	0
   846  0353  34CA               	retlw	202
   847  0354  3406               	retlw	6
   848  0355  3400               	retlw	0
   849  0356  3400               	retlw	0
   850  0357  34B1               	retlw	177
   851  0358  3401               	retlw	1
   852  0359  3414               	retlw	20
   853  035A  3400               	retlw	0
   854  035B  34D8               	retlw	216
   855  035C  3400               	retlw	0
   856  035D  3416               	retlw	22
   857  035E  3400               	retlw	0
   858  035F  34D8               	retlw	216
   859  0360  3400               	retlw	0
   860  0361  3417               	retlw	23
   861  0362  3400               	retlw	0
   862  0363  34B1               	retlw	177
   863  0364  3401               	retlw	1
   864  0365  341B               	retlw	27
   865  0366  3400               	retlw	0
   866  0367  34B1               	retlw	177
   867  0368  3401               	retlw	1
   868  0369  341C               	retlw	28
   869  036A  3400               	retlw	0
   870  036B  348B               	retlw	139
   871  036C  3402               	retlw	2
   872  036D  341B               	retlw	27
   873  036E  3400               	retlw	0
   874  036F  346B               	retlw	107
   875  0370  3400               	retlw	0
   876  0371  3419               	retlw	25
   877  0372  3400               	retlw	0
   878  0373  346B               	retlw	107
   879  0374  3400               	retlw	0
   880  0375  341B               	retlw	27
   881  0376  3400               	retlw	0
   882  0377  344E               	retlw	78
   883  0378  3403               	retlw	3
   884  0379  3400               	retlw	0
   885  037A  3400               	retlw	0
   886  037B  3415               	retlw	21
   887  037C  3400               	retlw	0
   888  037D  341C               	retlw	28
   889  037E  3400               	retlw	0
   890  037F  342F               	retlw	47
   891  0380  3401               	retlw	1
   892  0381  3400               	retlw	0
   893  0382  3400               	retlw	0
   894  0383  3415               	retlw	21
   895  0384  3400               	retlw	0
   896  0385  341B               	retlw	27
   897  0386  3400               	retlw	0
   898  0387  342F               	retlw	47
   899  0388  3401               	retlw	1
   900  0389  3400               	retlw	0
   901  038A  3400               	retlw	0
   902  038B  3415               	retlw	21
   903  038C  3400               	retlw	0
   904  038D  341C               	retlw	28
   905  038E  3400               	retlw	0
   906  038F  34C2               	retlw	194
   907  0390  3400               	retlw	0
   908  0391  3400               	retlw	0
   909  0392  3400               	retlw	0
   910  0393  3415               	retlw	21
   911  0394  3400               	retlw	0
   912  0395  341E               	retlw	30
   913  0396  3400               	retlw	0
   914  0397  3475               	retlw	117
   915  0398  3402               	retlw	2
   916  0399  3400               	retlw	0
   917  039A  3400               	retlw	0
   918  039B  3415               	retlw	21
   919  039C  3400               	retlw	0
   920  039D  3420               	retlw	32
   921  039E  3400               	retlw	0
   922  039F  346B               	retlw	107
   923  03A0  3400               	retlw	0
   924  03A1  3422               	retlw	34
   925  03A2  3400               	retlw	0
   926  03A3  346B               	retlw	107
   927  03A4  3400               	retlw	0
   928  03A5  3423               	retlw	35
   929  03A6  3400               	retlw	0
   930  03A7  34CA               	retlw	202
   931  03A8  3406               	retlw	6
   932  03A9                     __end_of_sheRa:
   933                           
   934                           	psect	stringtext3
   935  0718                     __pstringtext3:
   936  0718                     _notes:
   937  0718  34ED               	retlw	237
   938  0719  34E0               	retlw	224
   939  071A  34D3               	retlw	211
   940  071B  34C7               	retlw	199
   941  071C  34BD               	retlw	189
   942  071D  34B2               	retlw	178
   943  071E  34A8               	retlw	168
   944  071F  349E               	retlw	158
   945  0720  3496               	retlw	150
   946  0721  348D               	retlw	141
   947  0722  3485               	retlw	133
   948  0723  347D               	retlw	125
   949  0724  3476               	retlw	118
   950  0725  3470               	retlw	112
   951  0726  346A               	retlw	106
   952  0727  3463               	retlw	99
   953  0728  345E               	retlw	94
   954  0729  3459               	retlw	89
   955  072A  3454               	retlw	84
   956  072B  344F               	retlw	79
   957  072C  344B               	retlw	75
   958  072D  3446               	retlw	70
   959  072E  3442               	retlw	66
   960  072F  343F               	retlw	63
   961  0730  343B               	retlw	59
   962  0731  3438               	retlw	56
   963  0732  3434               	retlw	52
   964  0733  3432               	retlw	50
   965  0734  342F               	retlw	47
   966  0735  342C               	retlw	44
   967  0736  342A               	retlw	42
   968  0737  3427               	retlw	39
   969  0738  3425               	retlw	37
   970  0739  3423               	retlw	35
   971  073A  3421               	retlw	33
   972  073B  341F               	retlw	31
   973  073C                     __end_of_notes:
   974  000C                     _PORTA	set	12
   975  000C                     _PORTAbits	set	12
   976  005F                     _GIE	set	95
   977  005E                     _PEIE	set	94
   978  00D5                     _LATC5	set	213
   979  00D4                     _LATC4	set	212
   980  00D3                     _LATC3	set	211
   981  00D2                     _LATC2	set	210
   982  00D1                     _LATC1	set	209
   983  00D0                     _LATC0	set	208
   984  00C2                     _LATA2	set	194
   985  00C1                     _LATA1	set	193
   986  00A5                     _TRISC5	set	165
   987  00A4                     _TRISC4	set	164
   988  00A3                     _TRISC3	set	163
   989  00A2                     _TRISC2	set	162
   990  00A1                     _TRISC1	set	161
   991  00A0                     _TRISC0	set	160
   992  0095                     _TRISA5	set	149
   993  0094                     _TRISA4	set	148
   994  0093                     _TRISA3	set	147
   995  0092                     _TRISA2	set	146
   996  0091                     _TRISA1	set	145
   997  0090                     _TRISA0	set	144
   998  009B                     _ADRES	set	155
   999  009F                     _ADACT	set	159
  1000  009D                     _ADCON0bits	set	157
  1001  009E                     _ADCON1bits	set	158
  1002  028F                     _T2HLTbits	set	655
  1003  028E                     _T2CONbits	set	654
  1004  0290                     _T2CLKCON	set	656
  1005  028D                     _PR2	set	653
  1006  059F                     _T0CON1bits	set	1439
  1007  059E                     _T0CON0bits	set	1438
  1008  070D                     _PIR1bits	set	1805
  1009  070C                     _PIR0bits	set	1804
  1010  38B4                     _IOCIE	set	14516
  1011  38B0                     _INTE	set	14512
  1012  38B5                     _TMR0IE	set	14517
  1013  081A                     _NVMADR	set	2074
  1014  081E                     _NVMCON1bits	set	2078
  1015  0891                     _OSCENbits	set	2193
  1016  0893                     _OSCFRQbits	set	2195
  1017  090C                     _FVRCONbits	set	2316
  1018  1F4E                     _ANSELC	set	8014
  1019  1F38                     _ANSELAbits	set	7992
  1020  F9FB                     _IOCAF3	set	63995
  1021  F9F8                     _IOCAF0	set	63992
  1022  F9EB                     _IOCAP3	set	63979
  1023  F9F3                     _IOCAN3	set	63987
  1024  F9E8                     _IOCAP0	set	63976
  1025  F9F0                     _IOCAN0	set	63984
  1026  F9CB                     _WPUA3	set	63947
  1027  F9C8                     _WPUA0	set	63944
  1028                           
  1029                           	psect	cinit
  1030  00E4                     start_initialization:	
  1031                           ; #config settings
  1032                           
  1033  00E4                     __initialization:
  1034                           
  1035                           ; Initialize objects allocated to BANK0
  1036  00E4  3187  2786  3180   	fcall	__pidataBANK0	;fetch initializer
  1037  00E7  00EC               	movwf	__pdataBANK0& (0+127)
  1038  00E8  3187  2787  3180   	fcall	__pidataBANK0+1	;fetch initializer
  1039  00EB  00ED               	movwf	(__pdataBANK0+1)& (0+127)
  1040                           
  1041                           ; Clear objects allocated to BITCOMMON
  1042  00EC  01FC               	clrf	(__pbitbssCOMMON/(0+8))& (0+127)
  1043                           
  1044                           ; Clear objects allocated to BANK0
  1045  00ED  3020               	movlw	low __pbssBANK0
  1046  00EE  0084               	movwf	4
  1047  00EF  3000               	movlw	high __pbssBANK0
  1048  00F0  0085               	movwf	5
  1049  00F1  3033               	movlw	51
  1050  00F2  3187  2780  3180   	fcall	clear_ram0
  1051  00F5                     end_of_initialization:	
  1052                           ;End of C runtime variable initialization code
  1053                           
  1054  00F5                     __end_of__initialization:
  1055  00F5  107E               	bcf	int$flags,0	;clear compiler interrupt flag (level 1)
  1056  00F6  0140               	movlb	0
  1057  00F7  3184  2C96         	ljmp	_main	;jump to C main() function
  1058                           
  1059                           	psect	bitbssCOMMON
  1060  03E0                     __pbitbssCOMMON:
  1061  03E0                     _pinState:
  1062  03E0                     	ds	1
  1063                           
  1064                           	psect	bssBANK0
  1065  0020                     __pbssBANK0:
  1066  0020                     _calibrationMV:
  1067  0020                     	ds	4
  1068  0024                     _adcVolts:
  1069  0024                     	ds	2
  1070  0026                     _battVolts:
  1071  0026                     	ds	2
  1072  0028                     _charging:
  1073  0028                     	ds	2
  1074  002A                     _gotTheTouch:
  1075  002A                     	ds	2
  1076  002C                     _lidOpen:
  1077  002C                     	ds	2
  1078  002E                     _lowPowerMode:
  1079  002E                     	ds	2
  1080  0030                     _showCharge:
  1081  0030                     	ds	2
  1082  0032                     _poweredOn:
  1083  0032                     	ds	2
  1084  0034                     _genericDelay:
  1085  0034                     	ds	2
  1086  0036                     _playIndex:
  1087  0036                     	ds	2
  1088  0038                     _postscaler:
  1089  0038                     	ds	2
  1090  003A                     _abortAbort:
  1091  003A                     	ds	2
  1092  003C                     _gate:
  1093  003C                     	ds	2
  1094  003E                     _forceArc:
  1095  003E                     	ds	2
  1096  0040                     _i:
  1097  0040                     	ds	2
  1098  0042                     _chargeCycle:
  1099  0042                     	ds	1
  1100  0043                     _runIndex:
  1101  0043                     	ds	1
  1102  0044                     _buttonDebounce:
  1103  0044                     	ds	1
  1104  0045                     _clockDivider:
  1105  0045                     	ds	1
  1106  0046                     _debugging:
  1107  0046                     	ds	1
  1108  0047                     _aPorts:
  1109  0047                     	ds	12
  1110                           
  1111                           	psect	dataBANK0
  1112  006C                     __pdataBANK0:
  1113  006C                     _noGate:
  1114  006C                     	ds	2
  1115                           
  1116                           	psect	clrtext
  1117  0780                     clear_ram0:	
  1118                           ;	Called with FSR0 containing the base address, and
  1119                           ;	WREG with the size to clear
  1120                           
  1121  0780  0064               	clrwdt	;clear the watchdog before getting into this loop
  1122  0781                     clrloop0:
  1123  0781  0180               	clrf	0	;clear RAM location pointed to by FSR
  1124  0782  3101               	addfsr 0,1
  1125  0783  0B89               	decfsz	9,f	;Have we reached the end of clearing yet?
  1126  0784  2F81               	goto	clrloop0	;have we reached the end yet?
  1127  0785  3400               	retlw	0	;all done for this memory range, return
  1128                           
  1129                           	psect	cstackCOMMON
  1130  0070                     __pcstackCOMMON:
  1131  0070                     ?_chargeIndicator:
  1132  0070                     ?_doTheArc:	
  1133                           ; 1 bytes @ 0x0
  1134                           
  1135  0070                     ?_goToLPmode:	
  1136                           ; 1 bytes @ 0x0
  1137                           
  1138  0070                     ?_isr:	
  1139                           ; 1 bytes @ 0x0
  1140                           
  1141  0070                     ??_isr:	
  1142                           ; 1 bytes @ 0x0
  1143                           
  1144                           
  1145                           ; 1 bytes @ 0x0
  1146  0070                     	ds	1
  1147  0071                     ?_ButtonDebounceInit:
  1148  0071                     ?_blockingDelay:	
  1149                           ; 1 bytes @ 0x1
  1150                           
  1151  0071                     ?___lmul:	
  1152                           ; 1 bytes @ 0x1
  1153                           
  1154  0071                     ButtonDebounceInit@pulledUpButtons:	
  1155                           ; 4 bytes @ 0x1
  1156                           
  1157  0071                     blockingDelay@mSecs:	
  1158                           ; 1 bytes @ 0x1
  1159                           
  1160  0071                     ___lmul@multiplier:	
  1161                           ; 2 bytes @ 0x1
  1162                           
  1163                           
  1164                           ; 4 bytes @ 0x1
  1165  0071                     	ds	1
  1166  0072                     ??_ButtonDebounceInit:
  1167                           
  1168                           ; 1 bytes @ 0x2
  1169  0072                     	ds	1
  1170  0073                     ??_blockingDelay:
  1171  0073                     ?_playNote:	
  1172                           ; 1 bytes @ 0x3
  1173                           
  1174  0073                     ButtonDebounceInit@i:	
  1175                           ; 1 bytes @ 0x3
  1176                           
  1177  0073                     playNote@note:	
  1178                           ; 1 bytes @ 0x3
  1179                           
  1180                           
  1181                           ; 2 bytes @ 0x3
  1182  0073                     	ds	1
  1183  0074                     ButtonDebounceInit@port:
  1184                           
  1185                           ; 1 bytes @ 0x4
  1186  0074                     	ds	1
  1187  0075                     playNote@duration:
  1188  0075                     ___lmul@multiplicand:	
  1189                           ; 2 bytes @ 0x5
  1190                           
  1191                           
  1192                           ; 4 bytes @ 0x5
  1193  0075                     	ds	2
  1194  0077                     ??_doTheArc:
  1195  0077                     ??_goToLPmode:	
  1196                           ; 1 bytes @ 0x7
  1197                           
  1198  0077                     ??_playNote:	
  1199                           ; 1 bytes @ 0x7
  1200                           
  1201                           
  1202                           ; 1 bytes @ 0x7
  1203  0077                     	ds	2
  1204  0079                     ??___lmul:
  1205  0079                     ??___lldiv:	
  1206                           ; 1 bytes @ 0x9
  1207                           
  1208                           
  1209                           ; 1 bytes @ 0x9
  1210  0079                     	ds	1
  1211  007A                     ??_chargeIndicator:
  1212                           
  1213                           ; 1 bytes @ 0xA
  1214  007A                     	ds	1
  1215  007B                     ??_main:
  1216                           
  1217                           ; 1 bytes @ 0xB
  1218  007B                     	ds	1
  1219                           
  1220                           	psect	cstackBANK0
  1221  0053                     __pcstackBANK0:
  1222  0053                     ___lmul@product:
  1223                           
  1224                           ; 4 bytes @ 0x0
  1225  0053                     	ds	4
  1226  0057                     ?___lldiv:
  1227  0057                     ___lldiv@divisor:	
  1228                           ; 4 bytes @ 0x4
  1229                           
  1230                           
  1231                           ; 4 bytes @ 0x4
  1232  0057                     	ds	4
  1233  005B                     ___lldiv@dividend:
  1234                           
  1235                           ; 4 bytes @ 0x8
  1236  005B                     	ds	4
  1237  005F                     ___lldiv@quotient:
  1238                           
  1239                           ; 4 bytes @ 0xC
  1240  005F                     	ds	4
  1241  0063                     ___lldiv@counter:
  1242                           
  1243                           ; 1 bytes @ 0x10
  1244  0063                     	ds	1
  1245  0064                     _chargeIndicator$1118:
  1246                           
  1247                           ; 4 bytes @ 0x11
  1248  0064                     	ds	4
  1249  0068                     ?_main:
  1250  0068                     main@argc:	
  1251                           ; 2 bytes @ 0x15
  1252                           
  1253                           
  1254                           ; 2 bytes @ 0x15
  1255  0068                     	ds	2
  1256  006A                     main@argv:
  1257                           
  1258                           ; 2 bytes @ 0x17
  1259  006A                     	ds	2
  1260                           
  1261                           	psect	maintext
  1262  0496                     __pmaintext:	
  1263 ;;
  1264 ;;Main: autosize = 0, tempsize = 1, incstack = 0, save=0
  1265 ;;
  1266 ;; *************** function _main *****************
  1267 ;; Defined at:
  1268 ;;		line 365 in file "main.c"
  1269 ;; Parameters:    Size  Location     Type
  1270 ;;  argc            2   21[BANK0 ] int 
  1271 ;;  argv            2   23[BANK0 ] PTR PTR unsigned char 
  1272 ;; Auto vars:     Size  Location     Type
  1273 ;;		None
  1274 ;; Return value:  Size  Location     Type
  1275 ;;                  2   21[BANK0 ] int 
  1276 ;; Registers used:
  1277 ;;		wreg, fsr0l, fsr0h, fsr1l, fsr1h, status,2, status,0, pclath, cstack
  1278 ;; Tracked objects:
  1279 ;;		On entry : B3F/0
  1280 ;;		On exit  : 0/0
  1281 ;;		Unchanged: 0/0
  1282 ;; Data sizes:     COMMON   BANK0   BANK1   BANK2   BANK3   BANK4   BANK5   BANK6
  1283 ;;      Params:         0       4       0       0       0       0       0       0
  1284 ;;      Locals:         0       0       0       0       0       0       0       0
  1285 ;;      Temps:          1       0       0       0       0       0       0       0
  1286 ;;      Totals:         1       4       0       0       0       0       0       0
  1287 ;;Total ram usage:        5 bytes
  1288 ;; Hardware stack levels required when called: 4
  1289 ;; This function calls:
  1290 ;;		_ButtonDebounceInit
  1291 ;;		_blockingDelay
  1292 ;;		_chargeIndicator
  1293 ;;		_doTheArc
  1294 ;;		_goToLPmode
  1295 ;; This function is called by:
  1296 ;;		Startup code after reset
  1297 ;; This function uses a non-reentrant model
  1298 ;;
  1299                           
  1300                           
  1301                           ;psect for function _main
  1302  0496                     _main:
  1303  0496                     l1873:	
  1304                           ;incstack = 0
  1305                           ; Regs used in _main: [wreg-fsr1h+status,2+status,0+pclath+cstack]
  1306                           
  1307                           
  1308                           ;main.c: 369:     ANSELAbits.ANSA0 = 0;
  1309  0496  017E               	movlb	62	; select bank62
  1310  0497  1038               	bcf	56,0	;volatile
  1311                           
  1312                           ;main.c: 370:     ANSELAbits.ANSA1 = 0;
  1313  0498  10B8               	bcf	56,1	;volatile
  1314                           
  1315                           ;main.c: 371:     ANSELAbits.ANSA2 = 0;
  1316  0499  1138               	bcf	56,2	;volatile
  1317                           
  1318                           ;main.c: 373:     ANSELAbits.ANSA4 = 1;
  1319  049A  1638               	bsf	56,4	;volatile
  1320                           
  1321                           ;main.c: 374:     ANSELAbits.ANSA5 = 0;
  1322  049B  12B8               	bcf	56,5	;volatile
  1323  049C                     l1875:
  1324                           
  1325                           ;main.c: 380:     ANSELC = 0x0;
  1326  049C  01CE               	clrf	78	;volatile
  1327  049D                     l1877:
  1328                           
  1329                           ;main.c: 384:     TRISA0 = 1;
  1330  049D  0140               	movlb	0	; select bank0
  1331  049E  1412               	bsf	18,0	;volatile
  1332  049F                     l1879:
  1333                           
  1334                           ;main.c: 385:     WPUA0 = 1;
  1335  049F  017E               	movlb	62	; select bank62
  1336  04A0  1439               	bsf	57,0	;volatile
  1337  04A1                     l1881:
  1338                           
  1339                           ;main.c: 386:     TRISA1 = 0;
  1340  04A1  0140               	movlb	0	; select bank0
  1341  04A2  1092               	bcf	18,1	;volatile
  1342  04A3                     l1883:
  1343                           
  1344                           ;main.c: 387:     TRISA2 = 0;
  1345  04A3  1112               	bcf	18,2	;volatile
  1346  04A4                     l1885:
  1347                           
  1348                           ;main.c: 388:     TRISA3 = 1;
  1349  04A4  1592               	bsf	18,3	;volatile
  1350  04A5                     l1887:
  1351                           
  1352                           ;main.c: 389:     WPUA3 = 1;
  1353  04A5  017E               	movlb	62	; select bank62
  1354  04A6  15B9               	bsf	57,3	;volatile
  1355  04A7                     l1889:
  1356                           
  1357                           ;main.c: 390:     TRISA4 = 1;
  1358  04A7  0140               	movlb	0	; select bank0
  1359  04A8  1612               	bsf	18,4	;volatile
  1360  04A9                     l1891:
  1361                           
  1362                           ;main.c: 391:     TRISA5 = 1;
  1363  04A9  1692               	bsf	18,5	;volatile
  1364  04AA                     l1893:
  1365                           
  1366                           ;main.c: 392:     TRISC0 = 0;
  1367  04AA  1014               	bcf	20,0	;volatile
  1368  04AB                     l1895:
  1369                           
  1370                           ;main.c: 393:     TRISC1 = 0;
  1371  04AB  1094               	bcf	20,1	;volatile
  1372  04AC                     l1897:
  1373                           
  1374                           ;main.c: 394:     TRISC2 = 0;
  1375  04AC  1114               	bcf	20,2	;volatile
  1376  04AD                     l1899:
  1377                           
  1378                           ;main.c: 395:     TRISC3 = 0;
  1379  04AD  1194               	bcf	20,3	;volatile
  1380  04AE                     l1901:
  1381                           
  1382                           ;main.c: 396:     TRISC4 = 0;
  1383  04AE  1214               	bcf	20,4	;volatile
  1384  04AF                     l1903:
  1385                           
  1386                           ;main.c: 397:     TRISC5 = 0;
  1387  04AF  1294               	bcf	20,5	;volatile
  1388  04B0                     l1905:
  1389                           
  1390                           ;main.c: 400:     LATA1 = 1;
  1391  04B0  1498               	bsf	24,1	;volatile
  1392  04B1                     l1907:
  1393                           
  1394                           ;main.c: 401:     LATA2 = 1;
  1395  04B1  1518               	bsf	24,2	;volatile
  1396  04B2                     l1909:
  1397                           
  1398                           ;main.c: 402:     LATC0 = 1;
  1399  04B2  141A               	bsf	26,0	;volatile
  1400  04B3                     l1911:
  1401                           
  1402                           ;main.c: 403:     LATC1 = 1;
  1403  04B3  149A               	bsf	26,1	;volatile
  1404  04B4                     l1913:
  1405                           
  1406                           ;main.c: 404:     LATC2 = 1;
  1407  04B4  151A               	bsf	26,2	;volatile
  1408  04B5                     l1915:
  1409                           
  1410                           ;main.c: 405:     LATC3 = 0;
  1411  04B5  119A               	bcf	26,3	;volatile
  1412  04B6                     l1917:
  1413                           
  1414                           ;main.c: 406:     LATC4 = 0;
  1415  04B6  121A               	bcf	26,4	;volatile
  1416  04B7                     l1919:
  1417                           
  1418                           ;main.c: 407:     LATC5 = 0;
  1419  04B7  129A               	bcf	26,5	;volatile
  1420  04B8                     l1921:
  1421                           
  1422                           ;main.c: 410:     ButtonDebounceInit(&aPorts, (0x0001) | (0x0008));
  1423  04B8  3009               	movlw	9
  1424  04B9  00FB               	movwf	??_main
  1425  04BA  087B               	movf	??_main,w
  1426  04BB  00F1               	movwf	ButtonDebounceInit@pulledUpButtons
  1427  04BC  3047               	movlw	(low (_aPorts| 0))& (0+255)
  1428  04BD  3186  26ED  3184   	fcall	_ButtonDebounceInit
  1429  04C0                     l1923:
  1430                           
  1431                           ;main.c: 417:     OSCFRQbits.FRQ = 0b101;
  1432  04C0  0151               	movlb	17	; select bank17
  1433  04C1  0813               	movf	19,w	;volatile
  1434  04C2  39F8               	andlw	-8
  1435  04C3  3805               	iorlw	5
  1436  04C4  0093               	movwf	19	;volatile
  1437  04C5                     l1925:
  1438                           
  1439                           ;main.c: 418:     OSCENbits.HFOEN = 1;
  1440  04C5  1711               	bsf	17,6	;volatile
  1441  04C6                     l1927:
  1442                           
  1443                           ;main.c: 422:     T0CON0bits.MD16 = 0;
  1444  04C6  014B               	movlb	11	; select bank11
  1445  04C7  121E               	bcf	30,4	;volatile
  1446  04C8                     l1929:
  1447                           
  1448                           ;main.c: 423:     T0CON0bits.OUTPS = 0b0000;
  1449  04C8  30F0               	movlw	-16
  1450  04C9  059E               	andwf	30,f	;volatile
  1451  04CA                     l1931:
  1452                           
  1453                           ;main.c: 424:     T0CON1bits.CS = 0b010;
  1454  04CA  081F               	movf	31,w	;volatile
  1455  04CB  391F               	andlw	-225
  1456  04CC  3840               	iorlw	64
  1457  04CD  009F               	movwf	31	;volatile
  1458  04CE                     l1933:
  1459                           
  1460                           ;main.c: 425:     T0CON1bits.ASYNC = 0;
  1461  04CE  121F               	bcf	31,4	;volatile
  1462  04CF                     l1935:
  1463                           
  1464                           ;main.c: 426:     T0CON1bits.CKPS = 0b0001;
  1465  04CF  081F               	movf	31,w	;volatile
  1466  04D0  39F0               	andlw	-16
  1467  04D1  3801               	iorlw	1
  1468  04D2  009F               	movwf	31	;volatile
  1469  04D3                     l1937:
  1470                           
  1471                           ;main.c: 427:     T0CON0bits.EN = 1;
  1472  04D3  179E               	bsf	30,7	;volatile
  1473  04D4                     l1939:
  1474                           
  1475                           ;main.c: 430:     PR2 = 0x24;
  1476  04D4  3024               	movlw	36
  1477  04D5  0145               	movlb	5	; select bank5
  1478  04D6  008D               	movwf	13	;volatile
  1479  04D7                     l1941:
  1480                           
  1481                           ;main.c: 431:     T2CLKCON = 0b001;
  1482  04D7  3001               	movlw	1
  1483  04D8  0090               	movwf	16	;volatile
  1484  04D9                     l1943:
  1485                           
  1486                           ;main.c: 432:     T2CONbits.T2CKPS = 0b110;
  1487  04D9  080E               	movf	14,w	;volatile
  1488  04DA  398F               	andlw	-113
  1489  04DB  3860               	iorlw	96
  1490  04DC  008E               	movwf	14	;volatile
  1491  04DD                     l1945:
  1492                           
  1493                           ;main.c: 433:     T2HLTbits.PSYNC = 1;
  1494  04DD  178F               	bsf	15,7	;volatile
  1495  04DE                     l1947:
  1496                           
  1497                           ;main.c: 434:     T2CONbits.TMR2ON = 1;
  1498  04DE  178E               	bsf	14,7	;volatile
  1499  04DF                     l1949:
  1500                           
  1501                           ;main.c: 437:     TMR0IE = 1;
  1502  04DF  014E               	movlb	14	; select bank14
  1503  04E0  1696               	bsf	22,5	;volatile
  1504  04E1                     l1951:
  1505                           
  1506                           ;main.c: 441:     FVRCONbits.ADFVR = 0b01;
  1507  04E1  0152               	movlb	18	; select bank18
  1508  04E2  080C               	movf	12,w	;volatile
  1509  04E3  39FC               	andlw	-4
  1510  04E4  3801               	iorlw	1
  1511  04E5  008C               	movwf	12	;volatile
  1512  04E6                     l1953:
  1513                           
  1514                           ;main.c: 442:     FVRCONbits.FVREN = 1;
  1515  04E6  178C               	bsf	12,7	;volatile
  1516  04E7                     l1955:
  1517                           
  1518                           ;main.c: 446:     if (!debugging) NVMCON1bits.NVMREGS = 1;
  1519  04E7  0140               	movlb	0	; select bank0
  1520  04E8  0846               	movf	_debugging,w
  1521  04E9  1D03               	btfss	3,2
  1522  04EA  2CEC               	goto	u1831
  1523  04EB  2CED               	goto	u1830
  1524  04EC                     u1831:
  1525  04EC  2CEF               	goto	l183
  1526  04ED                     u1830:
  1527  04ED                     l1957:
  1528  04ED  0150               	movlb	16	; select bank16
  1529  04EE  171E               	bsf	30,6	;volsfr
  1530  04EF                     l183:
  1531                           
  1532                           ;main.c: 447:     NVMADR = 0x8118;
  1533  04EF  3081               	movlw	129
  1534  04F0  0150               	movlb	16	; select bank16
  1535  04F1  009B               	movwf	27	;volatile
  1536  04F2  3018               	movlw	24
  1537  04F3  009A               	movwf	26	;volatile
  1538                           
  1539                           ;main.c: 448:     NVMCON1bits.RD = 1;
  1540  04F4  141E               	bsf	30,0	;volsfr
  1541  04F5                     l1959:
  1542                           
  1543                           ;main.c: 449:     calibrationMV = NVMADR;
  1544  04F5  081A               	movf	26,w	;volatile
  1545  04F6  0140               	movlb	0	; select bank0
  1546  04F7  00A0               	movwf	_calibrationMV
  1547  04F8  0150               	movlb	16	; select bank16
  1548  04F9  081B               	movf	27,w	;volatile
  1549  04FA  0140               	movlb	0	; select bank0
  1550  04FB  00A1               	movwf	_calibrationMV+1
  1551  04FC  01A2               	clrf	_calibrationMV+2
  1552  04FD  01A3               	clrf	_calibrationMV+3
  1553  04FE                     l1961:
  1554                           
  1555                           ;main.c: 450:     if (!debugging) NVMCON1bits.NVMREGS = 0;
  1556  04FE  0846               	movf	_debugging,w
  1557  04FF  1D03               	btfss	3,2
  1558  0500  2D02               	goto	u1841
  1559  0501  2D03               	goto	u1840
  1560  0502                     u1841:
  1561  0502  2D05               	goto	l1965
  1562  0503                     u1840:
  1563  0503                     l1963:
  1564  0503  0150               	movlb	16	; select bank16
  1565  0504  131E               	bcf	30,6	;volsfr
  1566  0505                     l1965:
  1567                           
  1568                           ;main.c: 453:     ADCON1bits.CS = 0b110;
  1569  0505  0141               	movlb	1	; select bank1
  1570  0506  081E               	movf	30,w	;volatile
  1571  0507  398F               	andlw	-113
  1572  0508  3860               	iorlw	96
  1573  0509  009E               	movwf	30	;volatile
  1574                           
  1575                           ;main.c: 454:     ADCON1bits.PREF = 0b00;
  1576  050A  30FC               	movlw	-4
  1577  050B  059E               	andwf	30,f	;volatile
  1578                           
  1579                           ;main.c: 455:     ADCON0bits.CHS = 0b011110;
  1580  050C  081D               	movf	29,w	;volatile
  1581  050D  3903               	andlw	-253
  1582  050E  3878               	iorlw	120
  1583  050F  009D               	movwf	29	;volatile
  1584  0510                     l1967:
  1585                           
  1586                           ;main.c: 456:     ADCON1bits.FM = 1;
  1587  0510  179E               	bsf	30,7	;volatile
  1588  0511                     l1969:
  1589                           
  1590                           ;main.c: 457:     ADACT = 0x0;
  1591  0511  019F               	clrf	31	;volatile
  1592  0512                     l1971:
  1593                           
  1594                           ;main.c: 460:     if (!debugging) ADCON0bits.ON = 1;
  1595  0512  0140               	movlb	0	; select bank0
  1596  0513  0846               	movf	_debugging,w
  1597  0514  1D03               	btfss	3,2
  1598  0515  2D17               	goto	u1851
  1599  0516  2D18               	goto	u1850
  1600  0517                     u1851:
  1601  0517  2D1A               	goto	l185
  1602  0518                     u1850:
  1603  0518                     l1973:
  1604  0518  0141               	movlb	1	; select bank1
  1605  0519  141D               	bsf	29,0	;volatile
  1606  051A                     l185:
  1607                           
  1608                           ;main.c: 473:     IOCAN0 = 1;
  1609  051A  017E               	movlb	62	; select bank62
  1610  051B  143E               	bsf	62,0	;volatile
  1611                           
  1612                           ;main.c: 474:     IOCAP0 = 1;
  1613  051C  143D               	bsf	61,0	;volatile
  1614                           
  1615                           ;main.c: 475:     IOCAN3 = 1;
  1616  051D  15BE               	bsf	62,3	;volatile
  1617                           
  1618                           ;main.c: 476:     IOCAP3 = 1;
  1619  051E  15BD               	bsf	61,3	;volatile
  1620                           
  1621                           ;main.c: 477:     INTE = 0;
  1622  051F  014E               	movlb	14	; select bank14
  1623  0520  1016               	bcf	22,0	;volatile
  1624                           
  1625                           ;main.c: 479:     PEIE = 1;
  1626  0521  170B               	bsf	11,6	;volatile
  1627                           
  1628                           ;main.c: 480:     IOCIE = 1;
  1629  0522  1616               	bsf	22,4	;volatile
  1630                           
  1631                           ;main.c: 481:     GIE = 1;
  1632  0523  178B               	bsf	11,7	;volatile
  1633                           
  1634                           ;main.c: 484:     LATC2 = 0;
  1635  0524  0140               	movlb	0	; select bank0
  1636  0525  111A               	bcf	26,2	;volatile
  1637  0526                     l1975:
  1638                           
  1639                           ;main.c: 485:     blockingDelay(100);
  1640  0526  3064               	movlw	100
  1641  0527  00F1               	movwf	blockingDelay@mSecs
  1642  0528  3000               	movlw	0
  1643  0529  00F2               	movwf	blockingDelay@mSecs+1
  1644  052A  3187  2774  3184   	fcall	_blockingDelay
  1645  052D                     l1977:
  1646                           
  1647                           ;main.c: 486:     LATC2 = 1;
  1648  052D  0140               	movlb	0	; select bank0
  1649  052E  151A               	bsf	26,2	;volatile
  1650                           
  1651                           ;main.c: 487:     blockingDelay(100);
  1652  052F  3064               	movlw	100
  1653  0530  00F1               	movwf	blockingDelay@mSecs
  1654  0531  3000               	movlw	0
  1655  0532  00F2               	movwf	blockingDelay@mSecs+1
  1656  0533  3187  2774  3184   	fcall	_blockingDelay
  1657  0536                     l1979:
  1658                           
  1659                           ;main.c: 488:     LATC2 = 0;
  1660  0536  0140               	movlb	0	; select bank0
  1661  0537  111A               	bcf	26,2	;volatile
  1662                           
  1663                           ;main.c: 489:     blockingDelay(100);
  1664  0538  3064               	movlw	100
  1665  0539  00F1               	movwf	blockingDelay@mSecs
  1666  053A  3000               	movlw	0
  1667  053B  00F2               	movwf	blockingDelay@mSecs+1
  1668  053C  3187  2774  3184   	fcall	_blockingDelay
  1669  053F                     l1981:
  1670                           
  1671                           ;main.c: 490:     LATC2 = 1;
  1672  053F  0140               	movlb	0	; select bank0
  1673  0540  151A               	bsf	26,2	;volatile
  1674                           
  1675                           ;main.c: 491:     blockingDelay(100);
  1676  0541  3064               	movlw	100
  1677  0542  00F1               	movwf	blockingDelay@mSecs
  1678  0543  3000               	movlw	0
  1679  0544  00F2               	movwf	blockingDelay@mSecs+1
  1680  0545  3187  2774  3184   	fcall	_blockingDelay
  1681  0548                     l1983:
  1682                           
  1683                           ;main.c: 492:     LATC2 = 0;
  1684  0548  0140               	movlb	0	; select bank0
  1685  0549  111A               	bcf	26,2	;volatile
  1686                           
  1687                           ;main.c: 493:     blockingDelay(100);
  1688  054A  3064               	movlw	100
  1689  054B  00F1               	movwf	blockingDelay@mSecs
  1690  054C  3000               	movlw	0
  1691  054D  00F2               	movwf	blockingDelay@mSecs+1
  1692  054E  3187  2774  3184   	fcall	_blockingDelay
  1693  0551                     l1985:
  1694                           
  1695                           ;main.c: 494:     LATC2 = 1;
  1696  0551  0140               	movlb	0	; select bank0
  1697  0552  151A               	bsf	26,2	;volatile
  1698  0553                     l1987:
  1699                           
  1700                           ;main.c: 501:         forceArc = 0;
  1701  0553  0140               	movlb	0	; select bank0
  1702  0554  01BE               	clrf	_forceArc
  1703  0555  01BF               	clrf	_forceArc+1
  1704  0556                     l1989:
  1705                           
  1706                           ;main.c: 502:         if (showCharge) chargeIndicator();
  1707  0556  0830               	movf	_showCharge,w
  1708  0557  0431               	iorwf	_showCharge+1,w
  1709  0558  1903               	btfsc	3,2
  1710  0559  2D5B               	goto	u1861
  1711  055A  2D5C               	goto	u1860
  1712  055B                     u1861:
  1713  055B  2D5F               	goto	l1993
  1714  055C                     u1860:
  1715  055C                     l1991:
  1716  055C  3183  23A9  3184   	fcall	_chargeIndicator
  1717  055F                     l1993:
  1718                           
  1719                           ;main.c: 503:         if (poweredOn) {
  1720  055F  0140               	movlb	0	; select bank0
  1721  0560  0832               	movf	_poweredOn,w
  1722  0561  0433               	iorwf	_poweredOn+1,w
  1723  0562  1903               	btfsc	3,2
  1724  0563  2D65               	goto	u1871
  1725  0564  2D66               	goto	u1870
  1726  0565                     u1871:
  1727  0565  2D72               	goto	l188
  1728  0566                     u1870:
  1729  0566                     l1995:
  1730                           
  1731                           ;main.c: 505:             LATC2 = 0;
  1732  0566  111A               	bcf	26,2	;volatile
  1733                           
  1734                           ;main.c: 507:             LATC3 = 1;
  1735  0567  159A               	bsf	26,3	;volatile
  1736  0568                     l1997:
  1737                           
  1738                           ;main.c: 508:             if (gotTheTouch) doTheArc();
  1739  0568  082A               	movf	_gotTheTouch,w
  1740  0569  042B               	iorwf	_gotTheTouch+1,w
  1741  056A  1903               	btfsc	3,2
  1742  056B  2D6D               	goto	u1881
  1743  056C  2D6E               	goto	u1880
  1744  056D                     u1881:
  1745  056D  2D74               	goto	l2001
  1746  056E                     u1880:
  1747  056E                     l1999:
  1748  056E  3185  2581  3184   	fcall	_doTheArc
  1749  0571  2D74               	goto	l2001
  1750  0572                     l188:
  1751                           
  1752                           ;main.c: 511:             LATC2 = 1;
  1753  0572  151A               	bsf	26,2	;volatile
  1754                           
  1755                           ;main.c: 513:             LATC3 = 0;
  1756  0573  119A               	bcf	26,3	;volatile
  1757  0574                     l2001:
  1758                           
  1759                           ;main.c: 515:         if (lowPowerMode) goToLPmode();
  1760  0574  0140               	movlb	0	; select bank0
  1761  0575  082E               	movf	_lowPowerMode,w
  1762  0576  042F               	iorwf	_lowPowerMode+1,w
  1763  0577  1903               	btfsc	3,2
  1764  0578  2D7A               	goto	u1891
  1765  0579  2D7B               	goto	u1890
  1766  057A                     u1891:
  1767  057A  2D53               	goto	l1987
  1768  057B                     u1890:
  1769  057B                     l2003:
  1770  057B  3187  275E  3184   	fcall	_goToLPmode
  1771  057E  2D53               	goto	l1987
  1772  057F  3180  28E2         	ljmp	start
  1773  0581                     __end_of_main:
  1774                           
  1775                           	psect	text1
  1776  075E                     __ptext1:	
  1777 ;; *************** function _goToLPmode *****************
  1778 ;; Defined at:
  1779 ;;		line 737 in file "main.c"
  1780 ;; Parameters:    Size  Location     Type
  1781 ;;		None
  1782 ;; Auto vars:     Size  Location     Type
  1783 ;;		None
  1784 ;; Return value:  Size  Location     Type
  1785 ;;                  1    wreg      void 
  1786 ;; Registers used:
  1787 ;;		wreg, fsr0l, fsr0h, status,2, status,0, pclath, cstack
  1788 ;; Tracked objects:
  1789 ;;		On entry : 0/0
  1790 ;;		On exit  : 0/0
  1791 ;;		Unchanged: 0/0
  1792 ;; Data sizes:     COMMON   BANK0   BANK1   BANK2   BANK3   BANK4   BANK5   BANK6
  1793 ;;      Params:         0       0       0       0       0       0       0       0
  1794 ;;      Locals:         0       0       0       0       0       0       0       0
  1795 ;;      Temps:          0       0       0       0       0       0       0       0
  1796 ;;      Totals:         0       0       0       0       0       0       0       0
  1797 ;;Total ram usage:        0 bytes
  1798 ;; Hardware stack levels used: 1
  1799 ;; Hardware stack levels required when called: 3
  1800 ;; This function calls:
  1801 ;;		_playNote
  1802 ;; This function is called by:
  1803 ;;		_main
  1804 ;; This function uses a non-reentrant model
  1805 ;;
  1806                           
  1807                           
  1808                           ;psect for function _goToLPmode
  1809  075E                     _goToLPmode:
  1810  075E                     l1483:	
  1811                           ;incstack = 0
  1812                           ; Regs used in _goToLPmode: [wreg-fsr0h+status,2+status,0+pclath+cstack]
  1813                           
  1814                           
  1815                           ;main.c: 738:     forceArc = 0;
  1816  075E  0140               	movlb	0	; select bank0
  1817  075F  01BE               	clrf	_forceArc
  1818  0760  01BF               	clrf	_forceArc+1
  1819  0761                     l1485:
  1820                           
  1821                           ;main.c: 739:     playNote(0, 100);
  1822  0761  3000               	movlw	0
  1823  0762  00F3               	movwf	playNote@note
  1824  0763  00F4               	movwf	playNote@note+1
  1825  0764  3064               	movlw	100
  1826  0765  00F5               	movwf	playNote@duration
  1827  0766  3000               	movlw	0
  1828  0767  00F6               	movwf	playNote@duration+1
  1829  0768  3187  273C  3187   	fcall	_playNote
  1830  076B                     l1487:
  1831                           
  1832                           ;main.c: 741:     LATC3 = 0;
  1833  076B  0140               	movlb	0	; select bank0
  1834  076C  119A               	bcf	26,3	;volatile
  1835  076D                     l1489:
  1836                           
  1837                           ;main.c: 744:     LATA1 = 1;
  1838  076D  1498               	bsf	24,1	;volatile
  1839  076E                     l1491:
  1840                           
  1841                           ;main.c: 745:     LATA2 = 1;
  1842  076E  1518               	bsf	24,2	;volatile
  1843  076F                     l1493:
  1844                           
  1845                           ;main.c: 746:     LATC0 = 1;
  1846  076F  141A               	bsf	26,0	;volatile
  1847  0770                     l1495:
  1848                           
  1849                           ;main.c: 747:     LATC1 = 1;
  1850  0770  149A               	bsf	26,1	;volatile
  1851  0771                     l1497:
  1852                           
  1853                           ;main.c: 748:     LATC2 = 1;
  1854  0771  151A               	bsf	26,2	;volatile
  1855  0772  0063               	sleep	;# 
  1856  0773                     l260:
  1857  0773  0008               	return
  1858  0774                     __end_of_goToLPmode:
  1859                           
  1860                           	psect	text2
  1861  0581                     __ptext2:	
  1862 ;; *************** function _doTheArc *****************
  1863 ;; Defined at:
  1864 ;;		line 664 in file "main.c"
  1865 ;; Parameters:    Size  Location     Type
  1866 ;;		None
  1867 ;; Auto vars:     Size  Location     Type
  1868 ;;		None
  1869 ;; Return value:  Size  Location     Type
  1870 ;;                  1    wreg      void 
  1871 ;; Registers used:
  1872 ;;		wreg, fsr0l, fsr0h, status,2, status,0, pclath, cstack
  1873 ;; Tracked objects:
  1874 ;;		On entry : 0/0
  1875 ;;		On exit  : 0/0
  1876 ;;		Unchanged: 0/0
  1877 ;; Data sizes:     COMMON   BANK0   BANK1   BANK2   BANK3   BANK4   BANK5   BANK6
  1878 ;;      Params:         0       0       0       0       0       0       0       0
  1879 ;;      Locals:         0       0       0       0       0       0       0       0
  1880 ;;      Temps:          2       0       0       0       0       0       0       0
  1881 ;;      Totals:         2       0       0       0       0       0       0       0
  1882 ;;Total ram usage:        2 bytes
  1883 ;; Hardware stack levels used: 1
  1884 ;; Hardware stack levels required when called: 3
  1885 ;; This function calls:
  1886 ;;		_blockingDelay
  1887 ;;		_playNote
  1888 ;; This function is called by:
  1889 ;;		_main
  1890 ;; This function uses a non-reentrant model
  1891 ;;
  1892                           
  1893                           
  1894                           ;psect for function _doTheArc
  1895  0581                     _doTheArc:
  1896  0581                     l1421:	
  1897                           ;incstack = 0
  1898                           ; Regs used in _doTheArc: [wreg-fsr0h+status,2+status,0+pclath+cstack]
  1899                           
  1900                           
  1901                           ;main.c: 666:     forceArc = 1;
  1902  0581  3001               	movlw	1
  1903  0582  0140               	movlb	0	; select bank0
  1904  0583  00BE               	movwf	_forceArc
  1905  0584  3000               	movlw	0
  1906  0585  00BF               	movwf	_forceArc+1
  1907  0586                     l1423:
  1908                           
  1909                           ;main.c: 667:     runIndex++;
  1910  0586  3001               	movlw	1
  1911  0587  00F7               	movwf	??_doTheArc
  1912  0588  0877               	movf	??_doTheArc,w
  1913  0589  07C3               	addwf	_runIndex,f
  1914  058A                     l1425:
  1915                           
  1916                           ;main.c: 668:     if (runIndex > 4) runIndex = 1;
  1917  058A  3005               	movlw	5
  1918  058B  0243               	subwf	_runIndex,w
  1919  058C  1C03               	skipc
  1920  058D  2D8F               	goto	u1081
  1921  058E  2D90               	goto	u1080
  1922  058F                     u1081:
  1923  058F  2E42               	goto	l1467
  1924  0590                     u1080:
  1925  0590                     l1427:
  1926  0590  01C3               	clrf	_runIndex
  1927  0591  0AC3               	incf	_runIndex,f
  1928  0592  2E42               	goto	l1467
  1929  0593                     l226:	
  1930                           ;main.c: 670:         case 1:
  1931                           
  1932                           
  1933                           ;main.c: 672:             LATA1 = 0;
  1934  0593  1098               	bcf	24,1	;volatile
  1935                           
  1936                           ;main.c: 673:             LATA2 = 1;
  1937  0594  1518               	bsf	24,2	;volatile
  1938                           
  1939                           ;main.c: 674:             LATC0 = 1;
  1940  0595  141A               	bsf	26,0	;volatile
  1941                           
  1942                           ;main.c: 675:             LATC1 = 1;
  1943  0596  149A               	bsf	26,1	;volatile
  1944  0597                     l1429:	
  1945                           ;main.c: 676:             while (gotTheTouch && poweredOn);
  1946                           
  1947  0597  082A               	movf	_gotTheTouch,w
  1948  0598  042B               	iorwf	_gotTheTouch+1,w
  1949  0599  1903               	btfsc	3,2
  1950  059A  2D9C               	goto	u1091
  1951  059B  2D9D               	goto	u1090
  1952  059C                     u1091:
  1953  059C  2E55               	goto	l1469
  1954  059D                     u1090:
  1955  059D                     l1431:
  1956  059D  0832               	movf	_poweredOn,w
  1957  059E  0433               	iorwf	_poweredOn+1,w
  1958  059F  1D03               	btfss	3,2
  1959  05A0  2DA2               	goto	u1101
  1960  05A1  2DA3               	goto	u1100
  1961  05A2                     u1101:
  1962  05A2  2D97               	goto	l1429
  1963  05A3                     u1100:
  1964  05A3  2E55               	goto	l1469
  1965  05A4                     l233:	
  1966                           ;main.c: 679:         case 2:
  1967                           
  1968                           
  1969                           ;main.c: 681:             LATA1 = 1;
  1970  05A4  1498               	bsf	24,1	;volatile
  1971                           
  1972                           ;main.c: 682:             LATA2 = 0;
  1973  05A5  1118               	bcf	24,2	;volatile
  1974                           
  1975                           ;main.c: 683:             LATC0 = 1;
  1976  05A6  141A               	bsf	26,0	;volatile
  1977                           
  1978                           ;main.c: 684:             LATC1 = 1;
  1979  05A7  149A               	bsf	26,1	;volatile
  1980  05A8                     l1433:
  1981                           
  1982                           ;main.c: 686:             blockingDelay(1000);
  1983  05A8  30E8               	movlw	232
  1984  05A9  00F1               	movwf	blockingDelay@mSecs
  1985  05AA  3003               	movlw	3
  1986  05AB  00F2               	movwf	blockingDelay@mSecs+1
  1987  05AC  3187  2774  3185   	fcall	_blockingDelay
  1988  05AF                     l1435:
  1989                           
  1990                           ;main.c: 687:             forceArc = 0;
  1991  05AF  0140               	movlb	0	; select bank0
  1992  05B0  01BE               	clrf	_forceArc
  1993  05B1  01BF               	clrf	_forceArc+1
  1994  05B2                     l1437:
  1995                           
  1996                           ;main.c: 688:             for (i = 0; i < sizeof (sheRa) && gotTheTouch && poweredOn; i+
      +                          +) playNote(sheRa[i][0], sheRa[i][1]);
  1997  05B2  01C0               	clrf	_i
  1998  05B3  01C1               	clrf	_i+1
  1999  05B4  2DDD               	goto	l1443
  2000  05B5                     l1439:
  2001  05B5  0841               	movf	_i+1,w
  2002  05B6  0085               	movwf	5
  2003  05B7  0840               	movf	_i,w
  2004  05B8  0084               	movwf	4
  2005  05B9  3584               	lslf	4,f
  2006  05BA  0D85               	rlf	5,f
  2007  05BB  3584               	lslf	4,f
  2008  05BC  0D85               	rlf	5,f
  2009  05BD  30B9               	movlw	low (_sheRa| (0+32768))
  2010  05BE  0784               	addwf	4,f
  2011  05BF  3082               	movlw	high (_sheRa| (0+32768))
  2012  05C0  3D85               	addwfc	5,f
  2013  05C1  3F00               	moviw [0]fsr0
  2014  05C2  00F3               	movwf	playNote@note
  2015  05C3  3F01               	moviw [1]fsr0
  2016  05C4  00F4               	movwf	playNote@note+1
  2017  05C5  0841               	movf	_i+1,w
  2018  05C6  0085               	movwf	5
  2019  05C7  0840               	movf	_i,w
  2020  05C8  0084               	movwf	4
  2021  05C9  3584               	lslf	4,f
  2022  05CA  0D85               	rlf	5,f
  2023  05CB  3584               	lslf	4,f
  2024  05CC  0D85               	rlf	5,f
  2025  05CD  30BB               	movlw	low ((_sheRa+2)| (0+32768))
  2026  05CE  0784               	addwf	4,f
  2027  05CF  3082               	movlw	high ((_sheRa+2)| (0+32768))
  2028  05D0  3D85               	addwfc	5,f
  2029  05D1  3F00               	moviw [0]fsr0
  2030  05D2  00F5               	movwf	playNote@duration
  2031  05D3  3F01               	moviw [1]fsr0
  2032  05D4  00F6               	movwf	playNote@duration+1
  2033  05D5  3187  273C  3185   	fcall	_playNote
  2034  05D8                     l1441:
  2035  05D8  3001               	movlw	1
  2036  05D9  0140               	movlb	0	; select bank0
  2037  05DA  07C0               	addwf	_i,f
  2038  05DB  3000               	movlw	0
  2039  05DC  3DC1               	addwfc	_i+1,f
  2040  05DD                     l1443:
  2041  05DD  3000               	movlw	0
  2042  05DE  0241               	subwf	_i+1,w
  2043  05DF  30F0               	movlw	240
  2044  05E0  1903               	skipnz
  2045  05E1  0240               	subwf	_i,w
  2046  05E2  1803               	skipnc
  2047  05E3  2DE5               	goto	u1111
  2048  05E4  2DE6               	goto	u1110
  2049  05E5                     u1111:
  2050  05E5  2E55               	goto	l1469
  2051  05E6                     u1110:
  2052  05E6                     l1445:
  2053  05E6  082A               	movf	_gotTheTouch,w
  2054  05E7  042B               	iorwf	_gotTheTouch+1,w
  2055  05E8  1903               	btfsc	3,2
  2056  05E9  2DEB               	goto	u1121
  2057  05EA  2DEC               	goto	u1120
  2058  05EB                     u1121:
  2059  05EB  2E55               	goto	l1469
  2060  05EC                     u1120:
  2061  05EC                     l1447:
  2062  05EC  0832               	movf	_poweredOn,w
  2063  05ED  0433               	iorwf	_poweredOn+1,w
  2064  05EE  1D03               	btfss	3,2
  2065  05EF  2DF1               	goto	u1131
  2066  05F0  2DF2               	goto	u1130
  2067  05F1                     u1131:
  2068  05F1  2DB5               	goto	l1439
  2069  05F2                     u1130:
  2070  05F2  2E55               	goto	l1469
  2071  05F3                     l239:	
  2072                           ;main.c: 691:         case 3:
  2073                           
  2074                           
  2075                           ;main.c: 693:             LATA1 = 1;
  2076  05F3  1498               	bsf	24,1	;volatile
  2077                           
  2078                           ;main.c: 694:             LATA2 = 1;
  2079  05F4  1518               	bsf	24,2	;volatile
  2080                           
  2081                           ;main.c: 695:             LATC0 = 0;
  2082  05F5  101A               	bcf	26,0	;volatile
  2083                           
  2084                           ;main.c: 696:             LATC1 = 1;
  2085  05F6  149A               	bsf	26,1	;volatile
  2086  05F7                     l1449:
  2087                           
  2088                           ;main.c: 698:             blockingDelay(1000);
  2089  05F7  30E8               	movlw	232
  2090  05F8  00F1               	movwf	blockingDelay@mSecs
  2091  05F9  3003               	movlw	3
  2092  05FA  00F2               	movwf	blockingDelay@mSecs+1
  2093  05FB  3187  2774  3185   	fcall	_blockingDelay
  2094  05FE                     l1451:
  2095                           
  2096                           ;main.c: 699:             forceArc = 0;
  2097  05FE  0140               	movlb	0	; select bank0
  2098  05FF  01BE               	clrf	_forceArc
  2099  0600  01BF               	clrf	_forceArc+1
  2100  0601                     l1453:
  2101                           
  2102                           ;main.c: 700:             for (i = 0; i < sizeof (gargoyles) && gotTheTouch && poweredOn
      +                          ; i++) playNote(gargoyles[i][0], gargoyles[i][1]);
  2103  0601  01C0               	clrf	_i
  2104  0602  01C1               	clrf	_i+1
  2105  0603  2E2C               	goto	l1459
  2106  0604                     l1455:
  2107  0604  0841               	movf	_i+1,w
  2108  0605  0085               	movwf	5
  2109  0606  0840               	movf	_i,w
  2110  0607  0084               	movwf	4
  2111  0608  3584               	lslf	4,f
  2112  0609  0D85               	rlf	5,f
  2113  060A  3584               	lslf	4,f
  2114  060B  0D85               	rlf	5,f
  2115  060C  30F9               	movlw	low (_gargoyles| (0+32768))
  2116  060D  0784               	addwf	4,f
  2117  060E  3080               	movlw	high (_gargoyles| (0+32768))
  2118  060F  3D85               	addwfc	5,f
  2119  0610  3F00               	moviw [0]fsr0
  2120  0611  00F3               	movwf	playNote@note
  2121  0612  3F01               	moviw [1]fsr0
  2122  0613  00F4               	movwf	playNote@note+1
  2123  0614  0841               	movf	_i+1,w
  2124  0615  0085               	movwf	5
  2125  0616  0840               	movf	_i,w
  2126  0617  0084               	movwf	4
  2127  0618  3584               	lslf	4,f
  2128  0619  0D85               	rlf	5,f
  2129  061A  3584               	lslf	4,f
  2130  061B  0D85               	rlf	5,f
  2131  061C  30FB               	movlw	low ((_gargoyles+2)| (0+32768))
  2132  061D  0784               	addwf	4,f
  2133  061E  3080               	movlw	high ((_gargoyles+2)| (0+32768))
  2134  061F  3D85               	addwfc	5,f
  2135  0620  3F00               	moviw [0]fsr0
  2136  0621  00F5               	movwf	playNote@duration
  2137  0622  3F01               	moviw [1]fsr0
  2138  0623  00F6               	movwf	playNote@duration+1
  2139  0624  3187  273C  3185   	fcall	_playNote
  2140  0627                     l1457:
  2141  0627  3001               	movlw	1
  2142  0628  0140               	movlb	0	; select bank0
  2143  0629  07C0               	addwf	_i,f
  2144  062A  3000               	movlw	0
  2145  062B  3DC1               	addwfc	_i+1,f
  2146  062C                     l1459:
  2147  062C  3001               	movlw	1
  2148  062D  0241               	subwf	_i+1,w
  2149  062E  30C0               	movlw	192
  2150  062F  1903               	skipnz
  2151  0630  0240               	subwf	_i,w
  2152  0631  1803               	skipnc
  2153  0632  2E34               	goto	u1141
  2154  0633  2E35               	goto	u1140
  2155  0634                     u1141:
  2156  0634  2E55               	goto	l1469
  2157  0635                     u1140:
  2158  0635                     l1461:
  2159  0635  082A               	movf	_gotTheTouch,w
  2160  0636  042B               	iorwf	_gotTheTouch+1,w
  2161  0637  1903               	btfsc	3,2
  2162  0638  2E3A               	goto	u1151
  2163  0639  2E3B               	goto	u1150
  2164  063A                     u1151:
  2165  063A  2E55               	goto	l1469
  2166  063B                     u1150:
  2167  063B                     l1463:
  2168  063B  0832               	movf	_poweredOn,w
  2169  063C  0433               	iorwf	_poweredOn+1,w
  2170  063D  1D03               	btfss	3,2
  2171  063E  2E40               	goto	u1161
  2172  063F  2E41               	goto	u1160
  2173  0640                     u1161:
  2174  0640  2E04               	goto	l1455
  2175  0641                     u1160:
  2176  0641  2E55               	goto	l1469
  2177  0642                     l1467:
  2178  0642  0843               	movf	_runIndex,w
  2179  0643  00F7               	movwf	??_doTheArc
  2180  0644  01F8               	clrf	??_doTheArc+1
  2181                           
  2182                           ; Switch on 2 bytes has been partitioned into a top level switch of size 1, and 1 sub-sw
      +                          itches
  2183                           ; Switch size 1, requested type "simple"
  2184                           ; Number of cases is 1, Range of values is 0 to 0
  2185                           ; switch strategies available:
  2186                           ; Name         Instructions Cycles
  2187                           ; simple_byte            4     3 (average)
  2188                           ; direct_byte            8     6 (fixed)
  2189                           ; jumptable            260     6 (fixed)
  2190                           ;	Chosen strategy is simple_byte
  2191  0645  0878               	movf	??_doTheArc+1,w
  2192  0646  3A00               	xorlw	0	; case 0
  2193  0647  1903               	skipnz
  2194  0648  2E4A               	goto	l2025
  2195  0649  2E55               	goto	l1469
  2196  064A                     l2025:
  2197                           
  2198                           ; Switch size 1, requested type "simple"
  2199                           ; Number of cases is 3, Range of values is 1 to 3
  2200                           ; switch strategies available:
  2201                           ; Name         Instructions Cycles
  2202                           ; simple_byte           10     6 (average)
  2203                           ; direct_byte           15     9 (fixed)
  2204                           ; jumptable            263     9 (fixed)
  2205                           ;	Chosen strategy is simple_byte
  2206  064A  0877               	movf	??_doTheArc,w
  2207  064B  3A01               	xorlw	1	; case 1
  2208  064C  1903               	skipnz
  2209  064D  2D93               	goto	l226
  2210  064E  3A03               	xorlw	3	; case 2
  2211  064F  1903               	skipnz
  2212  0650  2DA4               	goto	l233
  2213  0651  3A01               	xorlw	1	; case 3
  2214  0652  1903               	skipnz
  2215  0653  2DF3               	goto	l239
  2216  0654  2E55               	goto	l1469
  2217  0655                     l1469:
  2218                           
  2219                           ;main.c: 707:     forceArc = 0;
  2220  0655  01BE               	clrf	_forceArc
  2221  0656  01BF               	clrf	_forceArc+1
  2222  0657                     l1471:
  2223                           
  2224                           ;main.c: 709:     LATA1 = 1;
  2225  0657  1498               	bsf	24,1	;volatile
  2226  0658                     l1473:
  2227                           
  2228                           ;main.c: 710:     LATA2 = 1;
  2229  0658  1518               	bsf	24,2	;volatile
  2230  0659                     l1475:
  2231                           
  2232                           ;main.c: 711:     LATC0 = 1;
  2233  0659  141A               	bsf	26,0	;volatile
  2234  065A                     l1477:
  2235                           
  2236                           ;main.c: 712:     LATC1 = 1;
  2237  065A  149A               	bsf	26,1	;volatile
  2238  065B                     l246:
  2239  065B  0008               	return
  2240  065C                     __end_of_doTheArc:
  2241                           
  2242                           	psect	text3
  2243  073C                     __ptext3:	
  2244 ;; *************** function _playNote *****************
  2245 ;; Defined at:
  2246 ;;		line 725 in file "main.c"
  2247 ;; Parameters:    Size  Location     Type
  2248 ;;  note            2    3[COMMON] unsigned int 
  2249 ;;  duration        2    5[COMMON] unsigned int 
  2250 ;; Auto vars:     Size  Location     Type
  2251 ;;		None
  2252 ;; Return value:  Size  Location     Type
  2253 ;;                  1    wreg      void 
  2254 ;; Registers used:
  2255 ;;		wreg, fsr0l, fsr0h, status,2, status,0, pclath, cstack
  2256 ;; Tracked objects:
  2257 ;;		On entry : 0/0
  2258 ;;		On exit  : 0/0
  2259 ;;		Unchanged: 0/0
  2260 ;; Data sizes:     COMMON   BANK0   BANK1   BANK2   BANK3   BANK4   BANK5   BANK6
  2261 ;;      Params:         4       0       0       0       0       0       0       0
  2262 ;;      Locals:         0       0       0       0       0       0       0       0
  2263 ;;      Temps:          0       0       0       0       0       0       0       0
  2264 ;;      Totals:         4       0       0       0       0       0       0       0
  2265 ;;Total ram usage:        4 bytes
  2266 ;; Hardware stack levels used: 1
  2267 ;; Hardware stack levels required when called: 2
  2268 ;; This function calls:
  2269 ;;		_blockingDelay
  2270 ;; This function is called by:
  2271 ;;		_doTheArc
  2272 ;;		_goToLPmode
  2273 ;; This function uses a non-reentrant model
  2274 ;;
  2275                           
  2276                           
  2277                           ;psect for function _playNote
  2278  073C                     _playNote:
  2279  073C                     l1297:	
  2280                           ;incstack = 0
  2281                           ; Regs used in _playNote: [wreg-fsr0h+status,2+status,0+pclath+cstack]
  2282                           
  2283                           
  2284                           ;main.c: 726:     if (note > 0) {
  2285  073C  0873               	movf	playNote@note,w
  2286  073D  0474               	iorwf	playNote@note+1,w
  2287  073E  1903               	btfsc	3,2
  2288  073F  2F41               	goto	u781
  2289  0740  2F42               	goto	u780
  2290  0741                     u781:
  2291  0741  2F51               	goto	l1303
  2292  0742                     u780:
  2293  0742                     l1299:
  2294                           
  2295                           ;main.c: 727:         noGate = 0;
  2296  0742  0140               	movlb	0	; select bank0
  2297  0743  01EC               	clrf	_noGate
  2298  0744  01ED               	clrf	_noGate+1
  2299  0745                     l1301:
  2300                           
  2301                           ;main.c: 728:         PR2 = notes[note];
  2302  0745  0874               	movf	playNote@note+1,w
  2303  0746  0085               	movwf	5
  2304  0747  0873               	movf	playNote@note,w
  2305  0748  0084               	movwf	4
  2306  0749  3018               	movlw	low (_notes| (0+32768))
  2307  074A  0784               	addwf	4,f
  2308  074B  3087               	movlw	high (_notes| (0+32768))
  2309  074C  3D85               	addwfc	5,f
  2310  074D  0800               	movf	0,w	;code access
  2311  074E  0145               	movlb	5	; select bank5
  2312  074F  008D               	movwf	13	;volatile
  2313                           
  2314                           ;main.c: 729:     } else {
  2315  0750  2F56               	goto	l1305
  2316  0751                     l1303:
  2317                           
  2318                           ;main.c: 730:         noGate = 1;
  2319  0751  3001               	movlw	1
  2320  0752  0140               	movlb	0	; select bank0
  2321  0753  00EC               	movwf	_noGate
  2322  0754  3000               	movlw	0
  2323  0755  00ED               	movwf	_noGate+1
  2324  0756                     l1305:
  2325                           
  2326                           ;main.c: 732:     blockingDelay(duration);
  2327  0756  0876               	movf	playNote@duration+1,w
  2328  0757  00F2               	movwf	blockingDelay@mSecs+1
  2329  0758  0875               	movf	playNote@duration,w
  2330  0759  00F1               	movwf	blockingDelay@mSecs
  2331  075A  3187  2774  3187   	fcall	_blockingDelay
  2332  075D                     l257:
  2333  075D  0008               	return
  2334  075E                     __end_of_playNote:
  2335                           
  2336                           	psect	text4
  2337  03A9                     __ptext4:	
  2338 ;; *************** function _chargeIndicator *****************
  2339 ;; Defined at:
  2340 ;;		line 767 in file "main.c"
  2341 ;; Parameters:    Size  Location     Type
  2342 ;;		None
  2343 ;; Auto vars:     Size  Location     Type
  2344 ;;		None
  2345 ;; Return value:  Size  Location     Type
  2346 ;;                  1    wreg      void 
  2347 ;; Registers used:
  2348 ;;		wreg, status,2, status,0, pclath, cstack
  2349 ;; Tracked objects:
  2350 ;;		On entry : 0/0
  2351 ;;		On exit  : 0/0
  2352 ;;		Unchanged: 0/0
  2353 ;; Data sizes:     COMMON   BANK0   BANK1   BANK2   BANK3   BANK4   BANK5   BANK6
  2354 ;;      Params:         0       0       0       0       0       0       0       0
  2355 ;;      Locals:         0       4       0       0       0       0       0       0
  2356 ;;      Temps:          1       0       0       0       0       0       0       0
  2357 ;;      Totals:         1       4       0       0       0       0       0       0
  2358 ;;Total ram usage:        5 bytes
  2359 ;; Hardware stack levels used: 1
  2360 ;; Hardware stack levels required when called: 2
  2361 ;; This function calls:
  2362 ;;		___lldiv
  2363 ;;		___lmul
  2364 ;;		_blockingDelay
  2365 ;; This function is called by:
  2366 ;;		_main
  2367 ;; This function uses a non-reentrant model
  2368 ;;
  2369                           
  2370                           
  2371                           ;psect for function _chargeIndicator
  2372  03A9                     _chargeIndicator:
  2373  03A9                     l1811:	
  2374                           ;incstack = 0
  2375                           ; Regs used in _chargeIndicator: [wreg+status,2+status,0+pclath+cstack]
  2376                           
  2377                           
  2378                           ;main.c: 769:     if (!debugging) ADCON0bits.ON = 1;
  2379  03A9  0140               	movlb	0	; select bank0
  2380  03AA  0846               	movf	_debugging,w
  2381  03AB  1D03               	btfss	3,2
  2382  03AC  2BAE               	goto	u1661
  2383  03AD  2BAF               	goto	u1660
  2384  03AE                     u1661:
  2385  03AE  2BB1               	goto	l266
  2386  03AF                     u1660:
  2387  03AF                     l1813:
  2388  03AF  0141               	movlb	1	; select bank1
  2389  03B0  141D               	bsf	29,0	;volatile
  2390  03B1                     l266:
  2391                           
  2392                           ;main.c: 775:     ADCON0bits.GO = 1;
  2393  03B1  0141               	movlb	1	; select bank1
  2394  03B2  149D               	bsf	29,1	;volatile
  2395  03B3                     l1815:
  2396                           
  2397                           ;main.c: 776:     if (!debugging) while (ADCON0bits.GO == 1);
  2398  03B3  0140               	movlb	0	; select bank0
  2399  03B4  0846               	movf	_debugging,w
  2400  03B5  1D03               	btfss	3,2
  2401  03B6  2BB8               	goto	u1671
  2402  03B7  2BB9               	goto	u1670
  2403  03B8                     u1671:
  2404  03B8  2BBE               	goto	l1819
  2405  03B9                     u1670:
  2406  03B9                     l268:
  2407  03B9  0141               	movlb	1	; select bank1
  2408  03BA  189D               	btfsc	29,1	;volatile
  2409  03BB  2BBD               	goto	u1681
  2410  03BC  2BBE               	goto	u1680
  2411  03BD                     u1681:
  2412  03BD  2BB9               	goto	l268
  2413  03BE                     u1680:
  2414  03BE                     l1819:
  2415                           
  2416                           ;main.c: 777:     adcVolts = ADRES;
  2417  03BE  0141               	movlb	1	; select bank1
  2418  03BF  081C               	movf	28,w	;volatile
  2419  03C0  0140               	movlb	0	; select bank0
  2420  03C1  00A5               	movwf	_adcVolts+1
  2421  03C2  0141               	movlb	1	; select bank1
  2422  03C3  081B               	movf	27,w	;volatile
  2423  03C4  0140               	movlb	0	; select bank0
  2424  03C5  00A4               	movwf	_adcVolts
  2425  03C6                     l1821:
  2426                           
  2427                           ;main.c: 778:     if (!debugging) battVolts = ((calibrationMV * 1204) / adcVolts) / 10;
  2428  03C6  0846               	movf	_debugging,w
  2429  03C7  1D03               	btfss	3,2
  2430  03C8  2BCA               	goto	u1691
  2431  03C9  2BCB               	goto	u1690
  2432  03CA                     u1691:
  2433  03CA  2C11               	goto	l1825
  2434  03CB                     u1690:
  2435  03CB                     l1823:
  2436  03CB  0824               	movf	_adcVolts,w
  2437  03CC  00D7               	movwf	___lldiv@divisor
  2438  03CD  0825               	movf	_adcVolts+1,w
  2439  03CE  00D8               	movwf	___lldiv@divisor+1
  2440  03CF  01D9               	clrf	___lldiv@divisor+2
  2441  03D0  01DA               	clrf	___lldiv@divisor+3
  2442  03D1  0823               	movf	_calibrationMV+3,w
  2443  03D2  00F4               	movwf	___lmul@multiplier+3
  2444  03D3  0822               	movf	_calibrationMV+2,w
  2445  03D4  00F3               	movwf	___lmul@multiplier+2
  2446  03D5  0821               	movf	_calibrationMV+1,w
  2447  03D6  00F2               	movwf	___lmul@multiplier+1
  2448  03D7  0820               	movf	_calibrationMV,w
  2449  03D8  00F1               	movwf	___lmul@multiplier
  2450  03D9  3000               	movlw	0
  2451  03DA  00F8               	movwf	___lmul@multiplicand+3
  2452  03DB  3000               	movlw	0
  2453  03DC  00F7               	movwf	___lmul@multiplicand+2
  2454  03DD  3004               	movlw	4
  2455  03DE  00F6               	movwf	___lmul@multiplicand+1
  2456  03DF  30B4               	movlw	180
  2457  03E0  00F5               	movwf	___lmul@multiplicand
  2458  03E1  3186  26B7  3183   	fcall	___lmul
  2459  03E4  0874               	movf	?___lmul+3,w
  2460  03E5  0140               	movlb	0	; select bank0
  2461  03E6  00DE               	movwf	___lldiv@dividend+3
  2462  03E7  0873               	movf	?___lmul+2,w
  2463  03E8  00DD               	movwf	___lldiv@dividend+2
  2464  03E9  0872               	movf	?___lmul+1,w
  2465  03EA  00DC               	movwf	___lldiv@dividend+1
  2466  03EB  0871               	movf	?___lmul,w
  2467  03EC  00DB               	movwf	___lldiv@dividend
  2468  03ED  3186  265C  3183   	fcall	___lldiv
  2469  03F0  0140               	movlb	0	; select bank0
  2470  03F1  085A               	movf	?___lldiv+3,w
  2471  03F2  00E7               	movwf	_chargeIndicator$1118+3
  2472  03F3  0859               	movf	?___lldiv+2,w
  2473  03F4  00E6               	movwf	_chargeIndicator$1118+2
  2474  03F5  0858               	movf	?___lldiv+1,w
  2475  03F6  00E5               	movwf	_chargeIndicator$1118+1
  2476  03F7  0857               	movf	?___lldiv,w
  2477  03F8  00E4               	movwf	_chargeIndicator$1118
  2478  03F9  3000               	movlw	0
  2479  03FA  00DA               	movwf	___lldiv@divisor+3
  2480  03FB  3000               	movlw	0
  2481  03FC  00D9               	movwf	___lldiv@divisor+2
  2482  03FD  3000               	movlw	0
  2483  03FE  00D8               	movwf	___lldiv@divisor+1
  2484  03FF  300A               	movlw	10
  2485  0400  00D7               	movwf	___lldiv@divisor
  2486  0401  0867               	movf	_chargeIndicator$1118+3,w
  2487  0402  00DE               	movwf	___lldiv@dividend+3
  2488  0403  0866               	movf	_chargeIndicator$1118+2,w
  2489  0404  00DD               	movwf	___lldiv@dividend+2
  2490  0405  0865               	movf	_chargeIndicator$1118+1,w
  2491  0406  00DC               	movwf	___lldiv@dividend+1
  2492  0407  0864               	movf	_chargeIndicator$1118,w
  2493  0408  00DB               	movwf	___lldiv@dividend
  2494  0409  3186  265C  3183   	fcall	___lldiv
  2495  040C  0140               	movlb	0	; select bank0
  2496  040D  0858               	movf	?___lldiv+1,w
  2497  040E  00A7               	movwf	_battVolts+1
  2498  040F  0857               	movf	?___lldiv,w
  2499  0410  00A6               	movwf	_battVolts
  2500  0411                     l1825:
  2501                           
  2502                           ;main.c: 780:     if (battVolts > 415) {
  2503  0411  3001               	movlw	1
  2504  0412  0227               	subwf	_battVolts+1,w
  2505  0413  30A0               	movlw	160
  2506  0414  1903               	skipnz
  2507  0415  0226               	subwf	_battVolts,w
  2508  0416  1C03               	skipc
  2509  0417  2C19               	goto	u1701
  2510  0418  2C1A               	goto	u1700
  2511  0419                     u1701:
  2512  0419  2C29               	goto	l1833
  2513  041A                     u1700:
  2514  041A                     l1827:
  2515                           
  2516                           ;main.c: 783:         LATA1 = 0;
  2517  041A  1098               	bcf	24,1	;volatile
  2518                           
  2519                           ;main.c: 784:         LATA2 = 0;
  2520  041B  1118               	bcf	24,2	;volatile
  2521                           
  2522                           ;main.c: 785:         LATC0 = 0;
  2523  041C  101A               	bcf	26,0	;volatile
  2524                           
  2525                           ;main.c: 786:         LATC1 = 0;
  2526  041D  109A               	bcf	26,1	;volatile
  2527  041E                     l1829:
  2528                           
  2529                           ;main.c: 787:         if (charging) lowPowerMode = 1;
  2530  041E  0828               	movf	_charging,w
  2531  041F  0429               	iorwf	_charging+1,w
  2532  0420  1903               	btfsc	3,2
  2533  0421  2C23               	goto	u1711
  2534  0422  2C24               	goto	u1710
  2535  0423                     u1711:
  2536  0423  2C84               	goto	l1867
  2537  0424                     u1710:
  2538  0424                     l1831:
  2539  0424  3001               	movlw	1
  2540  0425  00AE               	movwf	_lowPowerMode
  2541  0426  3000               	movlw	0
  2542  0427  00AF               	movwf	_lowPowerMode+1
  2543  0428  2C84               	goto	l1867
  2544  0429                     l1833:
  2545  0429  3001               	movlw	1
  2546  042A  0227               	subwf	_battVolts+1,w
  2547  042B  308F               	movlw	143
  2548  042C  1903               	skipnz
  2549  042D  0226               	subwf	_battVolts,w
  2550  042E  1C03               	skipc
  2551  042F  2C31               	goto	u1721
  2552  0430  2C32               	goto	u1720
  2553  0431                     u1721:
  2554  0431  2C44               	goto	l1843
  2555  0432                     u1720:
  2556  0432                     l1835:
  2557                           
  2558                           ;main.c: 791:         LATA1 = 0;
  2559  0432  1098               	bcf	24,1	;volatile
  2560                           
  2561                           ;main.c: 792:         LATA2 = 0;
  2562  0433  1118               	bcf	24,2	;volatile
  2563                           
  2564                           ;main.c: 793:         LATC0 = 0;
  2565  0434  101A               	bcf	26,0	;volatile
  2566  0435                     l1837:
  2567                           
  2568                           ;main.c: 794:         if (charging) {
  2569  0435  0828               	movf	_charging,w
  2570  0436  0429               	iorwf	_charging+1,w
  2571  0437  1903               	btfsc	3,2
  2572  0438  2C3A               	goto	u1731
  2573  0439  2C3B               	goto	u1730
  2574  043A                     u1731:
  2575  043A  2C84               	goto	l1867
  2576  043B                     u1730:
  2577  043B                     l1839:
  2578                           
  2579                           ;main.c: 795:             if (chargeCycle) LATC1 = 0;
  2580  043B  0842               	movf	_chargeCycle,w
  2581  043C  1903               	btfsc	3,2
  2582  043D  2C3F               	goto	u1741
  2583  043E  2C40               	goto	u1740
  2584  043F                     u1741:
  2585  043F  2C42               	goto	l277
  2586  0440                     u1740:
  2587  0440                     l1841:
  2588  0440  109A               	bcf	26,1	;volatile
  2589  0441  2C84               	goto	l1867
  2590  0442                     l277:	
  2591                           ;main.c: 796:             else LATC1 = 1;
  2592                           
  2593  0442  149A               	bsf	26,1	;volatile
  2594  0443  2C84               	goto	l1867
  2595  0444                     l1843:
  2596  0444  3001               	movlw	1
  2597  0445  0227               	subwf	_battVolts+1,w
  2598  0446  3081               	movlw	129
  2599  0447  1903               	skipnz
  2600  0448  0226               	subwf	_battVolts,w
  2601  0449  1C03               	skipc
  2602  044A  2C4C               	goto	u1751
  2603  044B  2C4D               	goto	u1750
  2604  044C                     u1751:
  2605  044C  2C5E               	goto	l1853
  2606  044D                     u1750:
  2607  044D                     l1845:
  2608                           
  2609                           ;main.c: 801:         LATA1 = 0;
  2610  044D  1098               	bcf	24,1	;volatile
  2611                           
  2612                           ;main.c: 802:         LATA2 = 0;
  2613  044E  1118               	bcf	24,2	;volatile
  2614  044F                     l1847:
  2615                           
  2616                           ;main.c: 803:         if (charging) {
  2617  044F  0828               	movf	_charging,w
  2618  0450  0429               	iorwf	_charging+1,w
  2619  0451  1903               	btfsc	3,2
  2620  0452  2C54               	goto	u1761
  2621  0453  2C55               	goto	u1760
  2622  0454                     u1761:
  2623  0454  2C42               	goto	l277
  2624  0455                     u1760:
  2625  0455                     l1849:
  2626                           
  2627                           ;main.c: 804:             if (chargeCycle) LATC0 = 0;
  2628  0455  0842               	movf	_chargeCycle,w
  2629  0456  1903               	btfsc	3,2
  2630  0457  2C59               	goto	u1771
  2631  0458  2C5A               	goto	u1770
  2632  0459                     u1771:
  2633  0459  2C5C               	goto	l282
  2634  045A                     u1770:
  2635  045A                     l1851:
  2636  045A  101A               	bcf	26,0	;volatile
  2637  045B  2C42               	goto	l277
  2638  045C                     l282:	
  2639                           ;main.c: 805:             else LATC0 = 1;
  2640                           
  2641  045C  141A               	bsf	26,0	;volatile
  2642  045D  2C42               	goto	l277
  2643  045E                     l1853:
  2644  045E  3001               	movlw	1
  2645  045F  0227               	subwf	_battVolts+1,w
  2646  0460  3078               	movlw	120
  2647  0461  1903               	skipnz
  2648  0462  0226               	subwf	_battVolts,w
  2649  0463  1C03               	skipc
  2650  0464  2C66               	goto	u1781
  2651  0465  2C67               	goto	u1780
  2652  0466                     u1781:
  2653  0466  2C79               	goto	l1863
  2654  0467                     u1780:
  2655  0467                     l1855:
  2656                           
  2657                           ;main.c: 811:         LATA1 = 0;
  2658  0467  1098               	bcf	24,1	;volatile
  2659  0468                     l1857:
  2660                           
  2661                           ;main.c: 812:         if (charging) {
  2662  0468  0828               	movf	_charging,w
  2663  0469  0429               	iorwf	_charging+1,w
  2664  046A  1903               	btfsc	3,2
  2665  046B  2C6D               	goto	u1791
  2666  046C  2C6E               	goto	u1790
  2667  046D                     u1791:
  2668  046D  2C76               	goto	l286
  2669  046E                     u1790:
  2670  046E                     l1859:
  2671                           
  2672                           ;main.c: 813:             if (chargeCycle) LATA2 = 0;
  2673  046E  0842               	movf	_chargeCycle,w
  2674  046F  1903               	btfsc	3,2
  2675  0470  2C72               	goto	u1801
  2676  0471  2C73               	goto	u1800
  2677  0472                     u1801:
  2678  0472  2C75               	goto	l287
  2679  0473                     u1800:
  2680  0473                     l1861:
  2681  0473  1118               	bcf	24,2	;volatile
  2682  0474  2C76               	goto	l286
  2683  0475                     l287:	
  2684                           ;main.c: 814:             else LATA2 = 1;
  2685                           
  2686  0475  1518               	bsf	24,2	;volatile
  2687  0476                     l286:	
  2688                           ;main.c: 815:         }
  2689                           
  2690                           
  2691                           ;main.c: 816:         LATC0 = 1;
  2692  0476  141A               	bsf	26,0	;volatile
  2693                           
  2694                           ;main.c: 817:         LATC1 = 1;
  2695  0477  149A               	bsf	26,1	;volatile
  2696                           
  2697                           ;main.c: 818:     } else {
  2698  0478  2C84               	goto	l1867
  2699  0479                     l1863:
  2700                           
  2701                           ;main.c: 820:         if (chargeCycle) LATA1 = 0;
  2702  0479  0842               	movf	_chargeCycle,w
  2703  047A  1903               	btfsc	3,2
  2704  047B  2C7D               	goto	u1811
  2705  047C  2C7E               	goto	u1810
  2706  047D                     u1811:
  2707  047D  2C80               	goto	l290
  2708  047E                     u1810:
  2709  047E                     l1865:
  2710  047E  1098               	bcf	24,1	;volatile
  2711  047F  2C81               	goto	l291
  2712  0480                     l290:	
  2713                           ;main.c: 821:         else LATA1 = 1;
  2714                           
  2715  0480  1498               	bsf	24,1	;volatile
  2716  0481                     l291:
  2717                           
  2718                           ;main.c: 822:         LATA2 = 1;
  2719  0481  1518               	bsf	24,2	;volatile
  2720                           
  2721                           ;main.c: 823:         LATC0 = 1;
  2722  0482  141A               	bsf	26,0	;volatile
  2723                           
  2724                           ;main.c: 824:         LATC1 = 1;
  2725  0483  149A               	bsf	26,1	;volatile
  2726  0484                     l1867:
  2727                           
  2728                           ;main.c: 826:     if (charging) {
  2729  0484  0828               	movf	_charging,w
  2730  0485  0429               	iorwf	_charging+1,w
  2731  0486  1903               	btfsc	3,2
  2732  0487  2C89               	goto	u1821
  2733  0488  2C8A               	goto	u1820
  2734  0489                     u1821:
  2735  0489  2C95               	goto	l293
  2736  048A                     u1820:
  2737  048A                     l1869:
  2738                           
  2739                           ;main.c: 827:         chargeCycle ^= 1;
  2740  048A  3001               	movlw	1
  2741  048B  00FA               	movwf	??_chargeIndicator
  2742  048C  087A               	movf	??_chargeIndicator,w
  2743  048D  06C2               	xorwf	_chargeCycle,f
  2744  048E                     l1871:
  2745                           
  2746                           ;main.c: 829:         blockingDelay(500);
  2747  048E  30F4               	movlw	244
  2748  048F  00F1               	movwf	blockingDelay@mSecs
  2749  0490  3001               	movlw	1
  2750  0491  00F2               	movwf	blockingDelay@mSecs+1
  2751  0492  3187  2774  3183   	fcall	_blockingDelay
  2752  0495                     l293:
  2753  0495  0008               	return
  2754  0496                     __end_of_chargeIndicator:
  2755                           
  2756                           	psect	text5
  2757  0774                     __ptext5:	
  2758 ;; *************** function _blockingDelay *****************
  2759 ;; Defined at:
  2760 ;;		line 718 in file "main.c"
  2761 ;; Parameters:    Size  Location     Type
  2762 ;;  mSecs           2    1[COMMON] unsigned int 
  2763 ;; Auto vars:     Size  Location     Type
  2764 ;;		None
  2765 ;; Return value:  Size  Location     Type
  2766 ;;                  1    wreg      void 
  2767 ;; Registers used:
  2768 ;;		wreg, status,2, status,0
  2769 ;; Tracked objects:
  2770 ;;		On entry : 0/0
  2771 ;;		On exit  : 0/0
  2772 ;;		Unchanged: 0/0
  2773 ;; Data sizes:     COMMON   BANK0   BANK1   BANK2   BANK3   BANK4   BANK5   BANK6
  2774 ;;      Params:         2       0       0       0       0       0       0       0
  2775 ;;      Locals:         0       0       0       0       0       0       0       0
  2776 ;;      Temps:          0       0       0       0       0       0       0       0
  2777 ;;      Totals:         2       0       0       0       0       0       0       0
  2778 ;;Total ram usage:        2 bytes
  2779 ;; Hardware stack levels used: 1
  2780 ;; Hardware stack levels required when called: 1
  2781 ;; This function calls:
  2782 ;;		Nothing
  2783 ;; This function is called by:
  2784 ;;		_main
  2785 ;;		_doTheArc
  2786 ;;		_playNote
  2787 ;;		_chargeIndicator
  2788 ;; This function uses a non-reentrant model
  2789 ;;
  2790                           
  2791                           
  2792                           ;psect for function _blockingDelay
  2793  0774                     _blockingDelay:
  2794  0774                     l1293:	
  2795                           ;incstack = 0
  2796                           ; Regs used in _blockingDelay: [wreg+status,2+status,0]
  2797                           
  2798                           
  2799                           ;main.c: 719:     genericDelay = mSecs;
  2800  0774  0872               	movf	blockingDelay@mSecs+1,w
  2801  0775  0140               	movlb	0	; select bank0
  2802  0776  00B5               	movwf	_genericDelay+1
  2803  0777  0871               	movf	blockingDelay@mSecs,w
  2804  0778  00B4               	movwf	_genericDelay
  2805  0779                     l1295:	
  2806                           ;main.c: 720:     while (genericDelay > 0);
  2807                           
  2808  0779  0834               	movf	_genericDelay,w
  2809  077A  0435               	iorwf	_genericDelay+1,w
  2810  077B  1D03               	btfss	3,2
  2811  077C  2F7E               	goto	u771
  2812  077D  2F7F               	goto	u770
  2813  077E                     u771:
  2814  077E  2F79               	goto	l1295
  2815  077F                     u770:
  2816  077F                     l252:
  2817  077F  0008               	return
  2818  0780                     __end_of_blockingDelay:
  2819                           
  2820                           	psect	text6
  2821  06B7                     __ptext6:	
  2822 ;; *************** function ___lmul *****************
  2823 ;; Defined at:
  2824 ;;		line 15 in file "C:\Program Files\Microchip\xc8\v2.32\pic\sources\c99\common\Umul32.c"
  2825 ;; Parameters:    Size  Location     Type
  2826 ;;  multiplier      4    1[COMMON] unsigned long 
  2827 ;;  multiplicand    4    5[COMMON] unsigned long 
  2828 ;; Auto vars:     Size  Location     Type
  2829 ;;  product         4    0[BANK0 ] unsigned long 
  2830 ;; Return value:  Size  Location     Type
  2831 ;;                  4    1[COMMON] unsigned long 
  2832 ;; Registers used:
  2833 ;;		wreg, status,2, status,0
  2834 ;; Tracked objects:
  2835 ;;		On entry : 0/0
  2836 ;;		On exit  : 0/0
  2837 ;;		Unchanged: 0/0
  2838 ;; Data sizes:     COMMON   BANK0   BANK1   BANK2   BANK3   BANK4   BANK5   BANK6
  2839 ;;      Params:         8       0       0       0       0       0       0       0
  2840 ;;      Locals:         0       4       0       0       0       0       0       0
  2841 ;;      Temps:          0       0       0       0       0       0       0       0
  2842 ;;      Totals:         8       4       0       0       0       0       0       0
  2843 ;;Total ram usage:       12 bytes
  2844 ;; Hardware stack levels used: 1
  2845 ;; Hardware stack levels required when called: 1
  2846 ;; This function calls:
  2847 ;;		Nothing
  2848 ;; This function is called by:
  2849 ;;		_chargeIndicator
  2850 ;; This function uses a non-reentrant model
  2851 ;;
  2852                           
  2853                           
  2854                           ;psect for function ___lmul
  2855  06B7                     ___lmul:
  2856  06B7                     l1773:	
  2857                           ;incstack = 0
  2858                           ; Regs used in ___lmul: [wreg+status,2+status,0]
  2859                           
  2860  06B7  3000               	movlw	0
  2861  06B8  0140               	movlb	0	; select bank0
  2862  06B9  00D6               	movwf	___lmul@product+3
  2863  06BA  3000               	movlw	0
  2864  06BB  00D5               	movwf	___lmul@product+2
  2865  06BC  3000               	movlw	0
  2866  06BD  00D4               	movwf	___lmul@product+1
  2867  06BE  3000               	movlw	0
  2868  06BF  00D3               	movwf	___lmul@product
  2869  06C0                     l1775:
  2870  06C0  1C71               	btfss	___lmul@multiplier,0
  2871  06C1  2EC3               	goto	u1551
  2872  06C2  2EC4               	goto	u1550
  2873  06C3                     u1551:
  2874  06C3  2ECD               	goto	l1779
  2875  06C4                     u1550:
  2876  06C4                     l1777:
  2877  06C4  0875               	movf	___lmul@multiplicand,w
  2878  06C5  0140               	movlb	0	; select bank0
  2879  06C6  07D3               	addwf	___lmul@product,f
  2880  06C7  0876               	movf	___lmul@multiplicand+1,w
  2881  06C8  3DD4               	addwfc	___lmul@product+1,f
  2882  06C9  0877               	movf	___lmul@multiplicand+2,w
  2883  06CA  3DD5               	addwfc	___lmul@product+2,f
  2884  06CB  0878               	movf	___lmul@multiplicand+3,w
  2885  06CC  3DD6               	addwfc	___lmul@product+3,f
  2886  06CD                     l1779:
  2887  06CD  3001               	movlw	1
  2888  06CE                     u1565:
  2889  06CE  35F5               	lslf	___lmul@multiplicand,f
  2890  06CF  0DF6               	rlf	___lmul@multiplicand+1,f
  2891  06D0  0DF7               	rlf	___lmul@multiplicand+2,f
  2892  06D1  0DF8               	rlf	___lmul@multiplicand+3,f
  2893  06D2  0B89               	decfsz	9,f
  2894  06D3  2ECE               	goto	u1565
  2895  06D4                     l1781:
  2896  06D4  3001               	movlw	1
  2897  06D5                     u1575:
  2898  06D5  36F4               	lsrf	___lmul@multiplier+3,f
  2899  06D6  0CF3               	rrf	___lmul@multiplier+2,f
  2900  06D7  0CF2               	rrf	___lmul@multiplier+1,f
  2901  06D8  0CF1               	rrf	___lmul@multiplier,f
  2902  06D9  0B89               	decfsz	9,f
  2903  06DA  2ED5               	goto	u1575
  2904  06DB  0874               	movf	___lmul@multiplier+3,w
  2905  06DC  0473               	iorwf	___lmul@multiplier+2,w
  2906  06DD  0472               	iorwf	___lmul@multiplier+1,w
  2907  06DE  0471               	iorwf	___lmul@multiplier,w
  2908  06DF  1D03               	skipz
  2909  06E0  2EE2               	goto	u1581
  2910  06E1  2EE3               	goto	u1580
  2911  06E2                     u1581:
  2912  06E2  2EC0               	goto	l1775
  2913  06E3                     u1580:
  2914  06E3                     l1783:
  2915  06E3  0140               	movlb	0	; select bank0
  2916  06E4  0856               	movf	___lmul@product+3,w
  2917  06E5  00F4               	movwf	?___lmul+3
  2918  06E6  0855               	movf	___lmul@product+2,w
  2919  06E7  00F3               	movwf	?___lmul+2
  2920  06E8  0854               	movf	___lmul@product+1,w
  2921  06E9  00F2               	movwf	?___lmul+1
  2922  06EA  0853               	movf	___lmul@product,w
  2923  06EB  00F1               	movwf	?___lmul
  2924  06EC                     l395:
  2925  06EC  0008               	return
  2926  06ED                     __end_of___lmul:
  2927                           
  2928                           	psect	text7
  2929  065C                     __ptext7:	
  2930 ;; *************** function ___lldiv *****************
  2931 ;; Defined at:
  2932 ;;		line 5 in file "C:\Program Files\Microchip\xc8\v2.32\pic\sources\c99\common\__lldiv.c"
  2933 ;; Parameters:    Size  Location     Type
  2934 ;;  divisor         4    4[BANK0 ] unsigned long 
  2935 ;;  dividend        4    8[BANK0 ] unsigned long 
  2936 ;; Auto vars:     Size  Location     Type
  2937 ;;  quotient        4   12[BANK0 ] unsigned long 
  2938 ;;  counter         1   16[BANK0 ] unsigned char 
  2939 ;; Return value:  Size  Location     Type
  2940 ;;                  4    4[BANK0 ] unsigned long 
  2941 ;; Registers used:
  2942 ;;		wreg, status,2, status,0
  2943 ;; Tracked objects:
  2944 ;;		On entry : 0/0
  2945 ;;		On exit  : 0/0
  2946 ;;		Unchanged: 0/0
  2947 ;; Data sizes:     COMMON   BANK0   BANK1   BANK2   BANK3   BANK4   BANK5   BANK6
  2948 ;;      Params:         0       8       0       0       0       0       0       0
  2949 ;;      Locals:         0       5       0       0       0       0       0       0
  2950 ;;      Temps:          1       0       0       0       0       0       0       0
  2951 ;;      Totals:         1      13       0       0       0       0       0       0
  2952 ;;Total ram usage:       14 bytes
  2953 ;; Hardware stack levels used: 1
  2954 ;; Hardware stack levels required when called: 1
  2955 ;; This function calls:
  2956 ;;		Nothing
  2957 ;; This function is called by:
  2958 ;;		_chargeIndicator
  2959 ;; This function uses a non-reentrant model
  2960 ;;
  2961                           
  2962                           
  2963                           ;psect for function ___lldiv
  2964  065C                     ___lldiv:
  2965  065C                     l1787:	
  2966                           ;incstack = 0
  2967                           ; Regs used in ___lldiv: [wreg+status,2+status,0]
  2968                           
  2969  065C  3000               	movlw	0
  2970  065D  0140               	movlb	0	; select bank0
  2971  065E  00E2               	movwf	___lldiv@quotient+3
  2972  065F  3000               	movlw	0
  2973  0660  00E1               	movwf	___lldiv@quotient+2
  2974  0661  3000               	movlw	0
  2975  0662  00E0               	movwf	___lldiv@quotient+1
  2976  0663  3000               	movlw	0
  2977  0664  00DF               	movwf	___lldiv@quotient
  2978  0665  085A               	movf	___lldiv@divisor+3,w
  2979  0666  0459               	iorwf	___lldiv@divisor+2,w
  2980  0667  0458               	iorwf	___lldiv@divisor+1,w
  2981  0668  0457               	iorwf	___lldiv@divisor,w
  2982  0669  1903               	skipnz
  2983  066A  2E6C               	goto	u1591
  2984  066B  2E6D               	goto	u1590
  2985  066C                     u1591:
  2986  066C  2EAE               	goto	l1807
  2987  066D                     u1590:
  2988  066D                     l1789:
  2989  066D  01E3               	clrf	___lldiv@counter
  2990  066E  0AE3               	incf	___lldiv@counter,f
  2991  066F  2E7B               	goto	l1793
  2992  0670                     l1791:
  2993  0670  3001               	movlw	1
  2994  0671                     u1605:
  2995  0671  35D7               	lslf	___lldiv@divisor,f
  2996  0672  0DD8               	rlf	___lldiv@divisor+1,f
  2997  0673  0DD9               	rlf	___lldiv@divisor+2,f
  2998  0674  0DDA               	rlf	___lldiv@divisor+3,f
  2999  0675  0B89               	decfsz	9,f
  3000  0676  2E71               	goto	u1605
  3001  0677  3001               	movlw	1
  3002  0678  00F9               	movwf	??___lldiv
  3003  0679  0879               	movf	??___lldiv,w
  3004  067A  07E3               	addwf	___lldiv@counter,f
  3005  067B                     l1793:
  3006  067B  1FDA               	btfss	___lldiv@divisor+3,7
  3007  067C  2E7E               	goto	u1611
  3008  067D  2E7F               	goto	u1610
  3009  067E                     u1611:
  3010  067E  2E70               	goto	l1791
  3011  067F                     u1610:
  3012  067F                     l1795:
  3013  067F  3001               	movlw	1
  3014  0680                     u1625:
  3015  0680  35DF               	lslf	___lldiv@quotient,f
  3016  0681  0DE0               	rlf	___lldiv@quotient+1,f
  3017  0682  0DE1               	rlf	___lldiv@quotient+2,f
  3018  0683  0DE2               	rlf	___lldiv@quotient+3,f
  3019  0684  0B89               	decfsz	9,f
  3020  0685  2E80               	goto	u1625
  3021  0686                     l1797:
  3022  0686  085A               	movf	___lldiv@divisor+3,w
  3023  0687  025E               	subwf	___lldiv@dividend+3,w
  3024  0688  1D03               	skipz
  3025  0689  2E94               	goto	u1635
  3026  068A  0859               	movf	___lldiv@divisor+2,w
  3027  068B  025D               	subwf	___lldiv@dividend+2,w
  3028  068C  1D03               	skipz
  3029  068D  2E94               	goto	u1635
  3030  068E  0858               	movf	___lldiv@divisor+1,w
  3031  068F  025C               	subwf	___lldiv@dividend+1,w
  3032  0690  1D03               	skipz
  3033  0691  2E94               	goto	u1635
  3034  0692  0857               	movf	___lldiv@divisor,w
  3035  0693  025B               	subwf	___lldiv@dividend,w
  3036  0694                     u1635:
  3037  0694  1C03               	skipc
  3038  0695  2E97               	goto	u1631
  3039  0696  2E98               	goto	u1630
  3040  0697                     u1631:
  3041  0697  2EA1               	goto	l1803
  3042  0698                     u1630:
  3043  0698                     l1799:
  3044  0698  0857               	movf	___lldiv@divisor,w
  3045  0699  02DB               	subwf	___lldiv@dividend,f
  3046  069A  0858               	movf	___lldiv@divisor+1,w
  3047  069B  3BDC               	subwfb	___lldiv@dividend+1,f
  3048  069C  0859               	movf	___lldiv@divisor+2,w
  3049  069D  3BDD               	subwfb	___lldiv@dividend+2,f
  3050  069E  085A               	movf	___lldiv@divisor+3,w
  3051  069F  3BDE               	subwfb	___lldiv@dividend+3,f
  3052  06A0                     l1801:
  3053  06A0  145F               	bsf	___lldiv@quotient,0
  3054  06A1                     l1803:
  3055  06A1  3001               	movlw	1
  3056  06A2                     u1645:
  3057  06A2  36DA               	lsrf	___lldiv@divisor+3,f
  3058  06A3  0CD9               	rrf	___lldiv@divisor+2,f
  3059  06A4  0CD8               	rrf	___lldiv@divisor+1,f
  3060  06A5  0CD7               	rrf	___lldiv@divisor,f
  3061  06A6  0B89               	decfsz	9,f
  3062  06A7  2EA2               	goto	u1645
  3063  06A8                     l1805:
  3064  06A8  3001               	movlw	1
  3065  06A9  02E3               	subwf	___lldiv@counter,f
  3066  06AA  1D03               	btfss	3,2
  3067  06AB  2EAD               	goto	u1651
  3068  06AC  2EAE               	goto	u1650
  3069  06AD                     u1651:
  3070  06AD  2E7F               	goto	l1795
  3071  06AE                     u1650:
  3072  06AE                     l1807:
  3073  06AE  0862               	movf	___lldiv@quotient+3,w
  3074  06AF  00DA               	movwf	?___lldiv+3
  3075  06B0  0861               	movf	___lldiv@quotient+2,w
  3076  06B1  00D9               	movwf	?___lldiv+2
  3077  06B2  0860               	movf	___lldiv@quotient+1,w
  3078  06B3  00D8               	movwf	?___lldiv+1
  3079  06B4  085F               	movf	___lldiv@quotient,w
  3080  06B5  00D7               	movwf	?___lldiv
  3081  06B6                     l417:
  3082  06B6  0008               	return
  3083  06B7                     __end_of___lldiv:
  3084                           
  3085                           	psect	text8
  3086  06ED                     __ptext8:	
  3087 ;; *************** function _ButtonDebounceInit *****************
  3088 ;; Defined at:
  3089 ;;		line 56 in file "source/button_debounce.c"
  3090 ;; Parameters:    Size  Location     Type
  3091 ;;  port            1    wreg     PTR struct .
  3092 ;;		 -> aPorts(12), 
  3093 ;;  pulledUpButt    1    1[COMMON] unsigned char 
  3094 ;; Auto vars:     Size  Location     Type
  3095 ;;  port            1    4[COMMON] PTR struct .
  3096 ;;		 -> aPorts(12), 
  3097 ;;  i               1    3[COMMON] unsigned char 
  3098 ;; Return value:  Size  Location     Type
  3099 ;;                  1    wreg      void 
  3100 ;; Registers used:
  3101 ;;		wreg, fsr1l, fsr1h, status,2, status,0
  3102 ;; Tracked objects:
  3103 ;;		On entry : 0/0
  3104 ;;		On exit  : 0/0
  3105 ;;		Unchanged: 0/0
  3106 ;; Data sizes:     COMMON   BANK0   BANK1   BANK2   BANK3   BANK4   BANK5   BANK6
  3107 ;;      Params:         1       0       0       0       0       0       0       0
  3108 ;;      Locals:         2       0       0       0       0       0       0       0
  3109 ;;      Temps:          1       0       0       0       0       0       0       0
  3110 ;;      Totals:         4       0       0       0       0       0       0       0
  3111 ;;Total ram usage:        4 bytes
  3112 ;; Hardware stack levels used: 1
  3113 ;; Hardware stack levels required when called: 1
  3114 ;; This function calls:
  3115 ;;		Nothing
  3116 ;; This function is called by:
  3117 ;;		_main
  3118 ;; This function uses a non-reentrant model
  3119 ;;
  3120                           
  3121                           
  3122                           ;psect for function _ButtonDebounceInit
  3123  06ED                     _ButtonDebounceInit:
  3124                           
  3125                           ;incstack = 0
  3126                           ; Regs used in _ButtonDebounceInit: [wreg+fsr1l+fsr1h+status,2+status,0]
  3127                           ;ButtonDebounceInit@port stored from wreg
  3128  06ED  00F4               	movwf	ButtonDebounceInit@port
  3129  06EE                     l1345:
  3130                           
  3131                           ;source/button_debounce.c: 56: ButtonDebounceInit(Debouncer *port, uint8_t pulledUpButto
      +                          ns);source/button_debounce.c: 57: {;source/button_debounce.c: 58:     uint8_t i;;source/
      +                          button_debounce.c: 60:     port->index = 0;
  3132  06EE  0874               	movf	ButtonDebounceInit@port,w
  3133  06EF  3E08               	addlw	8
  3134  06F0  0086               	movwf	6
  3135  06F1  0187               	clrf	7
  3136  06F2  0181               	clrf	1
  3137                           
  3138                           ;source/button_debounce.c: 61:     port->debouncedState = 0x00;
  3139  06F3  0874               	movf	ButtonDebounceInit@port,w
  3140  06F4  3E09               	addlw	9
  3141  06F5  0086               	movwf	6
  3142  06F6  0187               	clrf	7
  3143  06F7  0181               	clrf	1
  3144                           
  3145                           ;source/button_debounce.c: 62:     port->changed = 0x00;
  3146  06F8  0874               	movf	ButtonDebounceInit@port,w
  3147  06F9  3E0A               	addlw	10
  3148  06FA  0086               	movwf	6
  3149  06FB  0187               	clrf	7
  3150  06FC  0181               	clrf	1
  3151                           
  3152                           ;source/button_debounce.c: 63:     port->pullType = pulledUpButtons;
  3153  06FD  0871               	movf	ButtonDebounceInit@pulledUpButtons,w
  3154  06FE  00F2               	movwf	??_ButtonDebounceInit
  3155  06FF  0874               	movf	ButtonDebounceInit@port,w
  3156  0700  3E0B               	addlw	11
  3157  0701  0086               	movwf	6
  3158  0702  0187               	clrf	7
  3159  0703  0872               	movf	??_ButtonDebounceInit,w
  3160  0704  0081               	movwf	1
  3161  0705                     l1347:
  3162                           
  3163                           ;source/button_debounce.c: 66:     for(i = 0; i < 8; i++)
  3164  0705  01F3               	clrf	ButtonDebounceInit@i
  3165  0706                     l1353:
  3166                           
  3167                           ;source/button_debounce.c: 67:     {;source/button_debounce.c: 68:         port->state[i
      +                          ] = 0x00;
  3168  0706  0873               	movf	ButtonDebounceInit@i,w
  3169  0707  0774               	addwf	ButtonDebounceInit@port,w
  3170  0708  00F2               	movwf	??_ButtonDebounceInit
  3171  0709  0872               	movf	??_ButtonDebounceInit,w
  3172  070A  0086               	movwf	6
  3173  070B  0187               	clrf	7
  3174  070C  0181               	clrf	1
  3175  070D                     l1355:
  3176                           
  3177                           ;source/button_debounce.c: 69:     }
  3178  070D  3001               	movlw	1
  3179  070E  00F2               	movwf	??_ButtonDebounceInit
  3180  070F  0872               	movf	??_ButtonDebounceInit,w
  3181  0710  07F3               	addwf	ButtonDebounceInit@i,f
  3182  0711                     l1357:
  3183  0711  3008               	movlw	8
  3184  0712  0273               	subwf	ButtonDebounceInit@i,w
  3185  0713  1C03               	skipc
  3186  0714  2F16               	goto	u901
  3187  0715  2F17               	goto	u900
  3188  0716                     u901:
  3189  0716  2F06               	goto	l1353
  3190  0717                     u900:
  3191  0717                     l362:
  3192  0717  0008               	return
  3193  0718                     __end_of_ButtonDebounceInit:
  3194                           
  3195                           	psect	intentry
  3196  0004                     __pintentry:	
  3197 ;; *************** function _isr *****************
  3198 ;; Defined at:
  3199 ;;		line 537 in file "main.c"
  3200 ;; Parameters:    Size  Location     Type
  3201 ;;		None
  3202 ;; Auto vars:     Size  Location     Type
  3203 ;;		None
  3204 ;; Return value:  Size  Location     Type
  3205 ;;                  1    wreg      void 
  3206 ;; Registers used:
  3207 ;;		wreg, status,2, status,0
  3208 ;; Tracked objects:
  3209 ;;		On entry : 0/0
  3210 ;;		On exit  : 0/0
  3211 ;;		Unchanged: 0/0
  3212 ;; Data sizes:     COMMON   BANK0   BANK1   BANK2   BANK3   BANK4   BANK5   BANK6
  3213 ;;      Params:         0       0       0       0       0       0       0       0
  3214 ;;      Locals:         0       0       0       0       0       0       0       0
  3215 ;;      Temps:          1       0       0       0       0       0       0       0
  3216 ;;      Totals:         1       0       0       0       0       0       0       0
  3217 ;;Total ram usage:        1 bytes
  3218 ;; Hardware stack levels used: 1
  3219 ;; This function calls:
  3220 ;;		Nothing
  3221 ;; This function is called by:
  3222 ;;		Interrupt level 1
  3223 ;; This function uses a non-reentrant model
  3224 ;;
  3225                           
  3226  0004                     _isr:
  3227                           
  3228                           ;incstack = 0
  3229  0004  147E               	bsf	int$flags,0	;set compiler interrupt flag (level 1)
  3230                           
  3231                           ; Regs used in _isr: [wreg+status,2+status,0]
  3232  0005  3180               	pagesel	$
  3233  0006                     i1l1631:
  3234                           
  3235                           ;main.c: 540:     if (PIR0bits.IOCIF) {
  3236  0006  014E               	movlb	14	; select bank14
  3237  0007  1E0C               	btfss	12,4	;volatile
  3238  0008  280A               	goto	u124_21
  3239  0009  280B               	goto	u124_20
  3240  000A                     u124_21:
  3241  000A  2861               	goto	i1l1675
  3242  000B                     u124_20:
  3243  000B                     i1l1633:
  3244                           
  3245                           ;main.c: 564:         if (IOCAF0) {
  3246  000B  017E               	movlb	62	; select bank62
  3247  000C  1C3F               	btfss	63,0	;volatile
  3248  000D  280F               	goto	u125_21
  3249  000E  2810               	goto	u125_20
  3250  000F                     u125_21:
  3251  000F  2834               	goto	i1l1653
  3252  0010                     u125_20:
  3253  0010                     i1l1635:
  3254                           
  3255                           ;main.c: 565:             IOCAF0 = 0;
  3256  0010  103F               	bcf	63,0	;volatile
  3257                           
  3258                           ;main.c: 567:             if (!PORTAbits.RA0 && !PORTAbits.RA5) {
  3259  0011  0140               	movlb	0	; select bank0
  3260  0012  180C               	btfsc	12,0	;volatile
  3261  0013  2815               	goto	u126_21
  3262  0014  2816               	goto	u126_20
  3263  0015                     u126_21:
  3264  0015  2824               	goto	i1l1645
  3265  0016                     u126_20:
  3266  0016                     i1l1637:
  3267  0016  1A8C               	btfsc	12,5	;volatile
  3268  0017  2819               	goto	u127_21
  3269  0018  281A               	goto	u127_20
  3270  0019                     u127_21:
  3271  0019  2824               	goto	i1l1645
  3272  001A                     u127_20:
  3273  001A                     i1l1639:
  3274                           
  3275                           ;main.c: 568:                 lowPowerMode = 0;
  3276  001A  01AE               	clrf	_lowPowerMode
  3277  001B  01AF               	clrf	_lowPowerMode+1
  3278  001C                     i1l1641:
  3279                           
  3280                           ;main.c: 569:                 poweredOn = 1;
  3281  001C  3001               	movlw	1
  3282  001D  00B2               	movwf	_poweredOn
  3283  001E  3000               	movlw	0
  3284  001F  00B3               	movwf	_poweredOn+1
  3285  0020                     i1l1643:
  3286                           
  3287                           ;main.c: 570:                 showCharge = 1;
  3288  0020  3001               	movlw	1
  3289  0021  00B0               	movwf	_showCharge
  3290  0022  3000               	movlw	0
  3291  0023  00B1               	movwf	_showCharge+1
  3292  0024                     i1l1645:
  3293                           
  3294                           ;main.c: 573:             if (PORTAbits.RA0 && !PORTAbits.RA5) {
  3295  0024  1C0C               	btfss	12,0	;volatile
  3296  0025  2827               	goto	u128_21
  3297  0026  2828               	goto	u128_20
  3298  0027                     u128_21:
  3299  0027  2834               	goto	i1l1653
  3300  0028                     u128_20:
  3301  0028                     i1l1647:
  3302  0028  1A8C               	btfsc	12,5	;volatile
  3303  0029  282B               	goto	u129_21
  3304  002A  282C               	goto	u129_20
  3305  002B                     u129_21:
  3306  002B  2834               	goto	i1l1653
  3307  002C                     u129_20:
  3308  002C                     i1l1649:
  3309                           
  3310                           ;main.c: 575:                 showCharge = 0;
  3311  002C  01B0               	clrf	_showCharge
  3312  002D  01B1               	clrf	_showCharge+1
  3313                           
  3314                           ;main.c: 576:                 poweredOn = 0;
  3315  002E  01B2               	clrf	_poweredOn
  3316  002F  01B3               	clrf	_poweredOn+1
  3317  0030                     i1l1651:
  3318                           
  3319                           ;main.c: 577:                 lowPowerMode = 1;
  3320  0030  3001               	movlw	1
  3321  0031  00AE               	movwf	_lowPowerMode
  3322  0032  3000               	movlw	0
  3323  0033  00AF               	movwf	_lowPowerMode+1
  3324  0034                     i1l1653:
  3325                           
  3326                           ;main.c: 583:         if (IOCAF3) {
  3327  0034  017E               	movlb	62	; select bank62
  3328  0035  1DBF               	btfss	63,3	;volatile
  3329  0036  2838               	goto	u130_21
  3330  0037  2839               	goto	u130_20
  3331  0038                     u130_21:
  3332  0038  2861               	goto	i1l1675
  3333  0039                     u130_20:
  3334  0039                     i1l1655:
  3335                           
  3336                           ;main.c: 584:             IOCAF3 = 0;
  3337  0039  11BF               	bcf	63,3	;volatile
  3338                           
  3339                           ;main.c: 586:             if (!PORTAbits.RA3 && !PORTAbits.RA0 && !PORTAbits.RA5) {
  3340  003A  0140               	movlb	0	; select bank0
  3341  003B  198C               	btfsc	12,3	;volatile
  3342  003C  283E               	goto	u131_21
  3343  003D  283F               	goto	u131_20
  3344  003E                     u131_21:
  3345  003E  2853               	goto	i1l1667
  3346  003F                     u131_20:
  3347  003F                     i1l1657:
  3348  003F  180C               	btfsc	12,0	;volatile
  3349  0040  2842               	goto	u132_21
  3350  0041  2843               	goto	u132_20
  3351  0042                     u132_21:
  3352  0042  2853               	goto	i1l1667
  3353  0043                     u132_20:
  3354  0043                     i1l1659:
  3355  0043  1A8C               	btfsc	12,5	;volatile
  3356  0044  2846               	goto	u133_21
  3357  0045  2847               	goto	u133_20
  3358  0046                     u133_21:
  3359  0046  2853               	goto	i1l1667
  3360  0047                     u133_20:
  3361  0047                     i1l1661:
  3362                           
  3363                           ;main.c: 587:                 lowPowerMode = 0;
  3364  0047  01AE               	clrf	_lowPowerMode
  3365  0048  01AF               	clrf	_lowPowerMode+1
  3366  0049                     i1l1663:
  3367                           
  3368                           ;main.c: 588:                 poweredOn = 1;
  3369  0049  3001               	movlw	1
  3370  004A  00B2               	movwf	_poweredOn
  3371  004B  3000               	movlw	0
  3372  004C  00B3               	movwf	_poweredOn+1
  3373  004D                     i1l1665:
  3374                           
  3375                           ;main.c: 589:                 showCharge = 0;
  3376  004D  01B0               	clrf	_showCharge
  3377  004E  01B1               	clrf	_showCharge+1
  3378                           
  3379                           ;main.c: 590:                 gotTheTouch = 1;
  3380  004F  3001               	movlw	1
  3381  0050  00AA               	movwf	_gotTheTouch
  3382  0051  3000               	movlw	0
  3383  0052  00AB               	movwf	_gotTheTouch+1
  3384  0053                     i1l1667:
  3385                           
  3386                           ;main.c: 593:             if (PORTAbits.RA3 && !PORTAbits.RA0 && !PORTAbits.RA5) {
  3387  0053  1D8C               	btfss	12,3	;volatile
  3388  0054  2856               	goto	u134_21
  3389  0055  2857               	goto	u134_20
  3390  0056                     u134_21:
  3391  0056  2861               	goto	i1l1675
  3392  0057                     u134_20:
  3393  0057                     i1l1669:
  3394  0057  180C               	btfsc	12,0	;volatile
  3395  0058  285A               	goto	u135_21
  3396  0059  285B               	goto	u135_20
  3397  005A                     u135_21:
  3398  005A  2861               	goto	i1l1675
  3399  005B                     u135_20:
  3400  005B                     i1l1671:
  3401  005B  1A8C               	btfsc	12,5	;volatile
  3402  005C  285E               	goto	u136_21
  3403  005D  285F               	goto	u136_20
  3404  005E                     u136_21:
  3405  005E  2861               	goto	i1l1675
  3406  005F                     u136_20:
  3407  005F                     i1l1673:
  3408                           
  3409                           ;main.c: 598:                 gotTheTouch = 0;
  3410  005F  01AA               	clrf	_gotTheTouch
  3411  0060  01AB               	clrf	_gotTheTouch+1
  3412  0061                     i1l1675:
  3413                           
  3414                           ;main.c: 608:     if (PIR1bits.TMR2IF) {
  3415  0061  014E               	movlb	14	; select bank14
  3416  0062  1F0D               	btfss	13,6	;volatile
  3417  0063  2865               	goto	u137_21
  3418  0064  2866               	goto	u137_20
  3419  0065                     u137_21:
  3420  0065  288C               	goto	i1l1693
  3421  0066                     u137_20:
  3422  0066                     i1l1677:
  3423                           
  3424                           ;main.c: 609:         if (!noGate && poweredOn && gotTheTouch) {
  3425  0066  0140               	movlb	0	; select bank0
  3426  0067  086C               	movf	_noGate,w
  3427  0068  046D               	iorwf	_noGate+1,w
  3428  0069  1D03               	btfss	3,2
  3429  006A  286C               	goto	u138_21
  3430  006B  286D               	goto	u138_20
  3431  006C                     u138_21:
  3432  006C  2888               	goto	i1l1689
  3433  006D                     u138_20:
  3434  006D                     i1l1679:
  3435  006D  0832               	movf	_poweredOn,w
  3436  006E  0433               	iorwf	_poweredOn+1,w
  3437  006F  1903               	btfsc	3,2
  3438  0070  2872               	goto	u139_21
  3439  0071  2873               	goto	u139_20
  3440  0072                     u139_21:
  3441  0072  2888               	goto	i1l1689
  3442  0073                     u139_20:
  3443  0073                     i1l1681:
  3444  0073  082A               	movf	_gotTheTouch,w
  3445  0074  042B               	iorwf	_gotTheTouch+1,w
  3446  0075  1903               	btfsc	3,2
  3447  0076  2878               	goto	u140_21
  3448  0077  2879               	goto	u140_20
  3449  0078                     u140_21:
  3450  0078  2888               	goto	i1l1689
  3451  0079                     u140_20:
  3452  0079                     i1l1683:
  3453                           
  3454                           ;main.c: 610:             postscaler ^= 1;
  3455  0079  3001               	movlw	1
  3456  007A  06B8               	xorwf	_postscaler,f
  3457  007B  3000               	movlw	0
  3458  007C  06B9               	xorwf	_postscaler+1,f
  3459  007D                     i1l1685:
  3460                           
  3461                           ;main.c: 611:             if (postscaler) {
  3462  007D  0838               	movf	_postscaler,w
  3463  007E  0439               	iorwf	_postscaler+1,w
  3464  007F  1903               	btfsc	3,2
  3465  0080  2882               	goto	u141_21
  3466  0081  2883               	goto	u141_20
  3467  0082                     u141_21:
  3468  0082  288A               	goto	i1l1691
  3469  0083                     u141_20:
  3470  0083                     i1l1687:
  3471                           
  3472                           ;main.c: 612:                 gate ^= 1;
  3473  0083  3001               	movlw	1
  3474  0084  06BC               	xorwf	_gate,f
  3475  0085  3000               	movlw	0
  3476  0086  06BD               	xorwf	_gate+1,f
  3477  0087  288A               	goto	i1l1691
  3478  0088                     i1l1689:
  3479                           
  3480                           ;main.c: 615:             gate = 0;
  3481  0088  01BC               	clrf	_gate
  3482  0089  01BD               	clrf	_gate+1
  3483  008A                     i1l1691:
  3484                           
  3485                           ;main.c: 617:         PIR1bits.TMR2IF = 0;
  3486  008A  014E               	movlb	14	; select bank14
  3487  008B  130D               	bcf	13,6	;volatile
  3488  008C                     i1l1693:
  3489                           
  3490                           ;main.c: 622:     if (PIR0bits.TMR0IF) {
  3491  008C  1E8C               	btfss	12,5	;volatile
  3492  008D  288F               	goto	u142_21
  3493  008E  2890               	goto	u142_20
  3494  008F                     u142_21:
  3495  008F  28E0               	goto	i1l221
  3496  0090                     u142_20:
  3497  0090                     i1l1695:
  3498                           
  3499                           ;main.c: 623:         if (clockDivider < 15) {
  3500  0090  300F               	movlw	15
  3501  0091  0140               	movlb	0	; select bank0
  3502  0092  0245               	subwf	_clockDivider,w
  3503  0093  1803               	skipnc
  3504  0094  2896               	goto	u143_21
  3505  0095  2897               	goto	u143_20
  3506  0096                     u143_21:
  3507  0096  28A6               	goto	i1l1703
  3508  0097                     u143_20:
  3509  0097                     i1l1697:
  3510                           
  3511                           ;main.c: 624:             if(debugging) clockDivider = 15;
  3512  0097  0846               	movf	_debugging,w
  3513  0098  1903               	btfsc	3,2
  3514  0099  289B               	goto	u144_21
  3515  009A  289C               	goto	u144_20
  3516  009B                     u144_21:
  3517  009B  28A1               	goto	i1l1701
  3518  009C                     u144_20:
  3519  009C                     i1l1699:
  3520  009C  300F               	movlw	15
  3521  009D  00F0               	movwf	??_isr
  3522  009E  0870               	movf	??_isr,w
  3523  009F  00C5               	movwf	_clockDivider
  3524  00A0  28BD               	goto	i1l1715
  3525  00A1                     i1l1701:
  3526  00A1  3001               	movlw	1
  3527  00A2  00F0               	movwf	??_isr
  3528  00A3  0870               	movf	??_isr,w
  3529  00A4  07C5               	addwf	_clockDivider,f
  3530  00A5  28BD               	goto	i1l1715
  3531  00A6                     i1l1703:
  3532                           
  3533                           ;main.c: 628:             if (debugging) genericDelay = 0;
  3534  00A6  0846               	movf	_debugging,w
  3535  00A7  1903               	btfsc	3,2
  3536  00A8  28AA               	goto	u145_21
  3537  00A9  28AB               	goto	u145_20
  3538  00AA                     u145_21:
  3539  00AA  28AE               	goto	i1l1707
  3540  00AB                     u145_20:
  3541  00AB                     i1l1705:
  3542  00AB  01B4               	clrf	_genericDelay
  3543  00AC  01B5               	clrf	_genericDelay+1
  3544  00AD  28B8               	goto	i1l1711
  3545  00AE                     i1l1707:
  3546  00AE  0834               	movf	_genericDelay,w
  3547  00AF  0435               	iorwf	_genericDelay+1,w
  3548  00B0  1903               	btfsc	3,2
  3549  00B1  28B3               	goto	u146_21
  3550  00B2  28B4               	goto	u146_20
  3551  00B3                     u146_21:
  3552  00B3  28B8               	goto	i1l1711
  3553  00B4                     u146_20:
  3554  00B4                     i1l1709:
  3555  00B4  3001               	movlw	1
  3556  00B5  02B4               	subwf	_genericDelay,f
  3557  00B6  3000               	movlw	0
  3558  00B7  3BB5               	subwfb	_genericDelay+1,f
  3559  00B8                     i1l1711:
  3560                           
  3561                           ;main.c: 633:             if (buttonDebounce < 2000) buttonDebounce++;
  3562  00B8  01C5               	clrf	_clockDivider
  3563  00B9                     i1l1713:
  3564  00B9  3001               	movlw	1
  3565  00BA  00F0               	movwf	??_isr
  3566  00BB  0870               	movf	??_isr,w
  3567  00BC  07C4               	addwf	_buttonDebounce,f
  3568  00BD                     i1l1715:
  3569                           
  3570                           ;main.c: 650:         if (gate || forceArc) {
  3571  00BD  083C               	movf	_gate,w
  3572  00BE  043D               	iorwf	_gate+1,w
  3573  00BF  1D03               	btfss	3,2
  3574  00C0  28C2               	goto	u147_21
  3575  00C1  28C3               	goto	u147_20
  3576  00C2                     u147_21:
  3577  00C2  28C9               	goto	i1l1719
  3578  00C3                     u147_20:
  3579  00C3                     i1l1717:
  3580  00C3  083E               	movf	_forceArc,w
  3581  00C4  043F               	iorwf	_forceArc+1,w
  3582  00C5  1903               	btfsc	3,2
  3583  00C6  28C8               	goto	u148_21
  3584  00C7  28C9               	goto	u148_20
  3585  00C8                     u148_21:
  3586  00C8  28DC               	goto	i1l217
  3587  00C9                     u148_20:
  3588  00C9                     i1l1719:
  3589                           
  3590                           ;main.c: 651:             pinState ^= 1;
  3591  00C9  3001               	movlw	(0+1) shl (_pinState& (0+7))
  3592  00CA  06FC               	xorwf	_pinState/(0+8),f
  3593  00CB                     i1l1721:
  3594                           
  3595                           ;main.c: 652:             LATC4 = pinState;
  3596  00CB  187C               	btfsc	_pinState/(0+8),_pinState& (0+7)
  3597  00CC  28CE               	goto	u149_21
  3598  00CD  28D1               	goto	u149_20
  3599  00CE                     u149_21:
  3600  00CE  0140               	movlb	0	; select bank0
  3601  00CF  161A               	bsf	26,4	;volatile
  3602  00D0  28D3               	goto	u150_24
  3603  00D1                     u149_20:
  3604  00D1  0140               	movlb	0	; select bank0
  3605  00D2  121A               	bcf	26,4	;volatile
  3606  00D3                     u150_24:
  3607  00D3                     i1l1723:
  3608                           
  3609                           ;main.c: 653:             LATC5 = (pinState^1);
  3610  00D3  1C7C               	btfss	_pinState/(0+8),_pinState& (0+7)
  3611  00D4  28D6               	goto	u151_21
  3612  00D5  28D9               	goto	u151_20
  3613  00D6                     u151_21:
  3614  00D6  0140               	movlb	0	; select bank0
  3615  00D7  169A               	bsf	26,5	;volatile
  3616  00D8  28DB               	goto	u152_24
  3617  00D9                     u151_20:
  3618  00D9  0140               	movlb	0	; select bank0
  3619  00DA  129A               	bcf	26,5	;volatile
  3620  00DB                     u152_24:
  3621                           
  3622                           ;main.c: 654:         } else {
  3623  00DB  28DE               	goto	i1l220
  3624  00DC                     i1l217:
  3625                           
  3626                           ;main.c: 655:             LATC4 = 0;
  3627  00DC  121A               	bcf	26,4	;volatile
  3628                           
  3629                           ;main.c: 656:             LATC5 = 0;
  3630  00DD  129A               	bcf	26,5	;volatile
  3631  00DE                     i1l220:	
  3632                           ;main.c: 657:         }
  3633                           
  3634                           
  3635                           ;main.c: 658:         PIR0bits.TMR0IF = 0;
  3636  00DE  014E               	movlb	14	; select bank14
  3637  00DF  128C               	bcf	12,5	;volatile
  3638  00E0                     i1l221:
  3639  00E0  107E               	bcf	int$flags,0	;clear compiler interrupt flag (level 1)
  3640  00E1  0009               	retfie
  3641  00E2                     __end_of_isr:
  3642  007E                     btemp	set	126	;btemp
  3643  007E                     int$flags	set	126
  3644  007E                     wtemp0	set	126
  3645                           
  3646                           	psect	config
  3647                           
  3648                           ;Config register CONFIG1 @ 0x8007
  3649                           ;	External Oscillator Mode Selection bits
  3650                           ;	FEXTOSC = 0x3, unprogrammed default
  3651                           ;	Power-up Default Value for COSC bits
  3652                           ;	RSTOSC = 0x0, user specified literal
  3653                           ;	Clock Out Enable bit
  3654                           ;	CLKOUTEN = 0x1, user specified literal
  3655                           ;	VDD Range Analog Calibration Selection bit
  3656                           ;	VDDAR = 0x1, unprogrammed default
  3657  8007                     	org	32775
  3658  8007  3FCF               	dw	16335
  3659                           
  3660                           ;Config register CONFIG2 @ 0x8008
  3661                           ;	Master Clear Enable bit
  3662                           ;	MCLRE = 0x0, user specified literal
  3663                           ;	Power-up Timer Selection bits
  3664                           ;	PWRTS = 0x3, unprogrammed default
  3665                           ;	WDT Operating Mode bits
  3666                           ;	WDTE = 0x0, user specified literal
  3667                           ;	Brown-out Reset Enable bits
  3668                           ;	BOREN = 0x0, user specified literal
  3669                           ;	Brown-out Reset Voltage Selection bit
  3670                           ;	BORV = LO, Brown-out Reset Voltage (VBOR) set to 1.9V
  3671                           ;	PPSLOCKED One-Way Set Enable bit
  3672                           ;	PPS1WAY = 0x1, unprogrammed default
  3673                           ;	Stack Overflow/Underflow Reset Enable bit
  3674                           ;	STVREN = ON, Stack Overflow or Underflow will cause a reset
  3675  8008                     	org	32776
  3676  8008  3F26               	dw	16166
  3677                           
  3678                           ;Config register CONFIG4 @ 0x800A
  3679                           ;	Boot Block Size Selection bits
  3680                           ;	BBSIZE = 0x7, unprogrammed default
  3681                           ;	Boot Block Enable bit
  3682                           ;	BBEN = 0x1, unprogrammed default
  3683                           ;	SAF Enable bit
  3684                           ;	SAFEN = 0x1, unprogrammed default
  3685                           ;	Application Block Write Protection bit
  3686                           ;	WRTAPP = 0x1, unprogrammed default
  3687                           ;	Boot Block Write Protection bit
  3688                           ;	WRTB = 0x1, unprogrammed default
  3689                           ;	Configuration Registers Write Protection bit
  3690                           ;	WRTC = 0x1, unprogrammed default
  3691                           ;	Storage Area Flash (SAF) Write Protection bit
  3692                           ;	WRTSAF = OFF, SAF is not write-protected
  3693                           ;	Low Voltage Programming Enable bit
  3694                           ;	LVP = OFF, High Voltage on MCLR/Vpp must be used for programming
  3695  800A                     	org	32778
  3696  800A  1FFF               	dw	8191
  3697                           
  3698                           ;Config register CONFIG5 @ 0x800B
  3699                           ;	User Program Flash Memory Code Protection bit
  3700                           ;	CP = OFF, User Program Flash Memory code protection is disabled
  3701  800B                     	org	32779
  3702  800B  3FFF               	dw	16383

Data Sizes:
    Strings     0
    Constant    724
    Data        2
    BSS         51
    Persistent  32
    Stack       0

Auto Spaces:
    Space          Size  Autos    Used
    COMMON           14     12      13
    BANK0            80     25      78
    BANK1            80      0       0
    BANK2            80      0       0
    BANK3            80      0       0
    BANK4            80      0       0
    BANK5            80      0       0
    BANK6            16      0       0

Pointer List with Targets:

    ButtonDebounceInit@port	PTR struct . size(1) Largest target is 12
		 -> aPorts(BANK0[12]), 


Critical Paths under _main in COMMON

    _main->_chargeIndicator
    _goToLPmode->_playNote
    _doTheArc->_playNote
    _playNote->_blockingDelay
    _chargeIndicator->___lldiv
    ___lldiv->___lmul

Critical Paths under _isr in COMMON

    None.

Critical Paths under _main in BANK0

    _main->_chargeIndicator
    _chargeIndicator->___lldiv
    ___lldiv->___lmul

Critical Paths under _isr in BANK0

    None.

Critical Paths under _main in BANK1

    None.

Critical Paths under _isr in BANK1

    None.

Critical Paths under _main in BANK2

    None.

Critical Paths under _isr in BANK2

    None.

Critical Paths under _main in BANK3

    None.

Critical Paths under _isr in BANK3

    None.

Critical Paths under _main in BANK4

    None.

Critical Paths under _isr in BANK4

    None.

Critical Paths under _main in BANK5

    None.

Critical Paths under _isr in BANK5

    None.

Critical Paths under _main in BANK6

    None.

Critical Paths under _isr in BANK6

    None.

Call Graph Tables:

 ---------------------------------------------------------------------------------
 (Depth) Function   	        Calls       Base Space   Used Autos Params    Refs
 ---------------------------------------------------------------------------------
 (0) _main                                                 5     1      4    5834
                                             11 COMMON     1     1      0
                                             21 BANK0      4     0      4
                 _ButtonDebounceInit
                      _blockingDelay
                    _chargeIndicator
                           _doTheArc
                         _goToLPmode
 ---------------------------------------------------------------------------------
 (1) _goToLPmode                                           0     0      0    1228
                           _playNote
 ---------------------------------------------------------------------------------
 (1) _doTheArc                                             2     2      0    1934
                                              7 COMMON     2     2      0
                      _blockingDelay
                           _playNote
 ---------------------------------------------------------------------------------
 (2) _playNote                                             4     0      4    1228
                                              3 COMMON     4     0      4
                      _blockingDelay
 ---------------------------------------------------------------------------------
 (1) _chargeIndicator                                      5     5      0    1657
                                             10 COMMON     1     1      0
                                             17 BANK0      4     4      0
                            ___lldiv
                             ___lmul
                      _blockingDelay
 ---------------------------------------------------------------------------------
 (3) _blockingDelay                                        2     0      2     706
                                              1 COMMON     2     0      2
 ---------------------------------------------------------------------------------
 (2) ___lmul                                              12     4      8     316
                                              1 COMMON     8     0      8
                                              0 BANK0      4     4      0
 ---------------------------------------------------------------------------------
 (2) ___lldiv                                             14     6      8     601
                                              9 COMMON     1     1      0
                                              4 BANK0     13     5      8
                             ___lmul (ARG)
 ---------------------------------------------------------------------------------
 (1) _ButtonDebounceInit                                   4     3      1     309
                                              1 COMMON     4     3      1
 ---------------------------------------------------------------------------------
 Estimated maximum stack depth 3
 ---------------------------------------------------------------------------------
 (Depth) Function   	        Calls       Base Space   Used Autos Params    Refs
 ---------------------------------------------------------------------------------
 (4) _isr                                                  1     1      0       0
                                              0 COMMON     1     1      0
 ---------------------------------------------------------------------------------
 Estimated maximum stack depth 4
 ---------------------------------------------------------------------------------

 Call Graph Graphs:

 _main (ROOT)
   _ButtonDebounceInit
   _blockingDelay
   _chargeIndicator
     ___lldiv
       ___lmul (ARG)
     ___lmul
     _blockingDelay
   _doTheArc
     _blockingDelay
     _playNote
       _blockingDelay
   _goToLPmode
     _playNote

 _isr (ROOT)

 Address spaces:
Name               Size   Autos  Total    Cost      Usage
BIGRAM             1F0      0       0       0        0.0%
NULL                 0      0       0       0        0.0%
CODE                 0      0       0       0        0.0%
BITCOMMON            E      0       1       1        7.1%
BITSFR0              0      0       0       1        0.0%
SFR0                 0      0       0       1        0.0%
COMMON               E      C       D       2       92.9%
BITSFR1              0      0       0       2        0.0%
SFR1                 0      0       0       2        0.0%
BITSFR2              0      0       0       3        0.0%
SFR2                 0      0       0       3        0.0%
STACK                0      0       0       3        0.0%
BITSFR3              0      0       0       4        0.0%
SFR3                 0      0       0       4        0.0%
ABS                  0      0      5B       4        0.0%
BITBANK0            50      0       0       5        0.0%
BITSFR4              0      0       0       5        0.0%
SFR4                 0      0       0       5        0.0%
BANK0               50     19      4E       6       97.5%
BITSFR5              0      0       0       6        0.0%
SFR5                 0      0       0       6        0.0%
BITBANK1            50      0       0       7        0.0%
BITSFR6              0      0       0       7        0.0%
SFR6                 0      0       0       7        0.0%
BANK1               50      0       0       8        0.0%
BITSFR7              0      0       0       8        0.0%
SFR7                 0      0       0       8        0.0%
BITBANK2            50      0       0       9        0.0%
BITSFR8              0      0       0       9        0.0%
SFR8                 0      0       0       9        0.0%
BANK2               50      0       0      10        0.0%
BITSFR9              0      0       0      10        0.0%
SFR9                 0      0       0      10        0.0%
BITBANK3            50      0       0      11        0.0%
BITSFR10             0      0       0      11        0.0%
SFR10                0      0       0      11        0.0%
BANK3               50      0       0      12        0.0%
BITSFR11             0      0       0      12        0.0%
SFR11                0      0       0      12        0.0%
BITBANK4            50      0       0      13        0.0%
BITSFR12             0      0       0      13        0.0%
SFR12                0      0       0      13        0.0%
BANK4               50      0       0      14        0.0%
BITSFR13             0      0       0      14        0.0%
SFR13                0      0       0      14        0.0%
BITBANK5            50      0       0      15        0.0%
BITSFR14             0      0       0      15        0.0%
SFR14                0      0       0      15        0.0%
BANK5               50      0       0      16        0.0%
BITSFR15             0      0       0      16        0.0%
SFR15                0      0       0      16        0.0%
BITBANK6            10      0       0      17        0.0%
BITSFR16             0      0       0      17        0.0%
SFR16                0      0       0      17        0.0%
BANK6               10      0       0      18        0.0%
BITSFR17             0      0       0      18        0.0%
SFR17                0      0       0      18        0.0%
BITSFR18             0      0       0      19        0.0%
SFR18                0      0       0      19        0.0%
DATA                 0      0      5B      19        0.0%
BITSFR19             0      0       0      20        0.0%
SFR19                0      0       0      20        0.0%
BITSFR20             0      0       0      21        0.0%
SFR20                0      0       0      21        0.0%
BITSFR21             0      0       0      22        0.0%
SFR21                0      0       0      22        0.0%
BITSFR22             0      0       0      23        0.0%
SFR22                0      0       0      23        0.0%
BITSFR23             0      0       0      24        0.0%
SFR23                0      0       0      24        0.0%
BITSFR24             0      0       0      25        0.0%
SFR24                0      0       0      25        0.0%
BITSFR25             0      0       0      26        0.0%
SFR25                0      0       0      26        0.0%
BITSFR26             0      0       0      27        0.0%
SFR26                0      0       0      27        0.0%
BITSFR27             0      0       0      28        0.0%
SFR27                0      0       0      28        0.0%
BITSFR28             0      0       0      29        0.0%
SFR28                0      0       0      29        0.0%
BITSFR29             0      0       0      30        0.0%
SFR29                0      0       0      30        0.0%
BITSFR30             0      0       0      31        0.0%
SFR30                0      0       0      31        0.0%
BITSFR31             0      0       0      32        0.0%
SFR31                0      0       0      32        0.0%
BITSFR32             0      0       0      33        0.0%
SFR32                0      0       0      33        0.0%
BITSFR33             0      0       0      34        0.0%
SFR33                0      0       0      34        0.0%
BITSFR34             0      0       0      35        0.0%
SFR34                0      0       0      35        0.0%
BITSFR35             0      0       0      36        0.0%
SFR35                0      0       0      36        0.0%
BITSFR36             0      0       0      37        0.0%
SFR36                0      0       0      37        0.0%
BITSFR37             0      0       0      38        0.0%
SFR37                0      0       0      38        0.0%
BITSFR38             0      0       0      39        0.0%
SFR38                0      0       0      39        0.0%
BITSFR39             0      0       0      40        0.0%
SFR39                0      0       0      40        0.0%
BITSFR40             0      0       0      41        0.0%
SFR40                0      0       0      41        0.0%
BITSFR41             0      0       0      42        0.0%
SFR41                0      0       0      42        0.0%
BITSFR42             0      0       0      43        0.0%
SFR42                0      0       0      43        0.0%
BITSFR43             0      0       0      44        0.0%
SFR43                0      0       0      44        0.0%
BITSFR44             0      0       0      45        0.0%
SFR44                0      0       0      45        0.0%
BITSFR45             0      0       0      46        0.0%
SFR45                0      0       0      46        0.0%
BITSFR46             0      0       0      47        0.0%
SFR46                0      0       0      47        0.0%
BITSFR47             0      0       0      48        0.0%
SFR47                0      0       0      48        0.0%
BITSFR48             0      0       0      49        0.0%
SFR48                0      0       0      49        0.0%
BITSFR49             0      0       0      50        0.0%
SFR49                0      0       0      50        0.0%
BITSFR50             0      0       0      51        0.0%
SFR50                0      0       0      51        0.0%
BITSFR51             0      0       0      52        0.0%
SFR51                0      0       0      52        0.0%
BITSFR52             0      0       0      53        0.0%
SFR52                0      0       0      53        0.0%
BITSFR53             0      0       0      54        0.0%
SFR53                0      0       0      54        0.0%
BITSFR54             0      0       0      55        0.0%
SFR54                0      0       0      55        0.0%
BITSFR55             0      0       0      56        0.0%
SFR55                0      0       0      56        0.0%
BITSFR56             0      0       0      57        0.0%
SFR56                0      0       0      57        0.0%
BITSFR57             0      0       0      58        0.0%
SFR57                0      0       0      58        0.0%
BITSFR58             0      0       0      59        0.0%
SFR58                0      0       0      59        0.0%
BITSFR59             0      0       0      60        0.0%
SFR59                0      0       0      60        0.0%
BITSFR60             0      0       0      61        0.0%
SFR60                0      0       0      61        0.0%
BITSFR61             0      0       0      62        0.0%
SFR61                0      0       0      62        0.0%
BITSFR62             0      0       0      63        0.0%
SFR62                0      0       0      63        0.0%
BITSFR63             0      0       0      64        0.0%
SFR63                0      0       0      64        0.0%


Microchip Technology PIC Macro Assembler V2.32 build 20210201212658 
Symbol Table                                                                                   Thu Sep 23 17:03:54 2021

                                _i 0040                                l233 05A4  
                              l226 0593                                l252 077F  
                              l260 0773                                l246 065B  
                              l239 05F3                                l183 04EF  
                              l417 06B6                                l257 075D  
                              l185 051A                                l362 0717  
                              l290 0480                                l282 045C  
                              l266 03B1                                l291 0481  
                              l268 03B9                                l188 0572  
                              l293 0495                                l277 0442  
                              l286 0476                                l287 0475  
                              l395 06EC                                _GIE 005F  
                              _PR2 028D                                u900 0717  
                              u901 0716                                u770 077F  
                              u771 077E                                u780 0742  
                              u781 0741                                _isr 0004  
                              wreg 0009                               l2001 0574  
                             l2003 057B                               l1301 0745  
                             l1303 0751                               l1305 0756  
                             l2025 064A                               l1421 0581  
                             l1431 059D                               l1423 0586  
                             l1353 0706                               l1345 06EE  
                             l1441 05D8                               l1433 05A8  
                             l1425 058A                               l1355 070D  
                             l1347 0705                               l1451 05FE  
                             l1443 05DD                               l1435 05AF  
                             l1427 0590                               l1357 0711  
                             l1293 0774                               l1461 0635  
                             l1453 0601                               l1445 05E6  
                             l1437 05B2                               l1429 0597  
                             l1295 0779                               l1471 0657  
                             l1463 063B                               l1455 0604  
                             l1447 05EC                               l1439 05B5  
                             l1801 06A0                               l1297 073C  
                             l1473 0658                               l1457 0627  
                             l1449 05F7                               l1803 06A1  
                             l1811 03A9                               l1299 0742  
                             l1475 0659                               l1459 062C  
                             l1467 0642                               l1491 076E  
                             l1483 075E                               l1805 06A8  
                             l1821 03C6                               l1813 03AF  
                             l1477 065A                               l1469 0655  
                             l1493 076F                               l1485 0761  
                             l1901 04AE                               l1807 06AE  
                             l1831 0424                               l1823 03CB  
                             l1815 03B3                               l1495 0770  
                             l1487 076B                               l1911 04B3  
                             l1903 04AF                               l1841 0440  
                             l1833 0429                               l1825 0411  
                             l1497 0771                               l1489 076D  
                             l1921 04B8                               l1913 04B4  
                             l1905 04B0                               l1851 045A  
                             l1835 0432                               l1843 0444  
                             l1827 041A                               l1819 03BE  
                             l1931 04CA                               l1923 04C0  
                             l1915 04B5                               l1907 04B1  
                             l1781 06D4                               l1773 06B7  
                             l1861 0473                               l1845 044D  
                             l1853 045E                               l1837 0435  
                             l1829 041E                               l1941 04D7  
                             l1933 04CE                               l1925 04C5  
                             l1917 04B6                               l1909 04B2  
                             l1791 0670                               l1783 06E3  
                             l1775 06C0                               l1871 048E  
                             l1855 0467                               l1863 0479  
                             l1847 044F                               l1839 043B  
                             l1951 04E1                               l1943 04D9  
                             l1935 04CF                               l1927 04C6  
                             l1919 04B7                               l1793 067B  
                             l1777 06C4                               l1865 047E  
                             l1857 0468                               l1849 0455  
                             l1961 04FE                               l1953 04E6  
                             l1945 04DD                               l1937 04D3  
                             l1929 04C8                               l1881 04A1  
                             l1873 0496                               l1795 067F  
                             l1787 065C                               l1779 06CD  
                             l1859 046E                               l1867 0484  
                             l1971 0512                               l1963 0503  
                             l1955 04E7                               l1947 04DE  
                             l1939 04D4                               l1891 04A9  
                             l1883 04A3                               l1875 049C  
                             l1797 0686                               l1789 066D  
                             l1869 048A                               l1981 053F  
                             l1973 0518                               l1965 0505  
                             l1957 04ED                               l1949 04DF  
                             l1893 04AA                               l1885 04A4  
                             l1877 049D                               l1799 0698  
                             l1991 055C                               l1983 0548  
                             l1975 0526                               l1967 0510  
                             l1959 04F5                               l1895 04AB  
                             l1887 04A5                               l1879 049F  
                             l1993 055F                               l1985 0551  
                             l1977 052D                               l1969 0511  
                             l1897 04AC                               l1889 04A7  
                             l1995 0566                               l1987 0553  
                             l1979 0536                               l1899 04AD  
                             l1997 0568                               l1989 0556  
                             l1999 056E                               ?_isr 0070  
                             u1100 05A3                               u1101 05A2  
                             u1110 05E6                               u1111 05E5  
                             u1120 05EC                               u1121 05EB  
                             u1130 05F2                               u1131 05F1  
                             u1140 0635                               u1141 0634  
                             u1150 063B                               u1151 063A  
                             u1160 0641                               u1080 0590  
                             u1161 0640                               u1081 058F  
                             u1090 059D                               u1091 059C  
                             u1610 067F                               u1611 067E  
                             u1700 041A                               u1605 0671  
                             u1701 0419                               u1630 0698  
                             u1550 06C4                               u1710 0424  
                             u1631 0697                               u1551 06C3  
                             u1711 0423                               u1800 0473  
                             u1720 0432                               u1625 0680  
                             u1801 0472                               u1721 0431  
                             u1650 06AE                               u1810 047E  
                             u1730 043B                               u1651 06AD  
                             u1635 0694                               u1811 047D  
                             u1731 043A                               u1580 06E3  
                             u1820 048A                               u1740 0440  
                             u1660 03AF                               u1645 06A2  
                             u1581 06E2                               u1565 06CE  
                             u1821 0489                               u1741 043F  
                             u1661 03AE                               u1590 066D  
                             u1750 044D                               u1670 03B9  
                             u1830 04ED                               u1591 066C  
                             u1575 06D5                               u1751 044C  
                             u1671 03B8                               u1831 04EC  
                             u1760 0455                               u1680 03BE  
                             u1840 0503                               u1761 0454  
                             u1681 03BD                               u1841 0502  
                             u1770 045A                               u1690 03CB  
                             u1850 0518                               u1771 0459  
                             u1691 03CA                               u1851 0517  
                             u1780 0467                               u1860 055C  
                             u1781 0466                               u1861 055B  
                             u1790 046E                               u1870 0566  
                             u1791 046D                               u1871 0565  
                             u1880 056E                               u1881 056D  
                             u1890 057B                               u1891 057A  
                             _PEIE 005E                               _INTE 38B0  
                             _gate 003C                               _main 0496  
                             fsr0h 0005                               fsr1h 0007  
                             indf0 0000                               fsr0l 0004  
                             indf1 0001                               fsr1l 0006  
                             btemp 007E                               start 00E2  
              ButtonDebounceInit@i 0073                   playNote@duration 0075  
                            ??_isr 0070                              _ADACT 009F  
                            ?_main 0068                              _ADRES 009B  
                  __end_of___lldiv 06B7                              _LATA1 00C1  
                            _LATA2 00C2                              _LATC0 00D0  
                            _LATC1 00D1                              _LATC2 00D2  
                            _LATC3 00D3                              _LATC4 00D4  
                            _LATC5 00D5                              _IOCIE 38B4  
                            i1l220 00DE                              i1l221 00E0  
                            i1l217 00DC                              _PORTA 000C  
                            _WPUA0 F9C8                              _WPUA3 F9CB  
              ___lmul@multiplicand 0075                              _sheRa 02B9  
                            _notes 0718                     __pbitbssCOMMON 03E0  
                            status 0003                              wtemp0 007E  
                  __initialization 00E4                       __end_of_main 0581  
                  _chargeIndicator 03A9                             ??_main 007B  
                           _ANSELC 1F4E                             _IOCAF0 F9F8  
                           _IOCAF3 F9FB                             _IOCAN0 F9F0  
                           _IOCAN3 F9F3                             _IOCAP0 F9E8  
                           _IOCAP3 F9EB                             i1l1701 00A1  
                           i1l1711 00B8                             i1l1703 00A6  
                           i1l1631 0006                             i1l1721 00CB  
                           i1l1713 00B9                             i1l1705 00AB  
                           i1l1641 001C                             i1l1633 000B  
                           i1l1723 00D3                             i1l1707 00AE  
                           i1l1715 00BD                             i1l1651 0030  
                           i1l1643 0020                             i1l1635 0010  
                           i1l1717 00C3                             i1l1709 00B4  
                           i1l1661 0047                             i1l1637 0016  
                           i1l1645 0024                             i1l1653 0034  
                           i1l1719 00C9                             i1l1671 005B  
                           i1l1663 0049                             i1l1655 0039  
                           i1l1647 0028                             i1l1639 001A  
                           u130_20 0039                             i1l1681 0073  
                           i1l1673 005F                             i1l1665 004D  
                           i1l1657 003F                             u130_21 0038  
                           i1l1649 002C                             i1l1691 008A  
                           i1l1683 0079                             i1l1659 0043  
                           i1l1667 0053                             i1l1675 0061  
                           i1l1685 007D                             i1l1677 0066  
                           i1l1693 008C                             i1l1669 0057  
                           i1l1695 0090                             i1l1687 0083  
                           i1l1679 006D                             u131_20 003F  
                           i1l1697 0097                             i1l1689 0088  
                           u131_21 003E                             i1l1699 009C  
                           u140_20 0079                             u132_20 0043  
                           u124_20 000B                             u140_21 0078  
                           u132_21 0042                             u124_21 000A  
                           u141_20 0083                             u133_20 0047  
                           u125_20 0010                             u141_21 0082  
                           u133_21 0046                             u125_21 000F  
                           u142_20 0090                             u134_20 0057  
                           u126_20 0016                             u142_21 008F  
                           u134_21 0056                             u126_21 0015  
                           u150_24 00D3                             u151_20 00D9  
                           u143_20 0097                             u135_20 005B  
                           u127_20 001A                             u151_21 00D6  
                           u143_21 0096                             u135_21 005A  
                           u127_21 0019                             u144_20 009C  
                           u136_20 005F                             u128_20 0028  
                           u144_21 009B                             u136_21 005E  
                           u128_21 0027                             u152_24 00DB  
                           u145_20 00AB                             u137_20 0066  
                           u129_20 002C                             u145_21 00AA  
                           u137_21 0065                             u129_21 002B  
                           u146_20 00B4                             u138_20 006D  
                           u146_21 00B3                             u138_21 006C  
                           u147_20 00C3                             u139_20 0073  
                           u147_21 00C2                             u139_21 0072  
                           u148_20 00C9                             u148_21 00C8  
                           u149_20 00D1                             u149_21 00CE  
                           _NVMADR 081A                             _TMR0IE 38B5  
                           _TRISA0 0090                             _TRISA1 0091  
                           _TRISA2 0092                             _TRISA3 0093  
                           _TRISA4 0094                             _TRISC0 00A0  
                           _TRISA5 0095                             _TRISC1 00A1  
                           _TRISC2 00A2                             _TRISC3 00A3  
                           _TRISC4 00A4                             _TRISC5 00A5  
                 __end_of_doTheArc 065C                             _aPorts 0047  
                           ___lmul 06B7                          ??___lldiv 0079  
                           _noGate 006C                   __end_of_playNote 075E  
          __end_of__initialization 00F5            __end_of_chargeIndicator 0496  
                   __pcstackCOMMON 0070                       __pidataBANK0 0786  
                    __end_of_sheRa 03A9                      __end_of_notes 073C  
            __end_of_blockingDelay 0780                         _abortAbort 003A  
                       __pbssBANK0 0020        __size_of_ButtonDebounceInit 002B  
                       __pmaintext 0496                         _goToLPmode 075E  
                          ?___lmul 0071                         __pintentry 0004  
                   ___lmul@product 0053                          ?_doTheArc 0070  
                     _clockDivider 0045                   ?_chargeIndicator 0070  
                        ?_playNote 0073                  __end_of_gargoyles 02B9  
                  __size_of___lmul 0036                            ___lldiv 065C  
                          __ptext1 075E                            __ptext2 0581  
                          __ptext3 073C                            __ptext4 03A9  
                          __ptext5 0774                            __ptext6 06B7  
                          __ptext7 065C                            __ptext8 06ED  
                          _lidOpen 002C                          _T2CONbits 028E  
                     __size_of_isr 00DE                         ??_doTheArc 0077  
                        _T2HLTbits 028F               _chargeIndicator$1118 0064  
                     _genericDelay 0034                            clrloop0 0781  
             end_of_initialization 00F5                      _calibrationMV 0020  
                       ??_playNote 0077                    ___lldiv@divisor 0057  
                  ___lldiv@counter 0063                        ?_goToLPmode 0070  
                        _OSCENbits 0891                         _showCharge 0030  
                        _PORTAbits 000C  ButtonDebounceInit@pulledUpButtons 0071  
                       _postscaler 0038                     __end_of___lmul 06ED  
              start_initialization 00E4                        __end_of_isr 00E2  
              __size_of_goToLPmode 0016                     _buttonDebounce 0044  
               blockingDelay@mSecs 0071             ButtonDebounceInit@port 0074  
                         ??___lmul 0079                        __pdataBANK0 006C  
                        ___latbits 0001                      __pcstackBANK0 0053  
                      _chargeCycle 0042                  __size_of_doTheArc 00DB  
       __end_of_ButtonDebounceInit 0718                          _battVolts 0026  
                        _debugging 0046             __size_of_blockingDelay 000C  
                __size_of_playNote 0022                           ?___lldiv 0057  
                        _gargoyles 00F9                       playNote@note 0073  
                         _T2CLKCON 0290                          _playIndex 0036  
                        clear_ram0 0780                           _PIR0bits 070C  
                         _PIR1bits 070D                       ??_goToLPmode 0077  
         __size_of_chargeIndicator 00ED                          _poweredOn 0032  
                       _ADCON0bits 009D                         _ADCON1bits 009E  
                    _blockingDelay 0774                  ___lmul@multiplier 0071  
               __end_of_goToLPmode 0774                       _lowPowerMode 002E  
                      _gotTheTouch 002A                   __size_of___lldiv 005B  
                         _adcVolts 0024                         _ANSELAbits 1F38  
                         _doTheArc 0581                     ?_blockingDelay 0071  
                       _T0CON0bits 059E                         _T0CON1bits 059F  
                         _charging 0028                           _forceArc 003E  
                    __size_of_main 00EB                           _pinState 03E0  
                         _playNote 073C                           _runIndex 0043  
                         int$flags 007E                           main@argc 0068  
                         main@argv 006A                  ??_chargeIndicator 007A  
                      _NVMCON1bits 081E                         _FVRCONbits 090C  
                         intlevel1 0000                   ___lldiv@dividend 005B  
                       _OSCFRQbits 0893                 _ButtonDebounceInit 06ED  
                    __pstringtext1 00F9                      __pstringtext2 02B9  
                    __pstringtext3 0718                    ??_blockingDelay 0073  
                 ___lldiv@quotient 005F                ?_ButtonDebounceInit 0071  
             ??_ButtonDebounceInit 0072  
