

Microchip MPLAB XC8 Assembler V2.32 build 20210201212658 
                                                                                               Fri Sep 24 09:42:05 2021

Microchip MPLAB XC8 C Compiler v2.32 (Free license) build 20210201212658 Og1 
     1                           	processor	16F15224
     2                           	pagewidth 120
     3                           	opt	flic
     4                           	psect	idataBANK0,global,class=CODE,delta=2,noexec
     5                           	psect	stringtext1,global,class=STRCODE,delta=2,noexec
     6                           	psect	stringtext2,global,class=STRCODE,delta=2,noexec
     7                           	psect	stringtext3,global,class=STRCODE,delta=2,noexec
     8                           	psect	cinit,global,class=CODE,merge=1,delta=2
     9                           	psect	bitbssCOMMON,global,bit,class=COMMON,space=1,delta=1,noexec
    10                           	psect	bssCOMMON,global,class=COMMON,space=1,delta=1,noexec
    11                           	psect	bssBANK0,global,class=BANK0,space=1,delta=1,noexec
    12                           	psect	dataBANK0,global,class=BANK0,space=1,delta=1,noexec
    13                           	psect	clrtext,global,class=CODE,delta=2
    14                           	psect	cstackCOMMON,global,class=COMMON,space=1,delta=1,noexec
    15                           	psect	cstackBANK0,global,class=BANK0,space=1,delta=1,noexec
    16                           	psect	maintext,global,class=CODE,merge=1,split=1,delta=2
    17                           	psect	text1,local,class=CODE,merge=1,delta=2
    18                           	psect	text2,local,class=CODE,merge=1,delta=2
    19                           	psect	text3,local,class=CODE,merge=1,delta=2
    20                           	psect	text4,local,class=CODE,merge=1,delta=2
    21                           	psect	text5,local,class=CODE,merge=1,delta=2
    22                           	psect	text6,local,class=CODE,merge=1,delta=2,group=2
    23                           	psect	text7,local,class=CODE,merge=1,delta=2,group=1
    24                           	psect	intentry,global,class=CODE,delta=2
    25                           	psect	config,global,abs,ovrld,class=CONFIG,space=4,delta=2,noexec
    26                           	dabs	1,0x7E,2
    27  0000                     
    28                           ; Version 2.35
    29                           ; Generated 01/06/2021 GMT
    30                           ; 
    31                           ; Copyright © 2021, Microchip Technology Inc. and its subsidiaries ("Microchip")
    32                           ; All rights reserved.
    33                           ; 
    34                           ; This software is developed by Microchip Technology Inc. and its subsidiaries ("Microch
      +                          ip").
    35                           ; 
    36                           ; Redistribution and use in source and binary forms, with or without modification, are
    37                           ; permitted provided that the following conditions are met:
    38                           ; 
    39                           ;     1. Redistributions of source code must retain the above copyright notice, this lis
      +                          t of
    40                           ;        conditions and the following disclaimer.
    41                           ; 
    42                           ;     2. Redistributions in binary form must reproduce the above copyright notice, this 
      +                          list
    43                           ;        of conditions and the following disclaimer in the documentation and/or other
    44                           ;        materials provided with the distribution. Publication is not required when
    45                           ;        this file is used in an embedded application.
    46                           ; 
    47                           ;     3. Microchip's name may not be used to endorse or promote products derived from th
      +                          is
    48                           ;        software without specific prior written permission.
    49                           ; 
    50                           ; THIS SOFTWARE IS PROVIDED BY MICROCHIP "AS IS" AND ANY EXPRESS OR IMPLIED WARRANTIES,
    51                           ; INCLUDING, BUT NOT LIMITED TO, THE IMPLIED WARRANTIES OF MERCHANTABILITY AND FITNESS F
      +                          OR
    52                           ; PURPOSE ARE DISCLAIMED.  IN NO EVENT SHALL MICROCHIP BE LIABLE FOR ANY DIRECT, INDIREC
      +                          T,
    53                           ; INCIDENTAL, SPECIAL, EXEMPLARY, OR CONSEQUENTIAL DAMAGES (INCLUDING BUT NOT LIMITED TO
    54                           ; PROCUREMENT OF SUBSTITUTE GOODS OR SERVICES; LOSS OF USE, DATA OR PROFITS; OR BUSINESS
    55                           ; INTERRUPTION) HOWSOEVER CAUSED AND ON ANY THEORY OF LIABILITY, WHETHER IN CONTRACT, ST
      +                          RICT
    56                           ; LIABILITY, OR TORT (INCLUDING NEGLIGENCE OR OTHERWISE) ARISING IN ANY WAY OUT OF THE U
      +                          SE OF
    57                           ; THIS SOFTWARE, EVEN IF ADVISED OF THE POSSIBILITY OF SUCH DAMAGE.
    58                           ; 
    59                           ; 
    60                           ; Code-generator required, PIC16F15224 Definitions
    61                           ; 
    62                           ; SFR Addresses
    63  0000                     	;# 
    64  0001                     	;# 
    65  0002                     	;# 
    66  0003                     	;# 
    67  0004                     	;# 
    68  0005                     	;# 
    69  0006                     	;# 
    70  0007                     	;# 
    71  0008                     	;# 
    72  0009                     	;# 
    73  000A                     	;# 
    74  000B                     	;# 
    75  000C                     	;# 
    76  000E                     	;# 
    77  0012                     	;# 
    78  0014                     	;# 
    79  0018                     	;# 
    80  001A                     	;# 
    81  009A                     	;# 
    82  009B                     	;# 
    83  009B                     	;# 
    84  009C                     	;# 
    85  009D                     	;# 
    86  009E                     	;# 
    87  009F                     	;# 
    88  010E                     	;# 
    89  010F                     	;# 
    90  0119                     	;# 
    91  011A                     	;# 
    92  011B                     	;# 
    93  011B                     	;# 
    94  011C                     	;# 
    95  011D                     	;# 
    96  011E                     	;# 
    97  011F                     	;# 
    98  018C                     	;# 
    99  018D                     	;# 
   100  018E                     	;# 
   101  018F                     	;# 
   102  0190                     	;# 
   103  0191                     	;# 
   104  0192                     	;# 
   105  020C                     	;# 
   106  020D                     	;# 
   107  020E                     	;# 
   108  020E                     	;# 
   109  020F                     	;# 
   110  020F                     	;# 
   111  0210                     	;# 
   112  0210                     	;# 
   113  0211                     	;# 
   114  0211                     	;# 
   115  028C                     	;# 
   116  028C                     	;# 
   117  028D                     	;# 
   118  028D                     	;# 
   119  028E                     	;# 
   120  028F                     	;# 
   121  0290                     	;# 
   122  0291                     	;# 
   123  030C                     	;# 
   124  030C                     	;# 
   125  030D                     	;# 
   126  030E                     	;# 
   127  030F                     	;# 
   128  0310                     	;# 
   129  0310                     	;# 
   130  0311                     	;# 
   131  0312                     	;# 
   132  0313                     	;# 
   133  0314                     	;# 
   134  0314                     	;# 
   135  0315                     	;# 
   136  0316                     	;# 
   137  0318                     	;# 
   138  0318                     	;# 
   139  0319                     	;# 
   140  031A                     	;# 
   141  059C                     	;# 
   142  059C                     	;# 
   143  059D                     	;# 
   144  059D                     	;# 
   145  059E                     	;# 
   146  059F                     	;# 
   147  070C                     	;# 
   148  070D                     	;# 
   149  070E                     	;# 
   150  0716                     	;# 
   151  0717                     	;# 
   152  0718                     	;# 
   153  080C                     	;# 
   154  0811                     	;# 
   155  0813                     	;# 
   156  0814                     	;# 
   157  081A                     	;# 
   158  081A                     	;# 
   159  081B                     	;# 
   160  081C                     	;# 
   161  081C                     	;# 
   162  081D                     	;# 
   163  081E                     	;# 
   164  081F                     	;# 
   165  088E                     	;# 
   166  0890                     	;# 
   167  0891                     	;# 
   168  0892                     	;# 
   169  0893                     	;# 
   170  090C                     	;# 
   171  1E8F                     	;# 
   172  1E90                     	;# 
   173  1E91                     	;# 
   174  1E92                     	;# 
   175  1E93                     	;# 
   176  1E9C                     	;# 
   177  1EA1                     	;# 
   178  1EA2                     	;# 
   179  1EC3                     	;# 
   180  1EC5                     	;# 
   181  1EC6                     	;# 
   182  1EC7                     	;# 
   183  1ECB                     	;# 
   184  1ECB                     	;# 
   185  1ECB                     	;# 
   186  1ECC                     	;# 
   187  1ECC                     	;# 
   188  1ECC                     	;# 
   189  1F10                     	;# 
   190  1F11                     	;# 
   191  1F12                     	;# 
   192  1F14                     	;# 
   193  1F15                     	;# 
   194  1F20                     	;# 
   195  1F21                     	;# 
   196  1F22                     	;# 
   197  1F23                     	;# 
   198  1F24                     	;# 
   199  1F25                     	;# 
   200  1F38                     	;# 
   201  1F39                     	;# 
   202  1F3A                     	;# 
   203  1F3B                     	;# 
   204  1F3C                     	;# 
   205  1F3D                     	;# 
   206  1F3E                     	;# 
   207  1F3F                     	;# 
   208  1F4E                     	;# 
   209  1F4F                     	;# 
   210  1F50                     	;# 
   211  1F51                     	;# 
   212  1F52                     	;# 
   213  1F53                     	;# 
   214  1F54                     	;# 
   215  1F55                     	;# 
   216  1FE4                     	;# 
   217  1FE5                     	;# 
   218  1FE6                     	;# 
   219  1FE7                     	;# 
   220  1FE8                     	;# 
   221  1FE8                     	;# 
   222  1FE9                     	;# 
   223  1FEA                     	;# 
   224  1FEB                     	;# 
   225  1FED                     	;# 
   226  1FEE                     	;# 
   227  1FEF                     	;# 
   228                           
   229                           	psect	idataBANK0
   230  07EA                     __pidataBANK0:
   231                           
   232                           ;initializer for _noGate
   233  07EA  3401               	retlw	1
   234  07EB  3400               	retlw	0
   235                           
   236                           	psect	stringtext1
   237  0135                     __pstringtext1:
   238  0135                     _gargoyles:
   239  0135  341E               	retlw	30
   240  0136  3400               	retlw	0
   241  0137  343E               	retlw	62
   242  0138  3406               	retlw	6
   243  0139  341C               	retlw	28
   244  013A  3400               	retlw	0
   245  013B  3466               	retlw	102
   246  013C  3401               	retlw	1
   247  013D  3400               	retlw	0
   248  013E  3400               	retlw	0
   249  013F  3428               	retlw	40
   250  0140  3400               	retlw	0
   251  0141  341A               	retlw	26
   252  0142  3400               	retlw	0
   253  0143  3466               	retlw	102
   254  0144  3401               	retlw	1
   255  0145  3400               	retlw	0
   256  0146  3400               	retlw	0
   257  0147  3428               	retlw	40
   258  0148  3400               	retlw	0
   259  0149  3419               	retlw	25
   260  014A  3400               	retlw	0
   261  014B  3466               	retlw	102
   262  014C  3401               	retlw	1
   263  014D  3400               	retlw	0
   264  014E  3400               	retlw	0
   265  014F  3428               	retlw	40
   266  0150  3400               	retlw	0
   267  0151  3417               	retlw	23
   268  0152  3400               	retlw	0
   269  0153  3466               	retlw	102
   270  0154  3401               	retlw	1
   271  0155  3400               	retlw	0
   272  0156  3400               	retlw	0
   273  0157  3428               	retlw	40
   274  0158  3400               	retlw	0
   275  0159  341F               	retlw	31
   276  015A  3400               	retlw	0
   277  015B  34AE               	retlw	174
   278  015C  3404               	retlw	4
   279  015D  341E               	retlw	30
   280  015E  3400               	retlw	0
   281  015F  34C6               	retlw	198
   282  0160  3400               	retlw	0
   283  0161  341C               	retlw	28
   284  0162  3400               	retlw	0
   285  0163  34C6               	retlw	198
   286  0164  3400               	retlw	0
   287  0165  3419               	retlw	25
   288  0166  3400               	retlw	0
   289  0167  3469               	retlw	105
   290  0168  3405               	retlw	5
   291  0169  3400               	retlw	0
   292  016A  3400               	retlw	0
   293  016B  3450               	retlw	80
   294  016C  3400               	retlw	0
   295  016D  341E               	retlw	30
   296  016E  3400               	retlw	0
   297  016F  343E               	retlw	62
   298  0170  3406               	retlw	6
   299  0171  341A               	retlw	26
   300  0172  3400               	retlw	0
   301  0173  347A               	retlw	122
   302  0174  3401               	retlw	1
   303  0175  3400               	retlw	0
   304  0176  3400               	retlw	0
   305  0177  3414               	retlw	20
   306  0178  3400               	retlw	0
   307  0179  341C               	retlw	28
   308  017A  3400               	retlw	0
   309  017B  347A               	retlw	122
   310  017C  3401               	retlw	1
   311  017D  3400               	retlw	0
   312  017E  3400               	retlw	0
   313  017F  3414               	retlw	20
   314  0180  3400               	retlw	0
   315  0181  341E               	retlw	30
   316  0182  3400               	retlw	0
   317  0183  347A               	retlw	122
   318  0184  3401               	retlw	1
   319  0185  3400               	retlw	0
   320  0186  3400               	retlw	0
   321  0187  3414               	retlw	20
   322  0188  3400               	retlw	0
   323  0189  341C               	retlw	28
   324  018A  3400               	retlw	0
   325  018B  347A               	retlw	122
   326  018C  3401               	retlw	1
   327  018D  3400               	retlw	0
   328  018E  3400               	retlw	0
   329  018F  3414               	retlw	20
   330  0190  3400               	retlw	0
   331  0191  341C               	retlw	28
   332  0192  3400               	retlw	0
   333  0193  34F6               	retlw	246
   334  0194  3402               	retlw	2
   335  0195  3400               	retlw	0
   336  0196  3400               	retlw	0
   337  0197  3428               	retlw	40
   338  0198  3400               	retlw	0
   339  0199  341F               	retlw	31
   340  019A  3400               	retlw	0
   341  019B  34F6               	retlw	246
   342  019C  3402               	retlw	2
   343  019D  3400               	retlw	0
   344  019E  3400               	retlw	0
   345  019F  3428               	retlw	40
   346  01A0  3400               	retlw	0
   347  01A1  3422               	retlw	34
   348  01A2  3400               	retlw	0
   349  01A3  3469               	retlw	105
   350  01A4  3405               	retlw	5
   351  01A5  3400               	retlw	0
   352  01A6  3400               	retlw	0
   353  01A7  3450               	retlw	80
   354  01A8  3400               	retlw	0
   355  01A9  341A               	retlw	26
   356  01AA  3400               	retlw	0
   357  01AB  340A               	retlw	10
   358  01AC  3403               	retlw	3
   359  01AD  3400               	retlw	0
   360  01AE  3400               	retlw	0
   361  01AF  3414               	retlw	20
   362  01B0  3400               	retlw	0
   363  01B1  3419               	retlw	25
   364  01B2  3400               	retlw	0
   365  01B3  347A               	retlw	122
   366  01B4  3401               	retlw	1
   367  01B5  3400               	retlw	0
   368  01B6  3400               	retlw	0
   369  01B7  3414               	retlw	20
   370  01B8  3400               	retlw	0
   371  01B9  3417               	retlw	23
   372  01BA  3400               	retlw	0
   373  01BB  3466               	retlw	102
   374  01BC  3401               	retlw	1
   375  01BD  3400               	retlw	0
   376  01BE  3400               	retlw	0
   377  01BF  3428               	retlw	40
   378  01C0  3400               	retlw	0
   379  01C1  3419               	retlw	25
   380  01C2  3400               	retlw	0
   381  01C3  341E               	retlw	30
   382  01C4  3403               	retlw	3
   383  01C5  341C               	retlw	28
   384  01C6  3400               	retlw	0
   385  01C7  34F6               	retlw	246
   386  01C8  3402               	retlw	2
   387  01C9  3400               	retlw	0
   388  01CA  3400               	retlw	0
   389  01CB  3428               	retlw	40
   390  01CC  3400               	retlw	0
   391  01CD  341C               	retlw	28
   392  01CE  3400               	retlw	0
   393  01CF  34F6               	retlw	246
   394  01D0  3402               	retlw	2
   395  01D1  3400               	retlw	0
   396  01D2  3400               	retlw	0
   397  01D3  3428               	retlw	40
   398  01D4  3400               	retlw	0
   399  01D5  341A               	retlw	26
   400  01D6  3400               	retlw	0
   401  01D7  3466               	retlw	102
   402  01D8  3401               	retlw	1
   403  01D9  3400               	retlw	0
   404  01DA  3400               	retlw	0
   405  01DB  3428               	retlw	40
   406  01DC  3400               	retlw	0
   407  01DD  3419               	retlw	25
   408  01DE  3400               	retlw	0
   409  01DF  3466               	retlw	102
   410  01E0  3401               	retlw	1
   411  01E1  3400               	retlw	0
   412  01E2  3400               	retlw	0
   413  01E3  3428               	retlw	40
   414  01E4  3400               	retlw	0
   415  01E5  341A               	retlw	26
   416  01E6  3400               	retlw	0
   417  01E7  341E               	retlw	30
   418  01E8  3403               	retlw	3
   419  01E9  341E               	retlw	30
   420  01EA  3400               	retlw	0
   421  01EB  34F6               	retlw	246
   422  01EC  3402               	retlw	2
   423  01ED  3400               	retlw	0
   424  01EE  3400               	retlw	0
   425  01EF  3428               	retlw	40
   426  01F0  3400               	retlw	0
   427  01F1  341E               	retlw	30
   428  01F2  3400               	retlw	0
   429  01F3  34F6               	retlw	246
   430  01F4  3402               	retlw	2
   431  01F5  3400               	retlw	0
   432  01F6  3400               	retlw	0
   433  01F7  3428               	retlw	40
   434  01F8  3400               	retlw	0
   435  01F9  341D               	retlw	29
   436  01FA  3400               	retlw	0
   437  01FB  3466               	retlw	102
   438  01FC  3401               	retlw	1
   439  01FD  3400               	retlw	0
   440  01FE  3400               	retlw	0
   441  01FF  3428               	retlw	40
   442  0200  3400               	retlw	0
   443  0201  341B               	retlw	27
   444  0202  3400               	retlw	0
   445  0203  3466               	retlw	102
   446  0204  3401               	retlw	1
   447  0205  3400               	retlw	0
   448  0206  3400               	retlw	0
   449  0207  3428               	retlw	40
   450  0208  3400               	retlw	0
   451  0209  341D               	retlw	29
   452  020A  3400               	retlw	0
   453  020B  341E               	retlw	30
   454  020C  3403               	retlw	3
   455  020D  3420               	retlw	32
   456  020E  3400               	retlw	0
   457  020F  34F6               	retlw	246
   458  0210  3402               	retlw	2
   459  0211  3400               	retlw	0
   460  0212  3400               	retlw	0
   461  0213  3428               	retlw	40
   462  0214  3400               	retlw	0
   463  0215  3420               	retlw	32
   464  0216  3400               	retlw	0
   465  0217  34F6               	retlw	246
   466  0218  3402               	retlw	2
   467  0219  3400               	retlw	0
   468  021A  3400               	retlw	0
   469  021B  3428               	retlw	40
   470  021C  3400               	retlw	0
   471  021D  341E               	retlw	30
   472  021E  3400               	retlw	0
   473  021F  3466               	retlw	102
   474  0220  3401               	retlw	1
   475  0221  3400               	retlw	0
   476  0222  3400               	retlw	0
   477  0223  3428               	retlw	40
   478  0224  3400               	retlw	0
   479  0225  341D               	retlw	29
   480  0226  3400               	retlw	0
   481  0227  3466               	retlw	102
   482  0228  3401               	retlw	1
   483  0229  3400               	retlw	0
   484  022A  3400               	retlw	0
   485  022B  3428               	retlw	40
   486  022C  3400               	retlw	0
   487  022D  3422               	retlw	34
   488  022E  3400               	retlw	0
   489  022F  34EE               	retlw	238
   490  0230  3405               	retlw	5
   491  0231  3400               	retlw	0
   492  0232  3400               	retlw	0
   493  0233  3450               	retlw	80
   494  0234  3400               	retlw	0
   495  0235  341E               	retlw	30
   496  0236  3400               	retlw	0
   497  0237  343E               	retlw	62
   498  0238  3406               	retlw	6
   499  0239  341C               	retlw	28
   500  023A  3400               	retlw	0
   501  023B  3466               	retlw	102
   502  023C  3401               	retlw	1
   503  023D  3400               	retlw	0
   504  023E  3400               	retlw	0
   505  023F  3428               	retlw	40
   506  0240  3400               	retlw	0
   507  0241  341A               	retlw	26
   508  0242  3400               	retlw	0
   509  0243  3466               	retlw	102
   510  0244  3401               	retlw	1
   511  0245  3400               	retlw	0
   512  0246  3400               	retlw	0
   513  0247  3428               	retlw	40
   514  0248  3400               	retlw	0
   515  0249  3419               	retlw	25
   516  024A  3400               	retlw	0
   517  024B  3466               	retlw	102
   518  024C  3401               	retlw	1
   519  024D  3400               	retlw	0
   520  024E  3400               	retlw	0
   521  024F  3428               	retlw	40
   522  0250  3400               	retlw	0
   523  0251  3417               	retlw	23
   524  0252  3400               	retlw	0
   525  0253  3466               	retlw	102
   526  0254  3401               	retlw	1
   527  0255  3400               	retlw	0
   528  0256  3400               	retlw	0
   529  0257  3428               	retlw	40
   530  0258  3400               	retlw	0
   531  0259  341F               	retlw	31
   532  025A  3400               	retlw	0
   533  025B  34AE               	retlw	174
   534  025C  3404               	retlw	4
   535  025D  341E               	retlw	30
   536  025E  3400               	retlw	0
   537  025F  34C6               	retlw	198
   538  0260  3400               	retlw	0
   539  0261  341C               	retlw	28
   540  0262  3400               	retlw	0
   541  0263  34C6               	retlw	198
   542  0264  3400               	retlw	0
   543  0265  3419               	retlw	25
   544  0266  3400               	retlw	0
   545  0267  3469               	retlw	105
   546  0268  3405               	retlw	5
   547  0269  3400               	retlw	0
   548  026A  3400               	retlw	0
   549  026B  3450               	retlw	80
   550  026C  3400               	retlw	0
   551  026D  341E               	retlw	30
   552  026E  3400               	retlw	0
   553  026F  343E               	retlw	62
   554  0270  3406               	retlw	6
   555  0271  341A               	retlw	26
   556  0272  3400               	retlw	0
   557  0273  347A               	retlw	122
   558  0274  3401               	retlw	1
   559  0275  3400               	retlw	0
   560  0276  3400               	retlw	0
   561  0277  3414               	retlw	20
   562  0278  3400               	retlw	0
   563  0279  341C               	retlw	28
   564  027A  3400               	retlw	0
   565  027B  347A               	retlw	122
   566  027C  3401               	retlw	1
   567  027D  3400               	retlw	0
   568  027E  3400               	retlw	0
   569  027F  3414               	retlw	20
   570  0280  3400               	retlw	0
   571  0281  341E               	retlw	30
   572  0282  3400               	retlw	0
   573  0283  347A               	retlw	122
   574  0284  3401               	retlw	1
   575  0285  3400               	retlw	0
   576  0286  3400               	retlw	0
   577  0287  3414               	retlw	20
   578  0288  3400               	retlw	0
   579  0289  341C               	retlw	28
   580  028A  3400               	retlw	0
   581  028B  347A               	retlw	122
   582  028C  3401               	retlw	1
   583  028D  3400               	retlw	0
   584  028E  3400               	retlw	0
   585  028F  3414               	retlw	20
   586  0290  3400               	retlw	0
   587  0291  341C               	retlw	28
   588  0292  3400               	retlw	0
   589  0293  34F6               	retlw	246
   590  0294  3402               	retlw	2
   591  0295  3400               	retlw	0
   592  0296  3400               	retlw	0
   593  0297  3428               	retlw	40
   594  0298  3400               	retlw	0
   595  0299  341F               	retlw	31
   596  029A  3400               	retlw	0
   597  029B  34F6               	retlw	246
   598  029C  3402               	retlw	2
   599  029D  3400               	retlw	0
   600  029E  3400               	retlw	0
   601  029F  3428               	retlw	40
   602  02A0  3400               	retlw	0
   603  02A1  3422               	retlw	34
   604  02A2  3400               	retlw	0
   605  02A3  34B9               	retlw	185
   606  02A4  3405               	retlw	5
   607  02A5  3400               	retlw	0
   608  02A6  3400               	retlw	0
   609  02A7  3428               	retlw	40
   610  02A8  3400               	retlw	0
   611  02A9  3423               	retlw	35
   612  02AA  3400               	retlw	0
   613  02AB  340A               	retlw	10
   614  02AC  3403               	retlw	3
   615  02AD  3400               	retlw	0
   616  02AE  3400               	retlw	0
   617  02AF  3414               	retlw	20
   618  02B0  3400               	retlw	0
   619  02B1  3423               	retlw	35
   620  02B2  3400               	retlw	0
   621  02B3  346F               	retlw	111
   622  02B4  3400               	retlw	0
   623  02B5  3400               	retlw	0
   624  02B6  3400               	retlw	0
   625  02B7  3414               	retlw	20
   626  02B8  3400               	retlw	0
   627  02B9  3423               	retlw	35
   628  02BA  3400               	retlw	0
   629  02BB  346F               	retlw	111
   630  02BC  3400               	retlw	0
   631  02BD  3400               	retlw	0
   632  02BE  3400               	retlw	0
   633  02BF  3414               	retlw	20
   634  02C0  3400               	retlw	0
   635  02C1  3423               	retlw	35
   636  02C2  3400               	retlw	0
   637  02C3  346F               	retlw	111
   638  02C4  3400               	retlw	0
   639  02C5  3400               	retlw	0
   640  02C6  3400               	retlw	0
   641  02C7  3414               	retlw	20
   642  02C8  3400               	retlw	0
   643  02C9  3423               	retlw	35
   644  02CA  3400               	retlw	0
   645  02CB  340A               	retlw	10
   646  02CC  3403               	retlw	3
   647  02CD  3400               	retlw	0
   648  02CE  3400               	retlw	0
   649  02CF  3414               	retlw	20
   650  02D0  3400               	retlw	0
   651  02D1  3423               	retlw	35
   652  02D2  3400               	retlw	0
   653  02D3  346F               	retlw	111
   654  02D4  3400               	retlw	0
   655  02D5  3400               	retlw	0
   656  02D6  3400               	retlw	0
   657  02D7  3414               	retlw	20
   658  02D8  3400               	retlw	0
   659  02D9  3423               	retlw	35
   660  02DA  3400               	retlw	0
   661  02DB  346F               	retlw	111
   662  02DC  3400               	retlw	0
   663  02DD  3400               	retlw	0
   664  02DE  3400               	retlw	0
   665  02DF  3414               	retlw	20
   666  02E0  3400               	retlw	0
   667  02E1  3423               	retlw	35
   668  02E2  3400               	retlw	0
   669  02E3  346F               	retlw	111
   670  02E4  3400               	retlw	0
   671  02E5  3400               	retlw	0
   672  02E6  3400               	retlw	0
   673  02E7  3414               	retlw	20
   674  02E8  3400               	retlw	0
   675  02E9  3423               	retlw	35
   676  02EA  3400               	retlw	0
   677  02EB  346F               	retlw	111
   678  02EC  3400               	retlw	0
   679  02ED  3400               	retlw	0
   680  02EE  3400               	retlw	0
   681  02EF  3414               	retlw	20
   682  02F0  3400               	retlw	0
   683  02F1  3423               	retlw	35
   684  02F2  3400               	retlw	0
   685  02F3  341E               	retlw	30
   686  02F4  3403               	retlw	3
   687  02F5                     __end_of_gargoyles:
   688                           
   689                           	psect	stringtext2
   690  04E0                     __pstringtext2:
   691  04E0                     _sheRa:
   692  04E0  340B               	retlw	11
   693  04E1  3400               	retlw	0
   694  04E2  34D8               	retlw	216
   695  04E3  3400               	retlw	0
   696  04E4  340D               	retlw	13
   697  04E5  3400               	retlw	0
   698  04E6  34D8               	retlw	216
   699  04E7  3400               	retlw	0
   700  04E8  340E               	retlw	14
   701  04E9  3400               	retlw	0
   702  04EA  349C               	retlw	156
   703  04EB  3401               	retlw	1
   704  04EC  3400               	retlw	0
   705  04ED  3400               	retlw	0
   706  04EE  3415               	retlw	21
   707  04EF  3400               	retlw	0
   708  04F0  3412               	retlw	18
   709  04F1  3400               	retlw	0
   710  04F2  34A7               	retlw	167
   711  04F3  3401               	retlw	1
   712  04F4  3400               	retlw	0
   713  04F5  3400               	retlw	0
   714  04F6  3415               	retlw	21
   715  04F7  3400               	retlw	0
   716  04F8  3413               	retlw	19
   717  04F9  3400               	retlw	0
   718  04FA  348B               	retlw	139
   719  04FB  3402               	retlw	2
   720  04FC  3412               	retlw	18
   721  04FD  3400               	retlw	0
   722  04FE  346B               	retlw	107
   723  04FF  3400               	retlw	0
   724  0500  3410               	retlw	16
   725  0501  3400               	retlw	0
   726  0502  346B               	retlw	107
   727  0503  3400               	retlw	0
   728  0504  3412               	retlw	18
   729  0505  3400               	retlw	0
   730  0506  3464               	retlw	100
   731  0507  3403               	retlw	3
   732  0508  3400               	retlw	0
   733  0509  3400               	retlw	0
   734  050A  34B1               	retlw	177
   735  050B  3401               	retlw	1
   736  050C  340B               	retlw	11
   737  050D  3400               	retlw	0
   738  050E  34D8               	retlw	216
   739  050F  3400               	retlw	0
   740  0510  340D               	retlw	13
   741  0511  3400               	retlw	0
   742  0512  34D8               	retlw	216
   743  0513  3400               	retlw	0
   744  0514  340E               	retlw	14
   745  0515  3400               	retlw	0
   746  0516  34B1               	retlw	177
   747  0517  3401               	retlw	1
   748  0518  3412               	retlw	18
   749  0519  3400               	retlw	0
   750  051A  34B1               	retlw	177
   751  051B  3401               	retlw	1
   752  051C  3417               	retlw	23
   753  051D  3400               	retlw	0
   754  051E  349C               	retlw	156
   755  051F  3401               	retlw	1
   756  0520  3400               	retlw	0
   757  0521  3400               	retlw	0
   758  0522  3415               	retlw	21
   759  0523  3400               	retlw	0
   760  0524  3415               	retlw	21
   761  0525  3400               	retlw	0
   762  0526  349C               	retlw	156
   763  0527  3401               	retlw	1
   764  0528  3400               	retlw	0
   765  0529  3400               	retlw	0
   766  052A  3415               	retlw	21
   767  052B  3400               	retlw	0
   768  052C  3412               	retlw	18
   769  052D  3400               	retlw	0
   770  052E  3464               	retlw	100
   771  052F  3403               	retlw	3
   772  0530  3400               	retlw	0
   773  0531  3400               	retlw	0
   774  0532  34B1               	retlw	177
   775  0533  3401               	retlw	1
   776  0534  340B               	retlw	11
   777  0535  3400               	retlw	0
   778  0536  34D8               	retlw	216
   779  0537  3400               	retlw	0
   780  0538  340D               	retlw	13
   781  0539  3400               	retlw	0
   782  053A  34D8               	retlw	216
   783  053B  3400               	retlw	0
   784  053C  340E               	retlw	14
   785  053D  3400               	retlw	0
   786  053E  34B1               	retlw	177
   787  053F  3401               	retlw	1
   788  0540  3412               	retlw	18
   789  0541  3400               	retlw	0
   790  0542  34B1               	retlw	177
   791  0543  3401               	retlw	1
   792  0544  3413               	retlw	19
   793  0545  3400               	retlw	0
   794  0546  348B               	retlw	139
   795  0547  3402               	retlw	2
   796  0548  3412               	retlw	18
   797  0549  3400               	retlw	0
   798  054A  346B               	retlw	107
   799  054B  3400               	retlw	0
   800  054C  3410               	retlw	16
   801  054D  3400               	retlw	0
   802  054E  346B               	retlw	107
   803  054F  3400               	retlw	0
   804  0550  3412               	retlw	18
   805  0551  3400               	retlw	0
   806  0552  3464               	retlw	100
   807  0553  3403               	retlw	3
   808  0554  3413               	retlw	19
   809  0555  3400               	retlw	0
   810  0556  342F               	retlw	47
   811  0557  3401               	retlw	1
   812  0558  3400               	retlw	0
   813  0559  3400               	retlw	0
   814  055A  3415               	retlw	21
   815  055B  3400               	retlw	0
   816  055C  3412               	retlw	18
   817  055D  3400               	retlw	0
   818  055E  342F               	retlw	47
   819  055F  3401               	retlw	1
   820  0560  3400               	retlw	0
   821  0561  3400               	retlw	0
   822  0562  3415               	retlw	21
   823  0563  3400               	retlw	0
   824  0564  3413               	retlw	19
   825  0565  3400               	retlw	0
   826  0566  34C2               	retlw	194
   827  0567  3400               	retlw	0
   828  0568  3400               	retlw	0
   829  0569  3400               	retlw	0
   830  056A  3415               	retlw	21
   831  056B  3400               	retlw	0
   832  056C  3415               	retlw	21
   833  056D  3400               	retlw	0
   834  056E  348B               	retlw	139
   835  056F  3402               	retlw	2
   836  0570  3412               	retlw	18
   837  0571  3400               	retlw	0
   838  0572  3462               	retlw	98
   839  0573  3400               	retlw	0
   840  0574  3410               	retlw	16
   841  0575  3400               	retlw	0
   842  0576  346B               	retlw	107
   843  0577  3400               	retlw	0
   844  0578  3412               	retlw	18
   845  0579  3400               	retlw	0
   846  057A  34CA               	retlw	202
   847  057B  3406               	retlw	6
   848  057C  3400               	retlw	0
   849  057D  3400               	retlw	0
   850  057E  34B1               	retlw	177
   851  057F  3401               	retlw	1
   852  0580  3414               	retlw	20
   853  0581  3400               	retlw	0
   854  0582  34D8               	retlw	216
   855  0583  3400               	retlw	0
   856  0584  3416               	retlw	22
   857  0585  3400               	retlw	0
   858  0586  34D8               	retlw	216
   859  0587  3400               	retlw	0
   860  0588  3417               	retlw	23
   861  0589  3400               	retlw	0
   862  058A  34B1               	retlw	177
   863  058B  3401               	retlw	1
   864  058C  341B               	retlw	27
   865  058D  3400               	retlw	0
   866  058E  34B1               	retlw	177
   867  058F  3401               	retlw	1
   868  0590  341C               	retlw	28
   869  0591  3400               	retlw	0
   870  0592  348B               	retlw	139
   871  0593  3402               	retlw	2
   872  0594  341B               	retlw	27
   873  0595  3400               	retlw	0
   874  0596  346B               	retlw	107
   875  0597  3400               	retlw	0
   876  0598  3419               	retlw	25
   877  0599  3400               	retlw	0
   878  059A  346B               	retlw	107
   879  059B  3400               	retlw	0
   880  059C  341B               	retlw	27
   881  059D  3400               	retlw	0
   882  059E  344E               	retlw	78
   883  059F  3403               	retlw	3
   884  05A0  3400               	retlw	0
   885  05A1  3400               	retlw	0
   886  05A2  3415               	retlw	21
   887  05A3  3400               	retlw	0
   888  05A4  341C               	retlw	28
   889  05A5  3400               	retlw	0
   890  05A6  342F               	retlw	47
   891  05A7  3401               	retlw	1
   892  05A8  3400               	retlw	0
   893  05A9  3400               	retlw	0
   894  05AA  3415               	retlw	21
   895  05AB  3400               	retlw	0
   896  05AC  341B               	retlw	27
   897  05AD  3400               	retlw	0
   898  05AE  342F               	retlw	47
   899  05AF  3401               	retlw	1
   900  05B0  3400               	retlw	0
   901  05B1  3400               	retlw	0
   902  05B2  3415               	retlw	21
   903  05B3  3400               	retlw	0
   904  05B4  341C               	retlw	28
   905  05B5  3400               	retlw	0
   906  05B6  34C2               	retlw	194
   907  05B7  3400               	retlw	0
   908  05B8  3400               	retlw	0
   909  05B9  3400               	retlw	0
   910  05BA  3415               	retlw	21
   911  05BB  3400               	retlw	0
   912  05BC  341E               	retlw	30
   913  05BD  3400               	retlw	0
   914  05BE  3475               	retlw	117
   915  05BF  3402               	retlw	2
   916  05C0  3400               	retlw	0
   917  05C1  3400               	retlw	0
   918  05C2  3415               	retlw	21
   919  05C3  3400               	retlw	0
   920  05C4  3420               	retlw	32
   921  05C5  3400               	retlw	0
   922  05C6  346B               	retlw	107
   923  05C7  3400               	retlw	0
   924  05C8  3422               	retlw	34
   925  05C9  3400               	retlw	0
   926  05CA  346B               	retlw	107
   927  05CB  3400               	retlw	0
   928  05CC  3423               	retlw	35
   929  05CD  3400               	retlw	0
   930  05CE  34CA               	retlw	202
   931  05CF  3406               	retlw	6
   932  05D0                     __end_of_sheRa:
   933                           
   934                           	psect	stringtext3
   935  079E                     __pstringtext3:
   936  079E                     _notes:
   937  079E  34ED               	retlw	237
   938  079F  34E0               	retlw	224
   939  07A0  34D3               	retlw	211
   940  07A1  34C7               	retlw	199
   941  07A2  34BD               	retlw	189
   942  07A3  34B2               	retlw	178
   943  07A4  34A8               	retlw	168
   944  07A5  349E               	retlw	158
   945  07A6  3496               	retlw	150
   946  07A7  348D               	retlw	141
   947  07A8  3485               	retlw	133
   948  07A9  347D               	retlw	125
   949  07AA  3476               	retlw	118
   950  07AB  3470               	retlw	112
   951  07AC  346A               	retlw	106
   952  07AD  3463               	retlw	99
   953  07AE  345E               	retlw	94
   954  07AF  3459               	retlw	89
   955  07B0  3454               	retlw	84
   956  07B1  344F               	retlw	79
   957  07B2  344B               	retlw	75
   958  07B3  3446               	retlw	70
   959  07B4  3442               	retlw	66
   960  07B5  343F               	retlw	63
   961  07B6  343B               	retlw	59
   962  07B7  3438               	retlw	56
   963  07B8  3434               	retlw	52
   964  07B9  3432               	retlw	50
   965  07BA  342F               	retlw	47
   966  07BB  342C               	retlw	44
   967  07BC  342A               	retlw	42
   968  07BD  3427               	retlw	39
   969  07BE  3425               	retlw	37
   970  07BF  3423               	retlw	35
   971  07C0  3421               	retlw	33
   972  07C1  341F               	retlw	31
   973  07C2                     __end_of_notes:
   974  000C                     _PORTA	set	12
   975  000C                     _PORTAbits	set	12
   976  005F                     _GIE	set	95
   977  005E                     _PEIE	set	94
   978  00D5                     _LATC5	set	213
   979  00D4                     _LATC4	set	212
   980  00D3                     _LATC3	set	211
   981  00D2                     _LATC2	set	210
   982  00D1                     _LATC1	set	209
   983  00D0                     _LATC0	set	208
   984  00C2                     _LATA2	set	194
   985  00C1                     _LATA1	set	193
   986  00A5                     _TRISC5	set	165
   987  00A4                     _TRISC4	set	164
   988  00A3                     _TRISC3	set	163
   989  00A2                     _TRISC2	set	162
   990  00A1                     _TRISC1	set	161
   991  00A0                     _TRISC0	set	160
   992  0095                     _TRISA5	set	149
   993  0094                     _TRISA4	set	148
   994  0093                     _TRISA3	set	147
   995  0092                     _TRISA2	set	146
   996  0091                     _TRISA1	set	145
   997  0090                     _TRISA0	set	144
   998  009B                     _ADRES	set	155
   999  009D                     _ADCON0bits	set	157
  1000  009E                     _ADCON1bits	set	158
  1001  028F                     _T2HLTbits	set	655
  1002  028E                     _T2CONbits	set	654
  1003  0290                     _T2CLKCON	set	656
  1004  028D                     _PR2	set	653
  1005  059F                     _T0CON1bits	set	1439
  1006  059E                     _T0CON0bits	set	1438
  1007  070D                     _PIR1bits	set	1805
  1008  070C                     _PIR0bits	set	1804
  1009  38B4                     _IOCIE	set	14516
  1010  38B0                     _INTE	set	14512
  1011  38BE                     _TMR2IE	set	14526
  1012  38B5                     _TMR0IE	set	14517
  1013  081C                     _NVMDAT	set	2076
  1014  081A                     _NVMADR	set	2074
  1015  081E                     _NVMCON1bits	set	2078
  1016  0891                     _OSCENbits	set	2193
  1017  0893                     _OSCFRQbits	set	2195
  1018  090C                     _FVRCONbits	set	2316
  1019  1F4E                     _ANSELC	set	8014
  1020  1F38                     _ANSELAbits	set	7992
  1021  F9FB                     _IOCAF3	set	63995
  1022  F9F8                     _IOCAF0	set	63992
  1023  F9FC                     _IOCAF4	set	63996
  1024  F9EC                     _IOCAP4	set	63980
  1025  F9F4                     _IOCAN4	set	63988
  1026  F9EB                     _IOCAP3	set	63979
  1027  F9F3                     _IOCAN3	set	63987
  1028  F9E8                     _IOCAP0	set	63976
  1029  F9F0                     _IOCAN0	set	63984
  1030  F9CC                     _WPUA4	set	63948
  1031  F9CB                     _WPUA3	set	63947
  1032  F9C8                     _WPUA0	set	63944
  1033                           
  1034                           	psect	cinit
  1035  011E                     start_initialization:	
  1036                           ; #config settings
  1037                           
  1038  011E                     __initialization:
  1039                           
  1040                           ; Initialize objects allocated to BANK0
  1041  011E  3187  27EA  3181   	fcall	__pidataBANK0	;fetch initializer
  1042  0121  00E2               	movwf	__pdataBANK0& (0+127)
  1043  0122  3187  27EB  3181   	fcall	__pidataBANK0+1	;fetch initializer
  1044  0125  00E3               	movwf	(__pdataBANK0+1)& (0+127)
  1045                           
  1046                           ; Clear objects allocated to BITCOMMON
  1047  0126  01FC               	clrf	(__pbitbssCOMMON/(0+8))& (0+127)
  1048                           
  1049                           ; Clear objects allocated to COMMON
  1050  0127  01FA               	clrf	__pbssCOMMON& (0+127)
  1051  0128  01FB               	clrf	(__pbssCOMMON+1)& (0+127)
  1052                           
  1053                           ; Clear objects allocated to BANK0
  1054  0129  3020               	movlw	low __pbssBANK0
  1055  012A  0084               	movwf	4
  1056  012B  3000               	movlw	high __pbssBANK0
  1057  012C  0085               	movwf	5
  1058  012D  302F               	movlw	47
  1059  012E  3187  27E4  3181   	fcall	clear_ram0
  1060  0131                     end_of_initialization:	
  1061                           ;End of C runtime variable initialization code
  1062                           
  1063  0131                     __end_of__initialization:
  1064  0131  107E               	bcf	int$flags,0	;clear compiler interrupt flag (level 1)
  1065  0132  0140               	movlb	0
  1066  0133  3183  2BEF         	ljmp	_main	;jump to C main() function
  1067                           
  1068                           	psect	bitbssCOMMON
  1069  03E0                     __pbitbssCOMMON:
  1070  03E0                     _pinState:
  1071  03E0                     	ds	1
  1072                           
  1073                           	psect	bssCOMMON
  1074  007A                     __pbssCOMMON:
  1075  007A                     _i:
  1076  007A                     	ds	2
  1077                           
  1078                           	psect	bssBANK0
  1079  0020                     __pbssBANK0:
  1080  0020                     _calibrationMV:
  1081  0020                     	ds	2
  1082  0022                     _adcVolts:
  1083  0022                     	ds	2
  1084  0024                     _battVolts:
  1085  0024                     	ds	2
  1086  0026                     _charging:
  1087  0026                     	ds	2
  1088  0028                     _gotTheTouch:
  1089  0028                     	ds	2
  1090  002A                     _lidOpen:
  1091  002A                     	ds	2
  1092  002C                     _lowPowerMode:
  1093  002C                     	ds	2
  1094  002E                     _showCharge:
  1095  002E                     	ds	2
  1096  0030                     _poweredOn:
  1097  0030                     	ds	2
  1098  0032                     _genericDelay:
  1099  0032                     	ds	2
  1100  0034                     _playIndex:
  1101  0034                     	ds	2
  1102  0036                     _postscaler:
  1103  0036                     	ds	2
  1104  0038                     _abortAbort:
  1105  0038                     	ds	2
  1106  003A                     _gate:
  1107  003A                     	ds	2
  1108  003C                     _forceArc:
  1109  003C                     	ds	2
  1110  003E                     _chargeCycle:
  1111  003E                     	ds	1
  1112  003F                     _runIndex:
  1113  003F                     	ds	1
  1114  0040                     _buttonDebounce:
  1115  0040                     	ds	1
  1116  0041                     _clockDivider:
  1117  0041                     	ds	1
  1118  0042                     _debugging:
  1119  0042                     	ds	1
  1120  0043                     _aPorts:
  1121  0043                     	ds	12
  1122                           
  1123                           	psect	dataBANK0
  1124  0062                     __pdataBANK0:
  1125  0062                     _noGate:
  1126  0062                     	ds	2
  1127                           
  1128                           	psect	clrtext
  1129  07E4                     clear_ram0:	
  1130                           ;	Called with FSR0 containing the base address, and
  1131                           ;	WREG with the size to clear
  1132                           
  1133  07E4  0064               	clrwdt	;clear the watchdog before getting into this loop
  1134  07E5                     clrloop0:
  1135  07E5  0180               	clrf	0	;clear RAM location pointed to by FSR
  1136  07E6  3101               	addfsr 0,1
  1137  07E7  0B89               	decfsz	9,f	;Have we reached the end of clearing yet?
  1138  07E8  2FE5               	goto	clrloop0	;have we reached the end yet?
  1139  07E9  3400               	retlw	0	;all done for this memory range, return
  1140                           
  1141                           	psect	cstackCOMMON
  1142  0070                     __pcstackCOMMON:
  1143  0070                     ?_chargeIndicator:
  1144  0070                     ?_doTheArc:	
  1145                           ; 1 bytes @ 0x0
  1146                           
  1147  0070                     ?_goToLPmode:	
  1148                           ; 1 bytes @ 0x0
  1149                           
  1150  0070                     ?_isr:	
  1151                           ; 1 bytes @ 0x0
  1152                           
  1153  0070                     ??_isr:	
  1154                           ; 1 bytes @ 0x0
  1155                           
  1156                           
  1157                           ; 1 bytes @ 0x0
  1158  0070                     	ds	1
  1159  0071                     ?_ButtonDebounceInit:
  1160  0071                     ?_blockingDelay:	
  1161                           ; 1 bytes @ 0x1
  1162                           
  1163  0071                     ?_playNote:	
  1164                           ; 1 bytes @ 0x1
  1165                           
  1166  0071                     ?___aldiv:	
  1167                           ; 1 bytes @ 0x1
  1168                           
  1169  0071                     ButtonDebounceInit@pulledUpButtons:	
  1170                           ; 4 bytes @ 0x1
  1171                           
  1172  0071                     blockingDelay@mSecs:	
  1173                           ; 1 bytes @ 0x1
  1174                           
  1175  0071                     playNote@note:	
  1176                           ; 2 bytes @ 0x1
  1177                           
  1178  0071                     ___aldiv@divisor:	
  1179                           ; 2 bytes @ 0x1
  1180                           
  1181                           
  1182                           ; 4 bytes @ 0x1
  1183  0071                     	ds	1
  1184  0072                     ??_ButtonDebounceInit:
  1185                           
  1186                           ; 1 bytes @ 0x2
  1187  0072                     	ds	1
  1188  0073                     ??_blockingDelay:
  1189  0073                     ButtonDebounceInit@i:	
  1190                           ; 1 bytes @ 0x3
  1191                           
  1192  0073                     playNote@duration:	
  1193                           ; 1 bytes @ 0x3
  1194                           
  1195                           
  1196                           ; 2 bytes @ 0x3
  1197  0073                     	ds	1
  1198  0074                     ButtonDebounceInit@port:
  1199                           
  1200                           ; 1 bytes @ 0x4
  1201  0074                     	ds	1
  1202  0075                     ??_doTheArc:
  1203  0075                     ??_goToLPmode:	
  1204                           ; 1 bytes @ 0x5
  1205                           
  1206  0075                     ??_playNote:	
  1207                           ; 1 bytes @ 0x5
  1208                           
  1209  0075                     ___aldiv@dividend:	
  1210                           ; 1 bytes @ 0x5
  1211                           
  1212                           
  1213                           ; 4 bytes @ 0x5
  1214  0075                     	ds	4
  1215  0079                     ??___aldiv:
  1216                           
  1217                           ; 1 bytes @ 0x9
  1218  0079                     	ds	1
  1219                           
  1220                           	psect	cstackBANK0
  1221  004F                     __pcstackBANK0:
  1222  004F                     ___aldiv@counter:
  1223                           
  1224                           ; 1 bytes @ 0x0
  1225  004F                     	ds	1
  1226  0050                     ___aldiv@sign:
  1227                           
  1228                           ; 1 bytes @ 0x1
  1229  0050                     	ds	1
  1230  0051                     ___aldiv@quotient:
  1231                           
  1232                           ; 4 bytes @ 0x2
  1233  0051                     	ds	4
  1234  0055                     ??_chargeIndicator:
  1235                           
  1236                           ; 1 bytes @ 0x6
  1237  0055                     	ds	4
  1238  0059                     _chargeIndicator$1123:
  1239                           
  1240                           ; 4 bytes @ 0xA
  1241  0059                     	ds	4
  1242  005D                     ?_main:
  1243  005D                     main@argc:	
  1244                           ; 2 bytes @ 0xE
  1245                           
  1246                           
  1247                           ; 2 bytes @ 0xE
  1248  005D                     	ds	2
  1249  005F                     main@argv:
  1250                           
  1251                           ; 2 bytes @ 0x10
  1252  005F                     	ds	2
  1253  0061                     ??_main:
  1254                           
  1255                           ; 1 bytes @ 0x12
  1256  0061                     	ds	1
  1257                           
  1258                           	psect	maintext
  1259  03EF                     __pmaintext:	
  1260 ;;
  1261 ;;Main: autosize = 0, tempsize = 1, incstack = 0, save=0
  1262 ;;
  1263 ;; *************** function _main *****************
  1264 ;; Defined at:
  1265 ;;		line 365 in file "main.c"
  1266 ;; Parameters:    Size  Location     Type
  1267 ;;  argc            2   14[BANK0 ] int 
  1268 ;;  argv            2   16[BANK0 ] PTR PTR unsigned char 
  1269 ;; Auto vars:     Size  Location     Type
  1270 ;;		None
  1271 ;; Return value:  Size  Location     Type
  1272 ;;                  2   14[BANK0 ] int 
  1273 ;; Registers used:
  1274 ;;		wreg, fsr0l, fsr0h, fsr1l, fsr1h, status,2, status,0, pclath, cstack
  1275 ;; Tracked objects:
  1276 ;;		On entry : B3F/0
  1277 ;;		On exit  : 0/0
  1278 ;;		Unchanged: 0/0
  1279 ;; Data sizes:     COMMON   BANK0   BANK1   BANK2   BANK3   BANK4   BANK5   BANK6
  1280 ;;      Params:         0       4       0       0       0       0       0       0
  1281 ;;      Locals:         0       0       0       0       0       0       0       0
  1282 ;;      Temps:          0       1       0       0       0       0       0       0
  1283 ;;      Totals:         0       5       0       0       0       0       0       0
  1284 ;;Total ram usage:        5 bytes
  1285 ;; Hardware stack levels required when called: 3
  1286 ;; This function calls:
  1287 ;;		_ButtonDebounceInit
  1288 ;;		_blockingDelay
  1289 ;;		_chargeIndicator
  1290 ;;		_doTheArc
  1291 ;;		_goToLPmode
  1292 ;; This function is called by:
  1293 ;;		Startup code after reset
  1294 ;; This function uses a non-reentrant model
  1295 ;;
  1296                           
  1297                           
  1298                           ;psect for function _main
  1299  03EF                     _main:
  1300  03EF                     l1868:	
  1301                           ;incstack = 0
  1302                           ; Regs used in _main: [wreg-fsr1h+status,2+status,0+pclath+cstack]
  1303                           
  1304                           
  1305                           ;main.c: 369:     ANSELAbits.ANSA0 = 0;
  1306  03EF  017E               	movlb	62	; select bank62
  1307  03F0  1038               	bcf	56,0	;volatile
  1308                           
  1309                           ;main.c: 370:     ANSELAbits.ANSA1 = 0;
  1310  03F1  10B8               	bcf	56,1	;volatile
  1311                           
  1312                           ;main.c: 371:     ANSELAbits.ANSA2 = 0;
  1313  03F2  1138               	bcf	56,2	;volatile
  1314                           
  1315                           ;main.c: 373:     ANSELAbits.ANSA4 = 0;
  1316  03F3  1238               	bcf	56,4	;volatile
  1317  03F4                     l1870:
  1318                           
  1319                           ;main.c: 380:     ANSELC = 0x0;
  1320  03F4  01CE               	clrf	78	;volatile
  1321  03F5                     l1872:
  1322                           
  1323                           ;main.c: 384:     TRISA0 = 1;
  1324  03F5  0140               	movlb	0	; select bank0
  1325  03F6  1412               	bsf	18,0	;volatile
  1326  03F7                     l1874:
  1327                           
  1328                           ;main.c: 385:     WPUA0 = 1;
  1329  03F7  017E               	movlb	62	; select bank62
  1330  03F8  1439               	bsf	57,0	;volatile
  1331  03F9                     l1876:
  1332                           
  1333                           ;main.c: 386:     TRISA1 = 0;
  1334  03F9  0140               	movlb	0	; select bank0
  1335  03FA  1092               	bcf	18,1	;volatile
  1336  03FB                     l1878:
  1337                           
  1338                           ;main.c: 387:     TRISA2 = 0;
  1339  03FB  1112               	bcf	18,2	;volatile
  1340  03FC                     l1880:
  1341                           
  1342                           ;main.c: 388:     TRISA3 = 1;
  1343  03FC  1592               	bsf	18,3	;volatile
  1344  03FD                     l1882:
  1345                           
  1346                           ;main.c: 389:     WPUA3 = 1;
  1347  03FD  017E               	movlb	62	; select bank62
  1348  03FE  15B9               	bsf	57,3	;volatile
  1349  03FF                     l1884:
  1350                           
  1351                           ;main.c: 390:     TRISA4 = 1;
  1352  03FF  0140               	movlb	0	; select bank0
  1353  0400  1612               	bsf	18,4	;volatile
  1354  0401                     l1886:
  1355                           
  1356                           ;main.c: 391:     WPUA4 = 1;
  1357  0401  017E               	movlb	62	; select bank62
  1358  0402  1639               	bsf	57,4	;volatile
  1359  0403                     l1888:
  1360                           
  1361                           ;main.c: 392:     TRISA5 = 1;
  1362  0403  0140               	movlb	0	; select bank0
  1363  0404  1692               	bsf	18,5	;volatile
  1364  0405                     l1890:
  1365                           
  1366                           ;main.c: 393:     TRISC0 = 0;
  1367  0405  1014               	bcf	20,0	;volatile
  1368  0406                     l1892:
  1369                           
  1370                           ;main.c: 394:     TRISC1 = 0;
  1371  0406  1094               	bcf	20,1	;volatile
  1372  0407                     l1894:
  1373                           
  1374                           ;main.c: 395:     TRISC2 = 0;
  1375  0407  1114               	bcf	20,2	;volatile
  1376  0408                     l1896:
  1377                           
  1378                           ;main.c: 396:     TRISC3 = 0;
  1379  0408  1194               	bcf	20,3	;volatile
  1380  0409                     l1898:
  1381                           
  1382                           ;main.c: 397:     TRISC4 = 0;
  1383  0409  1214               	bcf	20,4	;volatile
  1384  040A                     l1900:
  1385                           
  1386                           ;main.c: 398:     TRISC5 = 0;
  1387  040A  1294               	bcf	20,5	;volatile
  1388  040B                     l1902:
  1389                           
  1390                           ;main.c: 401:     LATA1 = 1;
  1391  040B  1498               	bsf	24,1	;volatile
  1392  040C                     l1904:
  1393                           
  1394                           ;main.c: 402:     LATA2 = 1;
  1395  040C  1518               	bsf	24,2	;volatile
  1396  040D                     l1906:
  1397                           
  1398                           ;main.c: 403:     LATC0 = 1;
  1399  040D  141A               	bsf	26,0	;volatile
  1400  040E                     l1908:
  1401                           
  1402                           ;main.c: 404:     LATC1 = 1;
  1403  040E  149A               	bsf	26,1	;volatile
  1404  040F                     l1910:
  1405                           
  1406                           ;main.c: 405:     LATC2 = 1;
  1407  040F  151A               	bsf	26,2	;volatile
  1408  0410                     l1912:
  1409                           
  1410                           ;main.c: 406:     LATC3 = 0;
  1411  0410  119A               	bcf	26,3	;volatile
  1412  0411                     l1914:
  1413                           
  1414                           ;main.c: 407:     LATC4 = 0;
  1415  0411  121A               	bcf	26,4	;volatile
  1416  0412                     l1916:
  1417                           
  1418                           ;main.c: 408:     LATC5 = 0;
  1419  0412  129A               	bcf	26,5	;volatile
  1420  0413                     l1918:
  1421                           
  1422                           ;main.c: 411:     ButtonDebounceInit(&aPorts, (0x0001) | (0x0008));
  1423  0413  3009               	movlw	9
  1424  0414  00E1               	movwf	??_main
  1425  0415  0861               	movf	??_main,w
  1426  0416  00F1               	movwf	ButtonDebounceInit@pulledUpButtons
  1427  0417  3043               	movlw	(low (_aPorts| 0))& (0+255)
  1428  0418  3187  2773  3183   	fcall	_ButtonDebounceInit
  1429  041B                     l1920:
  1430                           
  1431                           ;main.c: 418:     OSCFRQbits.FRQ = 0b101;
  1432  041B  0151               	movlb	17	; select bank17
  1433  041C  0813               	movf	19,w	;volatile
  1434  041D  39F8               	andlw	-8
  1435  041E  3805               	iorlw	5
  1436  041F  0093               	movwf	19	;volatile
  1437  0420                     l1922:
  1438                           
  1439                           ;main.c: 419:     OSCENbits.HFOEN = 1;
  1440  0420  1711               	bsf	17,6	;volatile
  1441  0421                     l1924:
  1442                           
  1443                           ;main.c: 423:     T0CON0bits.MD16 = 0;
  1444  0421  014B               	movlb	11	; select bank11
  1445  0422  121E               	bcf	30,4	;volatile
  1446  0423                     l1926:
  1447                           
  1448                           ;main.c: 424:     T0CON0bits.OUTPS = 0b0000;
  1449  0423  30F0               	movlw	-16
  1450  0424  059E               	andwf	30,f	;volatile
  1451  0425                     l1928:
  1452                           
  1453                           ;main.c: 425:     T0CON1bits.CS = 0b010;
  1454  0425  081F               	movf	31,w	;volatile
  1455  0426  391F               	andlw	-225
  1456  0427  3840               	iorlw	64
  1457  0428  009F               	movwf	31	;volatile
  1458  0429                     l1930:
  1459                           
  1460                           ;main.c: 426:     T0CON1bits.ASYNC = 0;
  1461  0429  121F               	bcf	31,4	;volatile
  1462  042A                     l1932:
  1463                           
  1464                           ;main.c: 427:     T0CON1bits.CKPS = 0b0001;
  1465  042A  081F               	movf	31,w	;volatile
  1466  042B  39F0               	andlw	-16
  1467  042C  3801               	iorlw	1
  1468  042D  009F               	movwf	31	;volatile
  1469  042E                     l1934:
  1470                           
  1471                           ;main.c: 428:     T0CON0bits.EN = 1;
  1472  042E  179E               	bsf	30,7	;volatile
  1473  042F                     l1936:
  1474                           
  1475                           ;main.c: 431:     PR2 = 0xFF;
  1476  042F  30FF               	movlw	255
  1477  0430  0145               	movlb	5	; select bank5
  1478  0431  008D               	movwf	13	;volatile
  1479  0432                     l1938:
  1480                           
  1481                           ;main.c: 432:     T2CLKCON = 0b001;
  1482  0432  3001               	movlw	1
  1483  0433  0090               	movwf	16	;volatile
  1484  0434                     l1940:
  1485                           
  1486                           ;main.c: 433:     T2CONbits.T2CKPS = 0b110;
  1487  0434  080E               	movf	14,w	;volatile
  1488  0435  398F               	andlw	-113
  1489  0436  3860               	iorlw	96
  1490  0437  008E               	movwf	14	;volatile
  1491  0438                     l1942:
  1492                           
  1493                           ;main.c: 434:     T2HLTbits.PSYNC = 1;
  1494  0438  178F               	bsf	15,7	;volatile
  1495  0439                     l1944:
  1496                           
  1497                           ;main.c: 435:     T2CONbits.TMR2ON = 1;
  1498  0439  178E               	bsf	14,7	;volatile
  1499  043A                     l1946:
  1500                           
  1501                           ;main.c: 438:     TMR0IE = 1;
  1502  043A  014E               	movlb	14	; select bank14
  1503  043B  1696               	bsf	22,5	;volatile
  1504  043C                     l1948:
  1505                           
  1506                           ;main.c: 439:     TMR2IE = 1;
  1507  043C  1717               	bsf	23,6	;volatile
  1508  043D                     l1950:
  1509                           
  1510                           ;main.c: 442:     FVRCONbits.ADFVR = 0b01;
  1511  043D  0152               	movlb	18	; select bank18
  1512  043E  080C               	movf	12,w	;volatile
  1513  043F  39FC               	andlw	-4
  1514  0440  3801               	iorlw	1
  1515  0441  008C               	movwf	12	;volatile
  1516  0442                     l1952:
  1517                           
  1518                           ;main.c: 443:     FVRCONbits.FVREN = 1;
  1519  0442  178C               	bsf	12,7	;volatile
  1520  0443                     l1954:
  1521                           
  1522                           ;main.c: 447:     if (!debugging) NVMCON1bits.NVMREGS = 1;
  1523  0443  0140               	movlb	0	; select bank0
  1524  0444  0842               	movf	_debugging,w
  1525  0445  1D03               	btfss	3,2
  1526  0446  2C48               	goto	u1831
  1527  0447  2C49               	goto	u1830
  1528  0448                     u1831:
  1529  0448  2C4B               	goto	l193
  1530  0449                     u1830:
  1531  0449                     l1956:
  1532  0449  0150               	movlb	16	; select bank16
  1533  044A  171E               	bsf	30,6	;volsfr
  1534  044B                     l193:
  1535                           
  1536                           ;main.c: 448:     NVMADR = 0x8118;
  1537  044B  3081               	movlw	129
  1538  044C  0150               	movlb	16	; select bank16
  1539  044D  009B               	movwf	27	;volatile
  1540  044E  3018               	movlw	24
  1541  044F  009A               	movwf	26	;volatile
  1542                           
  1543                           ;main.c: 449:     NVMCON1bits.RD = 1;
  1544  0450  141E               	bsf	30,0	;volsfr
  1545  0451                     l194:	
  1546                           ;main.c: 450:     while (NVMCON1bits.RD == 1);
  1547                           
  1548  0451  181E               	btfsc	30,0	;volsfr
  1549  0452  2C54               	goto	u1841
  1550  0453  2C55               	goto	u1840
  1551  0454                     u1841:
  1552  0454  2C51               	goto	l194
  1553  0455                     u1840:
  1554  0455                     l1958:
  1555                           
  1556                           ;main.c: 451:     calibrationMV = NVMDAT;
  1557  0455  081D               	movf	29,w	;volatile
  1558  0456  0140               	movlb	0	; select bank0
  1559  0457  00A1               	movwf	_calibrationMV+1
  1560  0458  0150               	movlb	16	; select bank16
  1561  0459  081C               	movf	28,w	;volatile
  1562  045A  0140               	movlb	0	; select bank0
  1563  045B  00A0               	movwf	_calibrationMV
  1564  045C                     l1960:
  1565                           
  1566                           ;main.c: 452:     if (!debugging) NVMCON1bits.NVMREGS = 0;
  1567  045C  0842               	movf	_debugging,w
  1568  045D  1D03               	btfss	3,2
  1569  045E  2C60               	goto	u1851
  1570  045F  2C61               	goto	u1850
  1571  0460                     u1851:
  1572  0460  2C63               	goto	l1964
  1573  0461                     u1850:
  1574  0461                     l1962:
  1575  0461  0150               	movlb	16	; select bank16
  1576  0462  131E               	bcf	30,6	;volsfr
  1577  0463                     l1964:
  1578                           
  1579                           ;main.c: 455:     ADCON1bits.CS = 0b110;
  1580  0463  0141               	movlb	1	; select bank1
  1581  0464  081E               	movf	30,w	;volatile
  1582  0465  398F               	andlw	-113
  1583  0466  3860               	iorlw	96
  1584  0467  009E               	movwf	30	;volatile
  1585                           
  1586                           ;main.c: 456:     ADCON1bits.PREF = 0b00;
  1587  0468  30FC               	movlw	-4
  1588  0469  059E               	andwf	30,f	;volatile
  1589                           
  1590                           ;main.c: 457:     ADCON0bits.CHS = 0b011110;
  1591  046A  081D               	movf	29,w	;volatile
  1592  046B  3903               	andlw	-253
  1593  046C  3878               	iorlw	120
  1594  046D  009D               	movwf	29	;volatile
  1595  046E                     l1966:
  1596                           
  1597                           ;main.c: 458:     ADCON1bits.FM = 1;
  1598  046E  179E               	bsf	30,7	;volatile
  1599                           
  1600                           ;main.c: 461:     if (!debugging) ADCON0bits.ON = 1;
  1601  046F  0140               	movlb	0	; select bank0
  1602  0470  0842               	movf	_debugging,w
  1603  0471  1D03               	btfss	3,2
  1604  0472  2C74               	goto	u1861
  1605  0473  2C75               	goto	u1860
  1606  0474                     u1861:
  1607  0474  2C77               	goto	l198
  1608  0475                     u1860:
  1609  0475                     l1968:
  1610  0475  0141               	movlb	1	; select bank1
  1611  0476  141D               	bsf	29,0	;volatile
  1612  0477                     l198:
  1613                           
  1614                           ;main.c: 474:     IOCAN0 = 1;
  1615  0477  017E               	movlb	62	; select bank62
  1616  0478  143E               	bsf	62,0	;volatile
  1617                           
  1618                           ;main.c: 475:     IOCAP0 = 1;
  1619  0479  143D               	bsf	61,0	;volatile
  1620                           
  1621                           ;main.c: 476:     IOCAN3 = 1;
  1622  047A  15BE               	bsf	62,3	;volatile
  1623                           
  1624                           ;main.c: 477:     IOCAP3 = 1;
  1625  047B  15BD               	bsf	61,3	;volatile
  1626                           
  1627                           ;main.c: 478:     IOCAN4 = 1;
  1628  047C  163E               	bsf	62,4	;volatile
  1629                           
  1630                           ;main.c: 479:     IOCAP4 = 1;
  1631  047D  163D               	bsf	61,4	;volatile
  1632                           
  1633                           ;main.c: 482:     INTE = 0;
  1634  047E  014E               	movlb	14	; select bank14
  1635  047F  1016               	bcf	22,0	;volatile
  1636                           
  1637                           ;main.c: 484:     PEIE = 1;
  1638  0480  170B               	bsf	11,6	;volatile
  1639                           
  1640                           ;main.c: 485:     IOCIE = 1;
  1641  0481  1616               	bsf	22,4	;volatile
  1642                           
  1643                           ;main.c: 486:     GIE = 1;
  1644  0482  178B               	bsf	11,7	;volatile
  1645                           
  1646                           ;main.c: 489:     LATC2 = 0;
  1647  0483  0140               	movlb	0	; select bank0
  1648  0484  111A               	bcf	26,2	;volatile
  1649  0485                     l1970:
  1650                           
  1651                           ;main.c: 490:     blockingDelay(100);
  1652  0485  3064               	movlw	100
  1653  0486  00F1               	movwf	blockingDelay@mSecs
  1654  0487  3000               	movlw	0
  1655  0488  00F2               	movwf	blockingDelay@mSecs+1
  1656  0489  3187  27D8  3183   	fcall	_blockingDelay
  1657  048C                     l1972:
  1658                           
  1659                           ;main.c: 491:     LATC2 = 1;
  1660  048C  0140               	movlb	0	; select bank0
  1661  048D  151A               	bsf	26,2	;volatile
  1662                           
  1663                           ;main.c: 492:     blockingDelay(100);
  1664  048E  3064               	movlw	100
  1665  048F  00F1               	movwf	blockingDelay@mSecs
  1666  0490  3000               	movlw	0
  1667  0491  00F2               	movwf	blockingDelay@mSecs+1
  1668  0492  3187  27D8  3183   	fcall	_blockingDelay
  1669  0495                     l1974:
  1670                           
  1671                           ;main.c: 493:     LATC2 = 0;
  1672  0495  0140               	movlb	0	; select bank0
  1673  0496  111A               	bcf	26,2	;volatile
  1674                           
  1675                           ;main.c: 494:     blockingDelay(100);
  1676  0497  3064               	movlw	100
  1677  0498  00F1               	movwf	blockingDelay@mSecs
  1678  0499  3000               	movlw	0
  1679  049A  00F2               	movwf	blockingDelay@mSecs+1
  1680  049B  3187  27D8  3183   	fcall	_blockingDelay
  1681  049E                     l1976:
  1682                           
  1683                           ;main.c: 495:     LATC2 = 1;
  1684  049E  0140               	movlb	0	; select bank0
  1685  049F  151A               	bsf	26,2	;volatile
  1686                           
  1687                           ;main.c: 496:     blockingDelay(100);
  1688  04A0  3064               	movlw	100
  1689  04A1  00F1               	movwf	blockingDelay@mSecs
  1690  04A2  3000               	movlw	0
  1691  04A3  00F2               	movwf	blockingDelay@mSecs+1
  1692  04A4  3187  27D8  3183   	fcall	_blockingDelay
  1693  04A7                     l1978:
  1694                           
  1695                           ;main.c: 497:     LATC2 = 0;
  1696  04A7  0140               	movlb	0	; select bank0
  1697  04A8  111A               	bcf	26,2	;volatile
  1698                           
  1699                           ;main.c: 498:     blockingDelay(100);
  1700  04A9  3064               	movlw	100
  1701  04AA  00F1               	movwf	blockingDelay@mSecs
  1702  04AB  3000               	movlw	0
  1703  04AC  00F2               	movwf	blockingDelay@mSecs+1
  1704  04AD  3187  27D8  3183   	fcall	_blockingDelay
  1705  04B0                     l1980:
  1706                           
  1707                           ;main.c: 499:     LATC2 = 1;
  1708  04B0  0140               	movlb	0	; select bank0
  1709  04B1  151A               	bsf	26,2	;volatile
  1710  04B2                     l1982:
  1711                           
  1712                           ;main.c: 505:         forceArc = 0;
  1713  04B2  0140               	movlb	0	; select bank0
  1714  04B3  01BC               	clrf	_forceArc
  1715  04B4  01BD               	clrf	_forceArc+1
  1716  04B5                     l1984:
  1717                           
  1718                           ;main.c: 506:         if (showCharge) chargeIndicator();
  1719  04B5  082E               	movf	_showCharge,w
  1720  04B6  042F               	iorwf	_showCharge+1,w
  1721  04B7  1903               	btfsc	3,2
  1722  04B8  2CBA               	goto	u1871
  1723  04B9  2CBB               	goto	u1870
  1724  04BA                     u1871:
  1725  04BA  2CBE               	goto	l1988
  1726  04BB                     u1870:
  1727  04BB                     l1986:
  1728  04BB  3185  25D0  3183   	fcall	_chargeIndicator
  1729  04BE                     l1988:
  1730                           
  1731                           ;main.c: 507:         if (poweredOn) {
  1732  04BE  0140               	movlb	0	; select bank0
  1733  04BF  0830               	movf	_poweredOn,w
  1734  04C0  0431               	iorwf	_poweredOn+1,w
  1735  04C1  1903               	btfsc	3,2
  1736  04C2  2CC4               	goto	u1881
  1737  04C3  2CC5               	goto	u1880
  1738  04C4                     u1881:
  1739  04C4  2CD1               	goto	l201
  1740  04C5                     u1880:
  1741  04C5                     l1990:
  1742                           
  1743                           ;main.c: 509:             LATC2 = 0;
  1744  04C5  111A               	bcf	26,2	;volatile
  1745                           
  1746                           ;main.c: 511:             LATC3 = 1;
  1747  04C6  159A               	bsf	26,3	;volatile
  1748  04C7                     l1992:
  1749                           
  1750                           ;main.c: 512:             if (gotTheTouch) doTheArc();
  1751  04C7  0828               	movf	_gotTheTouch,w
  1752  04C8  0429               	iorwf	_gotTheTouch+1,w
  1753  04C9  1903               	btfsc	3,2
  1754  04CA  2CCC               	goto	u1891
  1755  04CB  2CCD               	goto	u1890
  1756  04CC                     u1891:
  1757  04CC  2CD3               	goto	l1996
  1758  04CD                     u1890:
  1759  04CD                     l1994:
  1760  04CD  3182  22F5  3183   	fcall	_doTheArc
  1761  04D0  2CD3               	goto	l1996
  1762  04D1                     l201:
  1763                           
  1764                           ;main.c: 515:             LATC2 = 1;
  1765  04D1  151A               	bsf	26,2	;volatile
  1766                           
  1767                           ;main.c: 517:             LATC3 = 0;
  1768  04D2  119A               	bcf	26,3	;volatile
  1769  04D3                     l1996:
  1770                           
  1771                           ;main.c: 519:         if (lowPowerMode) goToLPmode();
  1772  04D3  0140               	movlb	0	; select bank0
  1773  04D4  082C               	movf	_lowPowerMode,w
  1774  04D5  042D               	iorwf	_lowPowerMode+1,w
  1775  04D6  1903               	btfsc	3,2
  1776  04D7  2CD9               	goto	u1901
  1777  04D8  2CDA               	goto	u1900
  1778  04D9                     u1901:
  1779  04D9  2CB2               	goto	l1982
  1780  04DA                     u1900:
  1781  04DA                     l1998:
  1782  04DA  3187  27C2  3183   	fcall	_goToLPmode
  1783  04DD  2CB2               	goto	l1982
  1784  04DE  3181  291C         	ljmp	start
  1785  04E0                     __end_of_main:
  1786                           
  1787                           	psect	text1
  1788  07C2                     __ptext1:	
  1789 ;; *************** function _goToLPmode *****************
  1790 ;; Defined at:
  1791 ;;		line 746 in file "main.c"
  1792 ;; Parameters:    Size  Location     Type
  1793 ;;		None
  1794 ;; Auto vars:     Size  Location     Type
  1795 ;;		None
  1796 ;; Return value:  Size  Location     Type
  1797 ;;                  1    wreg      void 
  1798 ;; Registers used:
  1799 ;;		wreg, fsr0l, fsr0h, status,2, status,0, pclath, cstack
  1800 ;; Tracked objects:
  1801 ;;		On entry : 0/0
  1802 ;;		On exit  : 0/0
  1803 ;;		Unchanged: 0/0
  1804 ;; Data sizes:     COMMON   BANK0   BANK1   BANK2   BANK3   BANK4   BANK5   BANK6
  1805 ;;      Params:         0       0       0       0       0       0       0       0
  1806 ;;      Locals:         0       0       0       0       0       0       0       0
  1807 ;;      Temps:          0       0       0       0       0       0       0       0
  1808 ;;      Totals:         0       0       0       0       0       0       0       0
  1809 ;;Total ram usage:        0 bytes
  1810 ;; Hardware stack levels used: 1
  1811 ;; Hardware stack levels required when called: 2
  1812 ;; This function calls:
  1813 ;;		_playNote
  1814 ;; This function is called by:
  1815 ;;		_main
  1816 ;; This function uses a non-reentrant model
  1817 ;;
  1818                           
  1819                           
  1820                           ;psect for function _goToLPmode
  1821  07C2                     _goToLPmode:
  1822  07C2                     l1556:	
  1823                           ;incstack = 0
  1824                           ; Regs used in _goToLPmode: [wreg-fsr0h+status,2+status,0+pclath+cstack]
  1825                           
  1826                           
  1827                           ;main.c: 747:     forceArc = 0;
  1828  07C2  0140               	movlb	0	; select bank0
  1829  07C3  01BC               	clrf	_forceArc
  1830  07C4  01BD               	clrf	_forceArc+1
  1831  07C5                     l1558:
  1832                           
  1833                           ;main.c: 748:     playNote(0, 100);
  1834  07C5  3000               	movlw	0
  1835  07C6  00F1               	movwf	playNote@note
  1836  07C7  00F2               	movwf	playNote@note+1
  1837  07C8  3064               	movlw	100
  1838  07C9  00F3               	movwf	playNote@duration
  1839  07CA  3000               	movlw	0
  1840  07CB  00F4               	movwf	playNote@duration+1
  1841  07CC  3187  2741  3187   	fcall	_playNote
  1842  07CF                     l1560:
  1843                           
  1844                           ;main.c: 750:     LATC3 = 0;
  1845  07CF  0140               	movlb	0	; select bank0
  1846  07D0  119A               	bcf	26,3	;volatile
  1847  07D1                     l1562:
  1848                           
  1849                           ;main.c: 753:     LATA1 = 1;
  1850  07D1  1498               	bsf	24,1	;volatile
  1851  07D2                     l1564:
  1852                           
  1853                           ;main.c: 754:     LATA2 = 1;
  1854  07D2  1518               	bsf	24,2	;volatile
  1855  07D3                     l1566:
  1856                           
  1857                           ;main.c: 755:     LATC0 = 1;
  1858  07D3  141A               	bsf	26,0	;volatile
  1859  07D4                     l1568:
  1860                           
  1861                           ;main.c: 756:     LATC1 = 1;
  1862  07D4  149A               	bsf	26,1	;volatile
  1863  07D5                     l1570:
  1864                           
  1865                           ;main.c: 757:     LATC2 = 1;
  1866  07D5  151A               	bsf	26,2	;volatile
  1867  07D6  0063               	sleep	;# 
  1868  07D7                     l291:
  1869  07D7  0008               	return
  1870  07D8                     __end_of_goToLPmode:
  1871                           
  1872                           	psect	text2
  1873  02F5                     __ptext2:	
  1874 ;; *************** function _doTheArc *****************
  1875 ;; Defined at:
  1876 ;;		line 670 in file "main.c"
  1877 ;; Parameters:    Size  Location     Type
  1878 ;;		None
  1879 ;; Auto vars:     Size  Location     Type
  1880 ;;		None
  1881 ;; Return value:  Size  Location     Type
  1882 ;;                  1    wreg      void 
  1883 ;; Registers used:
  1884 ;;		wreg, fsr0l, fsr0h, status,2, status,0, pclath, cstack
  1885 ;; Tracked objects:
  1886 ;;		On entry : 0/0
  1887 ;;		On exit  : 0/0
  1888 ;;		Unchanged: 0/0
  1889 ;; Data sizes:     COMMON   BANK0   BANK1   BANK2   BANK3   BANK4   BANK5   BANK6
  1890 ;;      Params:         0       0       0       0       0       0       0       0
  1891 ;;      Locals:         0       0       0       0       0       0       0       0
  1892 ;;      Temps:          2       0       0       0       0       0       0       0
  1893 ;;      Totals:         2       0       0       0       0       0       0       0
  1894 ;;Total ram usage:        2 bytes
  1895 ;; Hardware stack levels used: 1
  1896 ;; Hardware stack levels required when called: 2
  1897 ;; This function calls:
  1898 ;;		_playNote
  1899 ;; This function is called by:
  1900 ;;		_main
  1901 ;; This function uses a non-reentrant model
  1902 ;;
  1903                           
  1904                           
  1905                           ;psect for function _doTheArc
  1906  02F5                     _doTheArc:
  1907  02F5                     l1486:	
  1908                           ;incstack = 0
  1909                           ; Regs used in _doTheArc: [wreg-fsr0h+status,2+status,0+pclath+cstack]
  1910                           
  1911                           
  1912                           ;main.c: 672:     forceArc = 1;
  1913  02F5  3001               	movlw	1
  1914  02F6  0140               	movlb	0	; select bank0
  1915  02F7  00BC               	movwf	_forceArc
  1916  02F8  3000               	movlw	0
  1917  02F9  00BD               	movwf	_forceArc+1
  1918  02FA                     l1488:
  1919                           
  1920                           ;main.c: 673:     runIndex++;
  1921  02FA  3001               	movlw	1
  1922  02FB  00F5               	movwf	??_doTheArc
  1923  02FC  0875               	movf	??_doTheArc,w
  1924  02FD  07BF               	addwf	_runIndex,f
  1925  02FE                     l1490:
  1926                           
  1927                           ;main.c: 674:     if (runIndex > 3) runIndex = 1;
  1928  02FE  3004               	movlw	4
  1929  02FF  023F               	subwf	_runIndex,w
  1930  0300  1C03               	skipc
  1931  0301  2B03               	goto	u1241
  1932  0302  2B04               	goto	u1240
  1933  0303                     u1241:
  1934  0303  2BD2               	goto	l1540
  1935  0304                     u1240:
  1936  0304                     l1492:
  1937  0304  01BF               	clrf	_runIndex
  1938  0305  0ABF               	incf	_runIndex,f
  1939  0306  2BD2               	goto	l1540
  1940  0307                     l242:	
  1941                           ;main.c: 676:         case 1:
  1942                           
  1943                           
  1944                           ;main.c: 678:             LATA1 = 0;
  1945  0307  1098               	bcf	24,1	;volatile
  1946                           
  1947                           ;main.c: 679:             LATA2 = 1;
  1948  0308  1518               	bsf	24,2	;volatile
  1949                           
  1950                           ;main.c: 680:             LATC0 = 1;
  1951  0309  141A               	bsf	26,0	;volatile
  1952                           
  1953                           ;main.c: 681:             LATC1 = 1;
  1954  030A  149A               	bsf	26,1	;volatile
  1955  030B                     l1494:	
  1956                           ;main.c: 682:             while (gotTheTouch && poweredOn);
  1957                           
  1958  030B  0828               	movf	_gotTheTouch,w
  1959  030C  0429               	iorwf	_gotTheTouch+1,w
  1960  030D  1903               	btfsc	3,2
  1961  030E  2B10               	goto	u1251
  1962  030F  2B11               	goto	u1250
  1963  0310                     u1251:
  1964  0310  2BE5               	goto	l1542
  1965  0311                     u1250:
  1966  0311                     l1496:
  1967  0311  0830               	movf	_poweredOn,w
  1968  0312  0431               	iorwf	_poweredOn+1,w
  1969  0313  1D03               	btfss	3,2
  1970  0314  2B16               	goto	u1261
  1971  0315  2B17               	goto	u1260
  1972  0316                     u1261:
  1973  0316  2B0B               	goto	l1494
  1974  0317                     u1260:
  1975  0317  2BE5               	goto	l1542
  1976  0318                     l249:	
  1977                           ;main.c: 685:         case 2:
  1978                           
  1979                           
  1980                           ;main.c: 687:             LATA1 = 1;
  1981  0318  1498               	bsf	24,1	;volatile
  1982                           
  1983                           ;main.c: 688:             LATA2 = 0;
  1984  0319  1118               	bcf	24,2	;volatile
  1985                           
  1986                           ;main.c: 689:             LATC0 = 1;
  1987  031A  141A               	bsf	26,0	;volatile
  1988                           
  1989                           ;main.c: 690:             LATC1 = 1;
  1990  031B  149A               	bsf	26,1	;volatile
  1991  031C                     l1498:
  1992                           
  1993                           ;main.c: 692:             genericDelay = 1000;
  1994  031C  30E8               	movlw	232
  1995  031D  00B2               	movwf	_genericDelay
  1996  031E  3003               	movlw	3
  1997  031F  00B3               	movwf	_genericDelay+1
  1998  0320                     l1500:	
  1999                           ;main.c: 693:             while (genericDelay && poweredOn && gotTheTouch);
  2000                           
  2001  0320  0832               	movf	_genericDelay,w
  2002  0321  0433               	iorwf	_genericDelay+1,w
  2003  0322  1903               	btfsc	3,2
  2004  0323  2B25               	goto	u1271
  2005  0324  2B26               	goto	u1270
  2006  0325                     u1271:
  2007  0325  2B32               	goto	l1506
  2008  0326                     u1270:
  2009  0326                     l1502:
  2010  0326  0830               	movf	_poweredOn,w
  2011  0327  0431               	iorwf	_poweredOn+1,w
  2012  0328  1903               	btfsc	3,2
  2013  0329  2B2B               	goto	u1281
  2014  032A  2B2C               	goto	u1280
  2015  032B                     u1281:
  2016  032B  2B32               	goto	l1506
  2017  032C                     u1280:
  2018  032C                     l1504:
  2019  032C  0828               	movf	_gotTheTouch,w
  2020  032D  0429               	iorwf	_gotTheTouch+1,w
  2021  032E  1D03               	btfss	3,2
  2022  032F  2B31               	goto	u1291
  2023  0330  2B32               	goto	u1290
  2024  0331                     u1291:
  2025  0331  2B20               	goto	l1500
  2026  0332                     u1290:
  2027  0332                     l1506:
  2028                           
  2029                           ;main.c: 694:             forceArc = 0;
  2030  0332  01BC               	clrf	_forceArc
  2031  0333  01BD               	clrf	_forceArc+1
  2032                           
  2033                           ;main.c: 695:             for (i = 0; i < sizeof (sheRa) && gotTheTouch && poweredOn; i+
      +                          +) playNote(sheRa[i][0], sheRa[i][1]);
  2034  0334  01FA               	clrf	_i
  2035  0335  01FB               	clrf	_i+1
  2036  0336  2B5E               	goto	l1512
  2037  0337                     l1508:
  2038  0337  087B               	movf	_i+1,w
  2039  0338  0085               	movwf	5
  2040  0339  087A               	movf	_i,w
  2041  033A  0084               	movwf	4
  2042  033B  3584               	lslf	4,f
  2043  033C  0D85               	rlf	5,f
  2044  033D  3584               	lslf	4,f
  2045  033E  0D85               	rlf	5,f
  2046  033F  30E0               	movlw	low (_sheRa| (0+32768))
  2047  0340  0784               	addwf	4,f
  2048  0341  3084               	movlw	high (_sheRa| (0+32768))
  2049  0342  3D85               	addwfc	5,f
  2050  0343  3F00               	moviw [0]fsr0
  2051  0344  00F1               	movwf	playNote@note
  2052  0345  3F01               	moviw [1]fsr0
  2053  0346  00F2               	movwf	playNote@note+1
  2054  0347  087B               	movf	_i+1,w
  2055  0348  0085               	movwf	5
  2056  0349  087A               	movf	_i,w
  2057  034A  0084               	movwf	4
  2058  034B  3584               	lslf	4,f
  2059  034C  0D85               	rlf	5,f
  2060  034D  3584               	lslf	4,f
  2061  034E  0D85               	rlf	5,f
  2062  034F  30E2               	movlw	low ((_sheRa+2)| (0+32768))
  2063  0350  0784               	addwf	4,f
  2064  0351  3084               	movlw	high ((_sheRa+2)| (0+32768))
  2065  0352  3D85               	addwfc	5,f
  2066  0353  3F00               	moviw [0]fsr0
  2067  0354  00F3               	movwf	playNote@duration
  2068  0355  3F01               	moviw [1]fsr0
  2069  0356  00F4               	movwf	playNote@duration+1
  2070  0357  3187  2741  3182   	fcall	_playNote
  2071  035A                     l1510:
  2072  035A  3001               	movlw	1
  2073  035B  07FA               	addwf	_i,f
  2074  035C  3000               	movlw	0
  2075  035D  3DFB               	addwfc	_i+1,f
  2076  035E                     l1512:
  2077  035E  3000               	movlw	0
  2078  035F  027B               	subwf	_i+1,w
  2079  0360  30F0               	movlw	240
  2080  0361  1903               	skipnz
  2081  0362  027A               	subwf	_i,w
  2082  0363  1803               	skipnc
  2083  0364  2B66               	goto	u1301
  2084  0365  2B67               	goto	u1300
  2085  0366                     u1301:
  2086  0366  2BE5               	goto	l1542
  2087  0367                     u1300:
  2088  0367                     l1514:
  2089  0367  0140               	movlb	0	; select bank0
  2090  0368  0828               	movf	_gotTheTouch,w
  2091  0369  0429               	iorwf	_gotTheTouch+1,w
  2092  036A  1903               	btfsc	3,2
  2093  036B  2B6D               	goto	u1311
  2094  036C  2B6E               	goto	u1310
  2095  036D                     u1311:
  2096  036D  2BE5               	goto	l1542
  2097  036E                     u1310:
  2098  036E                     l1516:
  2099  036E  0830               	movf	_poweredOn,w
  2100  036F  0431               	iorwf	_poweredOn+1,w
  2101  0370  1D03               	btfss	3,2
  2102  0371  2B73               	goto	u1321
  2103  0372  2B74               	goto	u1320
  2104  0373                     u1321:
  2105  0373  2B37               	goto	l1508
  2106  0374                     u1320:
  2107  0374  2BE5               	goto	l1542
  2108  0375                     l260:	
  2109                           ;main.c: 698:         case 3:
  2110                           
  2111                           
  2112                           ;main.c: 700:             LATA1 = 1;
  2113  0375  1498               	bsf	24,1	;volatile
  2114                           
  2115                           ;main.c: 701:             LATA2 = 1;
  2116  0376  1518               	bsf	24,2	;volatile
  2117                           
  2118                           ;main.c: 702:             LATC0 = 0;
  2119  0377  101A               	bcf	26,0	;volatile
  2120                           
  2121                           ;main.c: 703:             LATC1 = 1;
  2122  0378  149A               	bsf	26,1	;volatile
  2123  0379                     l1518:
  2124                           
  2125                           ;main.c: 705:             genericDelay = 1000;
  2126  0379  30E8               	movlw	232
  2127  037A  00B2               	movwf	_genericDelay
  2128  037B  3003               	movlw	3
  2129  037C  00B3               	movwf	_genericDelay+1
  2130  037D                     l1520:	
  2131                           ;main.c: 706:             while (genericDelay && poweredOn && gotTheTouch);
  2132                           
  2133  037D  0832               	movf	_genericDelay,w
  2134  037E  0433               	iorwf	_genericDelay+1,w
  2135  037F  1903               	btfsc	3,2
  2136  0380  2B82               	goto	u1331
  2137  0381  2B83               	goto	u1330
  2138  0382                     u1331:
  2139  0382  2B8F               	goto	l1526
  2140  0383                     u1330:
  2141  0383                     l1522:
  2142  0383  0830               	movf	_poweredOn,w
  2143  0384  0431               	iorwf	_poweredOn+1,w
  2144  0385  1903               	btfsc	3,2
  2145  0386  2B88               	goto	u1341
  2146  0387  2B89               	goto	u1340
  2147  0388                     u1341:
  2148  0388  2B8F               	goto	l1526
  2149  0389                     u1340:
  2150  0389                     l1524:
  2151  0389  0828               	movf	_gotTheTouch,w
  2152  038A  0429               	iorwf	_gotTheTouch+1,w
  2153  038B  1D03               	btfss	3,2
  2154  038C  2B8E               	goto	u1351
  2155  038D  2B8F               	goto	u1350
  2156  038E                     u1351:
  2157  038E  2B7D               	goto	l1520
  2158  038F                     u1350:
  2159  038F                     l1526:
  2160                           
  2161                           ;main.c: 707:             forceArc = 0;
  2162  038F  01BC               	clrf	_forceArc
  2163  0390  01BD               	clrf	_forceArc+1
  2164                           
  2165                           ;main.c: 708:             for (i = 0; i < sizeof (gargoyles) && gotTheTouch && poweredOn
      +                          ; i++) playNote(gargoyles[i][0], gargoyles[i][1]);
  2166  0391  01FA               	clrf	_i
  2167  0392  01FB               	clrf	_i+1
  2168  0393  2BBB               	goto	l1532
  2169  0394                     l1528:
  2170  0394  087B               	movf	_i+1,w
  2171  0395  0085               	movwf	5
  2172  0396  087A               	movf	_i,w
  2173  0397  0084               	movwf	4
  2174  0398  3584               	lslf	4,f
  2175  0399  0D85               	rlf	5,f
  2176  039A  3584               	lslf	4,f
  2177  039B  0D85               	rlf	5,f
  2178  039C  3035               	movlw	low (_gargoyles| (0+32768))
  2179  039D  0784               	addwf	4,f
  2180  039E  3081               	movlw	high (_gargoyles| (0+32768))
  2181  039F  3D85               	addwfc	5,f
  2182  03A0  3F00               	moviw [0]fsr0
  2183  03A1  00F1               	movwf	playNote@note
  2184  03A2  3F01               	moviw [1]fsr0
  2185  03A3  00F2               	movwf	playNote@note+1
  2186  03A4  087B               	movf	_i+1,w
  2187  03A5  0085               	movwf	5
  2188  03A6  087A               	movf	_i,w
  2189  03A7  0084               	movwf	4
  2190  03A8  3584               	lslf	4,f
  2191  03A9  0D85               	rlf	5,f
  2192  03AA  3584               	lslf	4,f
  2193  03AB  0D85               	rlf	5,f
  2194  03AC  3037               	movlw	low ((_gargoyles+2)| (0+32768))
  2195  03AD  0784               	addwf	4,f
  2196  03AE  3081               	movlw	high ((_gargoyles+2)| (0+32768))
  2197  03AF  3D85               	addwfc	5,f
  2198  03B0  3F00               	moviw [0]fsr0
  2199  03B1  00F3               	movwf	playNote@duration
  2200  03B2  3F01               	moviw [1]fsr0
  2201  03B3  00F4               	movwf	playNote@duration+1
  2202  03B4  3187  2741  3182   	fcall	_playNote
  2203  03B7                     l1530:
  2204  03B7  3001               	movlw	1
  2205  03B8  07FA               	addwf	_i,f
  2206  03B9  3000               	movlw	0
  2207  03BA  3DFB               	addwfc	_i+1,f
  2208  03BB                     l1532:
  2209  03BB  3001               	movlw	1
  2210  03BC  027B               	subwf	_i+1,w
  2211  03BD  30C0               	movlw	192
  2212  03BE  1903               	skipnz
  2213  03BF  027A               	subwf	_i,w
  2214  03C0  1803               	skipnc
  2215  03C1  2BC3               	goto	u1361
  2216  03C2  2BC4               	goto	u1360
  2217  03C3                     u1361:
  2218  03C3  2BE5               	goto	l1542
  2219  03C4                     u1360:
  2220  03C4                     l1534:
  2221  03C4  0140               	movlb	0	; select bank0
  2222  03C5  0828               	movf	_gotTheTouch,w
  2223  03C6  0429               	iorwf	_gotTheTouch+1,w
  2224  03C7  1903               	btfsc	3,2
  2225  03C8  2BCA               	goto	u1371
  2226  03C9  2BCB               	goto	u1370
  2227  03CA                     u1371:
  2228  03CA  2BE5               	goto	l1542
  2229  03CB                     u1370:
  2230  03CB                     l1536:
  2231  03CB  0830               	movf	_poweredOn,w
  2232  03CC  0431               	iorwf	_poweredOn+1,w
  2233  03CD  1D03               	btfss	3,2
  2234  03CE  2BD0               	goto	u1381
  2235  03CF  2BD1               	goto	u1380
  2236  03D0                     u1381:
  2237  03D0  2B94               	goto	l1528
  2238  03D1                     u1380:
  2239  03D1  2BE5               	goto	l1542
  2240  03D2                     l1540:
  2241  03D2  083F               	movf	_runIndex,w
  2242  03D3  00F5               	movwf	??_doTheArc
  2243  03D4  01F6               	clrf	??_doTheArc+1
  2244                           
  2245                           ; Switch on 2 bytes has been partitioned into a top level switch of size 1, and 1 sub-sw
      +                          itches
  2246                           ; Switch size 1, requested type "simple"
  2247                           ; Number of cases is 1, Range of values is 0 to 0
  2248                           ; switch strategies available:
  2249                           ; Name         Instructions Cycles
  2250                           ; simple_byte            4     3 (average)
  2251                           ; direct_byte            8     6 (fixed)
  2252                           ; jumptable            260     6 (fixed)
  2253                           ;	Chosen strategy is simple_byte
  2254  03D5  0876               	movf	??_doTheArc+1,w
  2255  03D6  3A00               	xorlw	0	; case 0
  2256  03D7  1903               	skipnz
  2257  03D8  2BDA               	goto	l2020
  2258  03D9  2BE5               	goto	l1542
  2259  03DA                     l2020:
  2260                           
  2261                           ; Switch size 1, requested type "simple"
  2262                           ; Number of cases is 3, Range of values is 1 to 3
  2263                           ; switch strategies available:
  2264                           ; Name         Instructions Cycles
  2265                           ; simple_byte           10     6 (average)
  2266                           ; direct_byte           15     9 (fixed)
  2267                           ; jumptable            263     9 (fixed)
  2268                           ;	Chosen strategy is simple_byte
  2269  03DA  0875               	movf	??_doTheArc,w
  2270  03DB  3A01               	xorlw	1	; case 1
  2271  03DC  1903               	skipnz
  2272  03DD  2B07               	goto	l242
  2273  03DE  3A03               	xorlw	3	; case 2
  2274  03DF  1903               	skipnz
  2275  03E0  2B18               	goto	l249
  2276  03E1  3A01               	xorlw	1	; case 3
  2277  03E2  1903               	skipnz
  2278  03E3  2B75               	goto	l260
  2279  03E4  2BE5               	goto	l1542
  2280  03E5                     l1542:
  2281                           
  2282                           ;main.c: 715:     forceArc = 0;
  2283  03E5  0140               	movlb	0	; select bank0
  2284  03E6  01BC               	clrf	_forceArc
  2285  03E7  01BD               	clrf	_forceArc+1
  2286                           
  2287                           ;main.c: 716:     gotTheTouch = 0;
  2288  03E8  01A8               	clrf	_gotTheTouch
  2289  03E9  01A9               	clrf	_gotTheTouch+1
  2290  03EA                     l1544:
  2291                           
  2292                           ;main.c: 718:     LATA1 = 1;
  2293  03EA  1498               	bsf	24,1	;volatile
  2294  03EB                     l1546:
  2295                           
  2296                           ;main.c: 719:     LATA2 = 1;
  2297  03EB  1518               	bsf	24,2	;volatile
  2298  03EC                     l1548:
  2299                           
  2300                           ;main.c: 720:     LATC0 = 1;
  2301  03EC  141A               	bsf	26,0	;volatile
  2302  03ED                     l1550:
  2303                           
  2304                           ;main.c: 721:     LATC1 = 1;
  2305  03ED  149A               	bsf	26,1	;volatile
  2306  03EE                     l272:
  2307  03EE  0008               	return
  2308  03EF                     __end_of_doTheArc:
  2309                           
  2310                           	psect	text3
  2311  0741                     __ptext3:	
  2312 ;; *************** function _playNote *****************
  2313 ;; Defined at:
  2314 ;;		line 733 in file "main.c"
  2315 ;; Parameters:    Size  Location     Type
  2316 ;;  note            2    1[COMMON] unsigned int 
  2317 ;;  duration        2    3[COMMON] unsigned int 
  2318 ;; Auto vars:     Size  Location     Type
  2319 ;;		None
  2320 ;; Return value:  Size  Location     Type
  2321 ;;                  1    wreg      void 
  2322 ;; Registers used:
  2323 ;;		wreg, fsr0l, fsr0h, status,2, status,0, pclath
  2324 ;; Tracked objects:
  2325 ;;		On entry : 0/0
  2326 ;;		On exit  : 0/0
  2327 ;;		Unchanged: 0/0
  2328 ;; Data sizes:     COMMON   BANK0   BANK1   BANK2   BANK3   BANK4   BANK5   BANK6
  2329 ;;      Params:         4       0       0       0       0       0       0       0
  2330 ;;      Locals:         0       0       0       0       0       0       0       0
  2331 ;;      Temps:          0       0       0       0       0       0       0       0
  2332 ;;      Totals:         4       0       0       0       0       0       0       0
  2333 ;;Total ram usage:        4 bytes
  2334 ;; Hardware stack levels used: 1
  2335 ;; Hardware stack levels required when called: 1
  2336 ;; This function calls:
  2337 ;;		Nothing
  2338 ;; This function is called by:
  2339 ;;		_doTheArc
  2340 ;;		_goToLPmode
  2341 ;; This function uses a non-reentrant model
  2342 ;;
  2343                           
  2344                           
  2345                           ;psect for function _playNote
  2346  0741                     _playNote:
  2347  0741                     l1360:	
  2348                           ;incstack = 0
  2349                           ; Regs used in _playNote: [wreg-fsr0h+status,2+status,0+pclath]
  2350                           
  2351                           
  2352                           ;main.c: 734:     if (note > 0) {
  2353  0741  0871               	movf	playNote@note,w
  2354  0742  0472               	iorwf	playNote@note+1,w
  2355  0743  1903               	btfsc	3,2
  2356  0744  2F46               	goto	u921
  2357  0745  2F47               	goto	u920
  2358  0746                     u921:
  2359  0746  2F56               	goto	l1366
  2360  0747                     u920:
  2361  0747                     l1362:
  2362                           
  2363                           ;main.c: 735:         noGate = 0;
  2364  0747  0140               	movlb	0	; select bank0
  2365  0748  01E2               	clrf	_noGate
  2366  0749  01E3               	clrf	_noGate+1
  2367  074A                     l1364:
  2368                           
  2369                           ;main.c: 736:         PR2 = notes[note];
  2370  074A  0872               	movf	playNote@note+1,w
  2371  074B  0085               	movwf	5
  2372  074C  0871               	movf	playNote@note,w
  2373  074D  0084               	movwf	4
  2374  074E  309E               	movlw	low (_notes| (0+32768))
  2375  074F  0784               	addwf	4,f
  2376  0750  3087               	movlw	high (_notes| (0+32768))
  2377  0751  3D85               	addwfc	5,f
  2378  0752  0800               	movf	0,w	;code access
  2379  0753  0145               	movlb	5	; select bank5
  2380  0754  008D               	movwf	13	;volatile
  2381                           
  2382                           ;main.c: 737:     } else {
  2383  0755  2F5B               	goto	l282
  2384  0756                     l1366:
  2385                           
  2386                           ;main.c: 738:         noGate = 1;
  2387  0756  3001               	movlw	1
  2388  0757  0140               	movlb	0	; select bank0
  2389  0758  00E2               	movwf	_noGate
  2390  0759  3000               	movlw	0
  2391  075A  00E3               	movwf	_noGate+1
  2392  075B                     l282:	
  2393                           ;main.c: 739:     }
  2394                           
  2395                           
  2396                           ;main.c: 740:     genericDelay = duration;
  2397  075B  0874               	movf	playNote@duration+1,w
  2398  075C  0140               	movlb	0	; select bank0
  2399  075D  00B3               	movwf	_genericDelay+1
  2400  075E  0873               	movf	playNote@duration,w
  2401  075F  00B2               	movwf	_genericDelay
  2402  0760                     l1368:	
  2403                           ;main.c: 741:     while (genericDelay && poweredOn && gotTheTouch);
  2404                           
  2405  0760  0832               	movf	_genericDelay,w
  2406  0761  0433               	iorwf	_genericDelay+1,w
  2407  0762  1903               	btfsc	3,2
  2408  0763  2F65               	goto	u931
  2409  0764  2F66               	goto	u930
  2410  0765                     u931:
  2411  0765  2F72               	goto	l288
  2412  0766                     u930:
  2413  0766                     l1370:
  2414  0766  0830               	movf	_poweredOn,w
  2415  0767  0431               	iorwf	_poweredOn+1,w
  2416  0768  1903               	btfsc	3,2
  2417  0769  2F6B               	goto	u941
  2418  076A  2F6C               	goto	u940
  2419  076B                     u941:
  2420  076B  2F72               	goto	l288
  2421  076C                     u940:
  2422  076C                     l1372:
  2423  076C  0828               	movf	_gotTheTouch,w
  2424  076D  0429               	iorwf	_gotTheTouch+1,w
  2425  076E  1D03               	btfss	3,2
  2426  076F  2F71               	goto	u951
  2427  0770  2F72               	goto	u950
  2428  0771                     u951:
  2429  0771  2F60               	goto	l1368
  2430  0772                     u950:
  2431  0772                     l288:
  2432  0772  0008               	return
  2433  0773                     __end_of_playNote:
  2434                           
  2435                           	psect	text4
  2436  05D0                     __ptext4:	
  2437 ;; *************** function _chargeIndicator *****************
  2438 ;; Defined at:
  2439 ;;		line 776 in file "main.c"
  2440 ;; Parameters:    Size  Location     Type
  2441 ;;		None
  2442 ;; Auto vars:     Size  Location     Type
  2443 ;;		None
  2444 ;; Return value:  Size  Location     Type
  2445 ;;                  1    wreg      void 
  2446 ;; Registers used:
  2447 ;;		wreg, status,2, status,0, pclath, cstack
  2448 ;; Tracked objects:
  2449 ;;		On entry : 0/0
  2450 ;;		On exit  : 0/0
  2451 ;;		Unchanged: 0/0
  2452 ;; Data sizes:     COMMON   BANK0   BANK1   BANK2   BANK3   BANK4   BANK5   BANK6
  2453 ;;      Params:         0       0       0       0       0       0       0       0
  2454 ;;      Locals:         0       4       0       0       0       0       0       0
  2455 ;;      Temps:          0       4       0       0       0       0       0       0
  2456 ;;      Totals:         0       8       0       0       0       0       0       0
  2457 ;;Total ram usage:        8 bytes
  2458 ;; Hardware stack levels used: 1
  2459 ;; Hardware stack levels required when called: 2
  2460 ;; This function calls:
  2461 ;;		___aldiv
  2462 ;;		_blockingDelay
  2463 ;; This function is called by:
  2464 ;;		_main
  2465 ;; This function uses a non-reentrant model
  2466 ;;
  2467                           
  2468                           
  2469                           ;psect for function _chargeIndicator
  2470  05D0                     _chargeIndicator:
  2471  05D0                     l1428:	
  2472                           ;incstack = 0
  2473                           ; Regs used in _chargeIndicator: [wreg+status,2+status,0+pclath+cstack]
  2474                           
  2475                           
  2476                           ;main.c: 778:     if (!debugging) ADCON0bits.ON = 1;
  2477  05D0  0140               	movlb	0	; select bank0
  2478  05D1  0842               	movf	_debugging,w
  2479  05D2  1D03               	btfss	3,2
  2480  05D3  2DD5               	goto	u1071
  2481  05D4  2DD6               	goto	u1070
  2482  05D5                     u1071:
  2483  05D5  2DD8               	goto	l297
  2484  05D6                     u1070:
  2485  05D6                     l1430:
  2486  05D6  0141               	movlb	1	; select bank1
  2487  05D7  141D               	bsf	29,0	;volatile
  2488  05D8                     l297:
  2489                           
  2490                           ;main.c: 784:     ADCON0bits.GO = 1;
  2491  05D8  0141               	movlb	1	; select bank1
  2492  05D9  149D               	bsf	29,1	;volatile
  2493  05DA                     l1432:
  2494                           
  2495                           ;main.c: 785:     if (!debugging) while (ADCON0bits.GO == 1);
  2496  05DA  0140               	movlb	0	; select bank0
  2497  05DB  0842               	movf	_debugging,w
  2498  05DC  1D03               	btfss	3,2
  2499  05DD  2DDF               	goto	u1081
  2500  05DE  2DE0               	goto	u1080
  2501  05DF                     u1081:
  2502  05DF  2DE5               	goto	l1436
  2503  05E0                     u1080:
  2504  05E0                     l299:
  2505  05E0  0141               	movlb	1	; select bank1
  2506  05E1  189D               	btfsc	29,1	;volatile
  2507  05E2  2DE4               	goto	u1091
  2508  05E3  2DE5               	goto	u1090
  2509  05E4                     u1091:
  2510  05E4  2DE0               	goto	l299
  2511  05E5                     u1090:
  2512  05E5                     l1436:
  2513                           
  2514                           ;main.c: 786:     adcVolts = ADRES;
  2515  05E5  0141               	movlb	1	; select bank1
  2516  05E6  081C               	movf	28,w	;volatile
  2517  05E7  0140               	movlb	0	; select bank0
  2518  05E8  00A3               	movwf	_adcVolts+1
  2519  05E9  0141               	movlb	1	; select bank1
  2520  05EA  081B               	movf	27,w	;volatile
  2521  05EB  0140               	movlb	0	; select bank0
  2522  05EC  00A2               	movwf	_adcVolts
  2523  05ED                     l1438:
  2524                           
  2525                           ;main.c: 787:     if (!debugging) battVolts = ((calibrationMV * 1024L) / adcVolts) / 10L
      +                          ;
  2526  05ED  0842               	movf	_debugging,w
  2527  05EE  1D03               	btfss	3,2
  2528  05EF  2DF1               	goto	u1101
  2529  05F0  2DF2               	goto	u1100
  2530  05F1                     u1101:
  2531  05F1  2E31               	goto	l1442
  2532  05F2                     u1100:
  2533  05F2                     l1440:
  2534  05F2  0822               	movf	_adcVolts,w
  2535  05F3  00F1               	movwf	___aldiv@divisor
  2536  05F4  0823               	movf	_adcVolts+1,w
  2537  05F5  00F2               	movwf	___aldiv@divisor+1
  2538  05F6  01F3               	clrf	___aldiv@divisor+2
  2539  05F7  01F4               	clrf	___aldiv@divisor+3
  2540  05F8  0820               	movf	_calibrationMV,w
  2541  05F9  00D5               	movwf	??_chargeIndicator
  2542  05FA  0821               	movf	_calibrationMV+1,w
  2543  05FB  00D6               	movwf	??_chargeIndicator+1
  2544  05FC  01D7               	clrf	??_chargeIndicator+2
  2545  05FD  01D8               	clrf	??_chargeIndicator+3
  2546  05FE  300A               	movlw	10
  2547  05FF                     u1115:
  2548  05FF  35D5               	lslf	??_chargeIndicator,f
  2549  0600  0DD6               	rlf	??_chargeIndicator+1,f
  2550  0601  0DD7               	rlf	??_chargeIndicator+2,f
  2551  0602  0DD8               	rlf	??_chargeIndicator+3,f
  2552  0603                     u1110:
  2553  0603  0B89               	decfsz	9,f
  2554  0604  2DFF               	goto	u1115
  2555  0605  0858               	movf	??_chargeIndicator+3,w
  2556  0606  00F8               	movwf	___aldiv@dividend+3
  2557  0607  0857               	movf	??_chargeIndicator+2,w
  2558  0608  00F7               	movwf	___aldiv@dividend+2
  2559  0609  0856               	movf	??_chargeIndicator+1,w
  2560  060A  00F6               	movwf	___aldiv@dividend+1
  2561  060B  0855               	movf	??_chargeIndicator,w
  2562  060C  00F5               	movwf	___aldiv@dividend
  2563  060D  3186  26B1  3185   	fcall	___aldiv
  2564  0610  0874               	movf	?___aldiv+3,w
  2565  0611  0140               	movlb	0	; select bank0
  2566  0612  00DC               	movwf	_chargeIndicator$1123+3
  2567  0613  0873               	movf	?___aldiv+2,w
  2568  0614  00DB               	movwf	_chargeIndicator$1123+2
  2569  0615  0872               	movf	?___aldiv+1,w
  2570  0616  00DA               	movwf	_chargeIndicator$1123+1
  2571  0617  0871               	movf	?___aldiv,w
  2572  0618  00D9               	movwf	_chargeIndicator$1123
  2573  0619  3000               	movlw	0
  2574  061A  00F4               	movwf	___aldiv@divisor+3
  2575  061B  3000               	movlw	0
  2576  061C  00F3               	movwf	___aldiv@divisor+2
  2577  061D  3000               	movlw	0
  2578  061E  00F2               	movwf	___aldiv@divisor+1
  2579  061F  300A               	movlw	10
  2580  0620  00F1               	movwf	___aldiv@divisor
  2581  0621  085C               	movf	_chargeIndicator$1123+3,w
  2582  0622  00F8               	movwf	___aldiv@dividend+3
  2583  0623  085B               	movf	_chargeIndicator$1123+2,w
  2584  0624  00F7               	movwf	___aldiv@dividend+2
  2585  0625  085A               	movf	_chargeIndicator$1123+1,w
  2586  0626  00F6               	movwf	___aldiv@dividend+1
  2587  0627  0859               	movf	_chargeIndicator$1123,w
  2588  0628  00F5               	movwf	___aldiv@dividend
  2589  0629  3186  26B1  3185   	fcall	___aldiv
  2590  062C  0872               	movf	?___aldiv+1,w
  2591  062D  0140               	movlb	0	; select bank0
  2592  062E  00A5               	movwf	_battVolts+1
  2593  062F  0871               	movf	?___aldiv,w
  2594  0630  00A4               	movwf	_battVolts
  2595  0631                     l1442:
  2596                           
  2597                           ;main.c: 789:     if (battVolts > 415) {
  2598  0631  3001               	movlw	1
  2599  0632  0225               	subwf	_battVolts+1,w
  2600  0633  30A0               	movlw	160
  2601  0634  1903               	skipnz
  2602  0635  0224               	subwf	_battVolts,w
  2603  0636  1C03               	skipc
  2604  0637  2E39               	goto	u1121
  2605  0638  2E3A               	goto	u1120
  2606  0639                     u1121:
  2607  0639  2E3F               	goto	l1446
  2608  063A                     u1120:
  2609  063A                     l1444:
  2610                           
  2611                           ;main.c: 792:         LATA1 = 0;
  2612  063A  1098               	bcf	24,1	;volatile
  2613                           
  2614                           ;main.c: 793:         LATA2 = 0;
  2615  063B  1118               	bcf	24,2	;volatile
  2616                           
  2617                           ;main.c: 794:         LATC0 = 0;
  2618  063C  101A               	bcf	26,0	;volatile
  2619                           
  2620                           ;main.c: 795:         LATC1 = 0;
  2621  063D  109A               	bcf	26,1	;volatile
  2622                           
  2623                           ;main.c: 796:     } else if (battVolts > 398) {
  2624  063E  2E9A               	goto	l1480
  2625  063F                     l1446:
  2626  063F  3001               	movlw	1
  2627  0640  0225               	subwf	_battVolts+1,w
  2628  0641  308F               	movlw	143
  2629  0642  1903               	skipnz
  2630  0643  0224               	subwf	_battVolts,w
  2631  0644  1C03               	skipc
  2632  0645  2E47               	goto	u1131
  2633  0646  2E48               	goto	u1130
  2634  0647                     u1131:
  2635  0647  2E5A               	goto	l1456
  2636  0648                     u1130:
  2637  0648                     l1448:
  2638                           
  2639                           ;main.c: 799:         LATA1 = 0;
  2640  0648  1098               	bcf	24,1	;volatile
  2641                           
  2642                           ;main.c: 800:         LATA2 = 0;
  2643  0649  1118               	bcf	24,2	;volatile
  2644                           
  2645                           ;main.c: 801:         LATC0 = 0;
  2646  064A  101A               	bcf	26,0	;volatile
  2647  064B                     l1450:
  2648                           
  2649                           ;main.c: 802:         if (charging) {
  2650  064B  0826               	movf	_charging,w
  2651  064C  0427               	iorwf	_charging+1,w
  2652  064D  1903               	btfsc	3,2
  2653  064E  2E50               	goto	u1141
  2654  064F  2E51               	goto	u1140
  2655  0650                     u1141:
  2656  0650  2E9A               	goto	l1480
  2657  0651                     u1140:
  2658  0651                     l1452:
  2659                           
  2660                           ;main.c: 803:             if (chargeCycle) LATC1 = 0;
  2661  0651  083E               	movf	_chargeCycle,w
  2662  0652  1903               	btfsc	3,2
  2663  0653  2E55               	goto	u1151
  2664  0654  2E56               	goto	u1150
  2665  0655                     u1151:
  2666  0655  2E58               	goto	l307
  2667  0656                     u1150:
  2668  0656                     l1454:
  2669  0656  109A               	bcf	26,1	;volatile
  2670  0657  2E9A               	goto	l1480
  2671  0658                     l307:	
  2672                           ;main.c: 804:             else LATC1 = 1;
  2673                           
  2674  0658  149A               	bsf	26,1	;volatile
  2675  0659  2E9A               	goto	l1480
  2676  065A                     l1456:
  2677  065A  3001               	movlw	1
  2678  065B  0225               	subwf	_battVolts+1,w
  2679  065C  3081               	movlw	129
  2680  065D  1903               	skipnz
  2681  065E  0224               	subwf	_battVolts,w
  2682  065F  1C03               	skipc
  2683  0660  2E62               	goto	u1161
  2684  0661  2E63               	goto	u1160
  2685  0662                     u1161:
  2686  0662  2E74               	goto	l1466
  2687  0663                     u1160:
  2688  0663                     l1458:
  2689                           
  2690                           ;main.c: 809:         LATA1 = 0;
  2691  0663  1098               	bcf	24,1	;volatile
  2692                           
  2693                           ;main.c: 810:         LATA2 = 0;
  2694  0664  1118               	bcf	24,2	;volatile
  2695  0665                     l1460:
  2696                           
  2697                           ;main.c: 811:         if (charging) {
  2698  0665  0826               	movf	_charging,w
  2699  0666  0427               	iorwf	_charging+1,w
  2700  0667  1903               	btfsc	3,2
  2701  0668  2E6A               	goto	u1171
  2702  0669  2E6B               	goto	u1170
  2703  066A                     u1171:
  2704  066A  2E58               	goto	l307
  2705  066B                     u1170:
  2706  066B                     l1462:
  2707                           
  2708                           ;main.c: 812:             if (chargeCycle) LATC0 = 0;
  2709  066B  083E               	movf	_chargeCycle,w
  2710  066C  1903               	btfsc	3,2
  2711  066D  2E6F               	goto	u1181
  2712  066E  2E70               	goto	u1180
  2713  066F                     u1181:
  2714  066F  2E72               	goto	l312
  2715  0670                     u1180:
  2716  0670                     l1464:
  2717  0670  101A               	bcf	26,0	;volatile
  2718  0671  2E58               	goto	l307
  2719  0672                     l312:	
  2720                           ;main.c: 813:             else LATC0 = 1;
  2721                           
  2722  0672  141A               	bsf	26,0	;volatile
  2723  0673  2E58               	goto	l307
  2724  0674                     l1466:
  2725  0674  3001               	movlw	1
  2726  0675  0225               	subwf	_battVolts+1,w
  2727  0676  3078               	movlw	120
  2728  0677  1903               	skipnz
  2729  0678  0224               	subwf	_battVolts,w
  2730  0679  1C03               	skipc
  2731  067A  2E7C               	goto	u1191
  2732  067B  2E7D               	goto	u1190
  2733  067C                     u1191:
  2734  067C  2E8F               	goto	l1476
  2735  067D                     u1190:
  2736  067D                     l1468:
  2737                           
  2738                           ;main.c: 819:         LATA1 = 0;
  2739  067D  1098               	bcf	24,1	;volatile
  2740  067E                     l1470:
  2741                           
  2742                           ;main.c: 820:         if (charging) {
  2743  067E  0826               	movf	_charging,w
  2744  067F  0427               	iorwf	_charging+1,w
  2745  0680  1903               	btfsc	3,2
  2746  0681  2E83               	goto	u1201
  2747  0682  2E84               	goto	u1200
  2748  0683                     u1201:
  2749  0683  2E8C               	goto	l316
  2750  0684                     u1200:
  2751  0684                     l1472:
  2752                           
  2753                           ;main.c: 821:             if (chargeCycle) LATA2 = 0;
  2754  0684  083E               	movf	_chargeCycle,w
  2755  0685  1903               	btfsc	3,2
  2756  0686  2E88               	goto	u1211
  2757  0687  2E89               	goto	u1210
  2758  0688                     u1211:
  2759  0688  2E8B               	goto	l317
  2760  0689                     u1210:
  2761  0689                     l1474:
  2762  0689  1118               	bcf	24,2	;volatile
  2763  068A  2E8C               	goto	l316
  2764  068B                     l317:	
  2765                           ;main.c: 822:             else LATA2 = 1;
  2766                           
  2767  068B  1518               	bsf	24,2	;volatile
  2768  068C                     l316:	
  2769                           ;main.c: 823:         }
  2770                           
  2771                           
  2772                           ;main.c: 824:         LATC0 = 1;
  2773  068C  141A               	bsf	26,0	;volatile
  2774                           
  2775                           ;main.c: 825:         LATC1 = 1;
  2776  068D  149A               	bsf	26,1	;volatile
  2777                           
  2778                           ;main.c: 826:     } else {
  2779  068E  2E9A               	goto	l1480
  2780  068F                     l1476:
  2781                           
  2782                           ;main.c: 828:         if (chargeCycle) LATA1 = 0;
  2783  068F  083E               	movf	_chargeCycle,w
  2784  0690  1903               	btfsc	3,2
  2785  0691  2E93               	goto	u1221
  2786  0692  2E94               	goto	u1220
  2787  0693                     u1221:
  2788  0693  2E96               	goto	l320
  2789  0694                     u1220:
  2790  0694                     l1478:
  2791  0694  1098               	bcf	24,1	;volatile
  2792  0695  2E97               	goto	l321
  2793  0696                     l320:	
  2794                           ;main.c: 829:         else LATA1 = 1;
  2795                           
  2796  0696  1498               	bsf	24,1	;volatile
  2797  0697                     l321:
  2798                           
  2799                           ;main.c: 830:         LATA2 = 1;
  2800  0697  1518               	bsf	24,2	;volatile
  2801                           
  2802                           ;main.c: 831:         LATC0 = 1;
  2803  0698  141A               	bsf	26,0	;volatile
  2804                           
  2805                           ;main.c: 832:         LATC1 = 1;
  2806  0699  149A               	bsf	26,1	;volatile
  2807  069A                     l1480:
  2808                           
  2809                           ;main.c: 834:     if (charging) {
  2810  069A  0826               	movf	_charging,w
  2811  069B  0427               	iorwf	_charging+1,w
  2812  069C  1903               	btfsc	3,2
  2813  069D  2E9F               	goto	u1231
  2814  069E  2EA0               	goto	u1230
  2815  069F                     u1231:
  2816  069F  2EAC               	goto	l322
  2817  06A0                     u1230:
  2818  06A0                     l1482:
  2819                           
  2820                           ;main.c: 835:         chargeCycle ^= 1;
  2821  06A0  3001               	movlw	1
  2822  06A1  00D5               	movwf	??_chargeIndicator
  2823  06A2  0855               	movf	??_chargeIndicator,w
  2824  06A3  06BE               	xorwf	_chargeCycle,f
  2825  06A4                     l1484:
  2826                           
  2827                           ;main.c: 837:         blockingDelay(500);
  2828  06A4  30F4               	movlw	244
  2829  06A5  00F1               	movwf	blockingDelay@mSecs
  2830  06A6  3001               	movlw	1
  2831  06A7  00F2               	movwf	blockingDelay@mSecs+1
  2832  06A8  3187  27D8  3185   	fcall	_blockingDelay
  2833                           
  2834                           ;main.c: 839:     }
  2835  06AB  2EB0               	goto	l324
  2836  06AC                     l322:	
  2837                           ;main.c: 840:     else {
  2838                           
  2839                           
  2840                           ;main.c: 842:         LATA1 = 1;
  2841  06AC  1498               	bsf	24,1	;volatile
  2842                           
  2843                           ;main.c: 843:         LATA2 = 1;
  2844  06AD  1518               	bsf	24,2	;volatile
  2845                           
  2846                           ;main.c: 844:         LATC0 = 1;
  2847  06AE  141A               	bsf	26,0	;volatile
  2848                           
  2849                           ;main.c: 845:         LATC1 = 1;
  2850  06AF  149A               	bsf	26,1	;volatile
  2851  06B0                     l324:
  2852  06B0  0008               	return
  2853  06B1                     __end_of_chargeIndicator:
  2854                           
  2855                           	psect	text5
  2856  07D8                     __ptext5:	
  2857 ;; *************** function _blockingDelay *****************
  2858 ;; Defined at:
  2859 ;;		line 726 in file "main.c"
  2860 ;; Parameters:    Size  Location     Type
  2861 ;;  mSecs           2    1[COMMON] unsigned int 
  2862 ;; Auto vars:     Size  Location     Type
  2863 ;;		None
  2864 ;; Return value:  Size  Location     Type
  2865 ;;                  1    wreg      void 
  2866 ;; Registers used:
  2867 ;;		wreg, status,2, status,0
  2868 ;; Tracked objects:
  2869 ;;		On entry : 0/0
  2870 ;;		On exit  : 0/0
  2871 ;;		Unchanged: 0/0
  2872 ;; Data sizes:     COMMON   BANK0   BANK1   BANK2   BANK3   BANK4   BANK5   BANK6
  2873 ;;      Params:         2       0       0       0       0       0       0       0
  2874 ;;      Locals:         0       0       0       0       0       0       0       0
  2875 ;;      Temps:          0       0       0       0       0       0       0       0
  2876 ;;      Totals:         2       0       0       0       0       0       0       0
  2877 ;;Total ram usage:        2 bytes
  2878 ;; Hardware stack levels used: 1
  2879 ;; Hardware stack levels required when called: 1
  2880 ;; This function calls:
  2881 ;;		Nothing
  2882 ;; This function is called by:
  2883 ;;		_main
  2884 ;;		_chargeIndicator
  2885 ;; This function uses a non-reentrant model
  2886 ;;
  2887                           
  2888                           
  2889                           ;psect for function _blockingDelay
  2890  07D8                     _blockingDelay:
  2891  07D8                     l1356:	
  2892                           ;incstack = 0
  2893                           ; Regs used in _blockingDelay: [wreg+status,2+status,0]
  2894                           
  2895                           
  2896                           ;main.c: 727:     genericDelay = mSecs;
  2897  07D8  0872               	movf	blockingDelay@mSecs+1,w
  2898  07D9  0140               	movlb	0	; select bank0
  2899  07DA  00B3               	movwf	_genericDelay+1
  2900  07DB  0871               	movf	blockingDelay@mSecs,w
  2901  07DC  00B2               	movwf	_genericDelay
  2902  07DD                     l1358:	
  2903                           ;main.c: 728:     while (genericDelay > 0);
  2904                           
  2905  07DD  0832               	movf	_genericDelay,w
  2906  07DE  0433               	iorwf	_genericDelay+1,w
  2907  07DF  1D03               	btfss	3,2
  2908  07E0  2FE2               	goto	u911
  2909  07E1  2FE3               	goto	u910
  2910  07E2                     u911:
  2911  07E2  2FDD               	goto	l1358
  2912  07E3                     u910:
  2913  07E3                     l278:
  2914  07E3  0008               	return
  2915  07E4                     __end_of_blockingDelay:
  2916                           
  2917                           	psect	text6
  2918  06B1                     __ptext6:	
  2919 ;; *************** function ___aldiv *****************
  2920 ;; Defined at:
  2921 ;;		line 5 in file "C:\Program Files\Microchip\xc8\v2.32\pic\sources\c99\common\aldiv.c"
  2922 ;; Parameters:    Size  Location     Type
  2923 ;;  divisor         4    1[COMMON] long 
  2924 ;;  dividend        4    5[COMMON] long 
  2925 ;; Auto vars:     Size  Location     Type
  2926 ;;  quotient        4    2[BANK0 ] long 
  2927 ;;  sign            1    1[BANK0 ] unsigned char 
  2928 ;;  counter         1    0[BANK0 ] unsigned char 
  2929 ;; Return value:  Size  Location     Type
  2930 ;;                  4    1[COMMON] long 
  2931 ;; Registers used:
  2932 ;;		wreg, status,2, status,0
  2933 ;; Tracked objects:
  2934 ;;		On entry : 0/0
  2935 ;;		On exit  : 0/0
  2936 ;;		Unchanged: 0/0
  2937 ;; Data sizes:     COMMON   BANK0   BANK1   BANK2   BANK3   BANK4   BANK5   BANK6
  2938 ;;      Params:         8       0       0       0       0       0       0       0
  2939 ;;      Locals:         0       6       0       0       0       0       0       0
  2940 ;;      Temps:          1       0       0       0       0       0       0       0
  2941 ;;      Totals:         9       6       0       0       0       0       0       0
  2942 ;;Total ram usage:       15 bytes
  2943 ;; Hardware stack levels used: 1
  2944 ;; Hardware stack levels required when called: 1
  2945 ;; This function calls:
  2946 ;;		Nothing
  2947 ;; This function is called by:
  2948 ;;		_chargeIndicator
  2949 ;; This function uses a non-reentrant model
  2950 ;;
  2951                           
  2952                           
  2953                           ;psect for function ___aldiv
  2954  06B1                     ___aldiv:
  2955  06B1                     l1374:	
  2956                           ;incstack = 0
  2957                           ; Regs used in ___aldiv: [wreg+status,2+status,0]
  2958                           
  2959  06B1  0140               	movlb	0	; select bank0
  2960  06B2  01D0               	clrf	___aldiv@sign
  2961  06B3                     l1376:
  2962  06B3  1FF4               	btfss	___aldiv@divisor+3,7
  2963  06B4  2EB6               	goto	u961
  2964  06B5  2EB7               	goto	u960
  2965  06B6                     u961:
  2966  06B6  2EC4               	goto	l477
  2967  06B7                     u960:
  2968  06B7                     l1378:
  2969  06B7  09F1               	comf	___aldiv@divisor,f
  2970  06B8  09F2               	comf	___aldiv@divisor+1,f
  2971  06B9  09F3               	comf	___aldiv@divisor+2,f
  2972  06BA  09F4               	comf	___aldiv@divisor+3,f
  2973  06BB  0AF1               	incf	___aldiv@divisor,f
  2974  06BC  1903               	skipnz
  2975  06BD  0AF2               	incf	___aldiv@divisor+1,f
  2976  06BE  1903               	skipnz
  2977  06BF  0AF3               	incf	___aldiv@divisor+2,f
  2978  06C0  1903               	skipnz
  2979  06C1  0AF4               	incf	___aldiv@divisor+3,f
  2980  06C2  01D0               	clrf	___aldiv@sign
  2981  06C3  0AD0               	incf	___aldiv@sign,f
  2982  06C4                     l477:
  2983  06C4  1FF8               	btfss	___aldiv@dividend+3,7
  2984  06C5  2EC7               	goto	u971
  2985  06C6  2EC8               	goto	u970
  2986  06C7                     u971:
  2987  06C7  2ED7               	goto	l1384
  2988  06C8                     u970:
  2989  06C8                     l1380:
  2990  06C8  09F5               	comf	___aldiv@dividend,f
  2991  06C9  09F6               	comf	___aldiv@dividend+1,f
  2992  06CA  09F7               	comf	___aldiv@dividend+2,f
  2993  06CB  09F8               	comf	___aldiv@dividend+3,f
  2994  06CC  0AF5               	incf	___aldiv@dividend,f
  2995  06CD  1903               	skipnz
  2996  06CE  0AF6               	incf	___aldiv@dividend+1,f
  2997  06CF  1903               	skipnz
  2998  06D0  0AF7               	incf	___aldiv@dividend+2,f
  2999  06D1  1903               	skipnz
  3000  06D2  0AF8               	incf	___aldiv@dividend+3,f
  3001  06D3                     l1382:
  3002  06D3  3001               	movlw	1
  3003  06D4  00F9               	movwf	??___aldiv
  3004  06D5  0879               	movf	??___aldiv,w
  3005  06D6  06D0               	xorwf	___aldiv@sign,f
  3006  06D7                     l1384:
  3007  06D7  3000               	movlw	0
  3008  06D8  00D4               	movwf	___aldiv@quotient+3
  3009  06D9  3000               	movlw	0
  3010  06DA  00D3               	movwf	___aldiv@quotient+2
  3011  06DB  3000               	movlw	0
  3012  06DC  00D2               	movwf	___aldiv@quotient+1
  3013  06DD  3000               	movlw	0
  3014  06DE  00D1               	movwf	___aldiv@quotient
  3015  06DF                     l1386:
  3016  06DF  0874               	movf	___aldiv@divisor+3,w
  3017  06E0  0473               	iorwf	___aldiv@divisor+2,w
  3018  06E1  0472               	iorwf	___aldiv@divisor+1,w
  3019  06E2  0471               	iorwf	___aldiv@divisor,w
  3020  06E3  1903               	skipnz
  3021  06E4  2EE6               	goto	u981
  3022  06E5  2EE7               	goto	u980
  3023  06E6                     u981:
  3024  06E6  2F28               	goto	l1406
  3025  06E7                     u980:
  3026  06E7                     l1388:
  3027  06E7  01CF               	clrf	___aldiv@counter
  3028  06E8  0ACF               	incf	___aldiv@counter,f
  3029  06E9  2EF5               	goto	l1392
  3030  06EA                     l1390:
  3031  06EA  3001               	movlw	1
  3032  06EB                     u995:
  3033  06EB  35F1               	lslf	___aldiv@divisor,f
  3034  06EC  0DF2               	rlf	___aldiv@divisor+1,f
  3035  06ED  0DF3               	rlf	___aldiv@divisor+2,f
  3036  06EE  0DF4               	rlf	___aldiv@divisor+3,f
  3037  06EF  0B89               	decfsz	9,f
  3038  06F0  2EEB               	goto	u995
  3039  06F1  3001               	movlw	1
  3040  06F2  00F9               	movwf	??___aldiv
  3041  06F3  0879               	movf	??___aldiv,w
  3042  06F4  07CF               	addwf	___aldiv@counter,f
  3043  06F5                     l1392:
  3044  06F5  1FF4               	btfss	___aldiv@divisor+3,7
  3045  06F6  2EF8               	goto	u1001
  3046  06F7  2EF9               	goto	u1000
  3047  06F8                     u1001:
  3048  06F8  2EEA               	goto	l1390
  3049  06F9                     u1000:
  3050  06F9                     l1394:
  3051  06F9  3001               	movlw	1
  3052  06FA                     u1015:
  3053  06FA  35D1               	lslf	___aldiv@quotient,f
  3054  06FB  0DD2               	rlf	___aldiv@quotient+1,f
  3055  06FC  0DD3               	rlf	___aldiv@quotient+2,f
  3056  06FD  0DD4               	rlf	___aldiv@quotient+3,f
  3057  06FE  0B89               	decfsz	9,f
  3058  06FF  2EFA               	goto	u1015
  3059  0700                     l1396:
  3060  0700  0874               	movf	___aldiv@divisor+3,w
  3061  0701  0278               	subwf	___aldiv@dividend+3,w
  3062  0702  1D03               	skipz
  3063  0703  2F0E               	goto	u1025
  3064  0704  0873               	movf	___aldiv@divisor+2,w
  3065  0705  0277               	subwf	___aldiv@dividend+2,w
  3066  0706  1D03               	skipz
  3067  0707  2F0E               	goto	u1025
  3068  0708  0872               	movf	___aldiv@divisor+1,w
  3069  0709  0276               	subwf	___aldiv@dividend+1,w
  3070  070A  1D03               	skipz
  3071  070B  2F0E               	goto	u1025
  3072  070C  0871               	movf	___aldiv@divisor,w
  3073  070D  0275               	subwf	___aldiv@dividend,w
  3074  070E                     u1025:
  3075  070E  1C03               	skipc
  3076  070F  2F11               	goto	u1021
  3077  0710  2F12               	goto	u1020
  3078  0711                     u1021:
  3079  0711  2F1B               	goto	l1402
  3080  0712                     u1020:
  3081  0712                     l1398:
  3082  0712  0871               	movf	___aldiv@divisor,w
  3083  0713  02F5               	subwf	___aldiv@dividend,f
  3084  0714  0872               	movf	___aldiv@divisor+1,w
  3085  0715  3BF6               	subwfb	___aldiv@dividend+1,f
  3086  0716  0873               	movf	___aldiv@divisor+2,w
  3087  0717  3BF7               	subwfb	___aldiv@dividend+2,f
  3088  0718  0874               	movf	___aldiv@divisor+3,w
  3089  0719  3BF8               	subwfb	___aldiv@dividend+3,f
  3090  071A                     l1400:
  3091  071A  1451               	bsf	___aldiv@quotient,0
  3092  071B                     l1402:
  3093  071B  3001               	movlw	1
  3094  071C                     u1035:
  3095  071C  36F4               	lsrf	___aldiv@divisor+3,f
  3096  071D  0CF3               	rrf	___aldiv@divisor+2,f
  3097  071E  0CF2               	rrf	___aldiv@divisor+1,f
  3098  071F  0CF1               	rrf	___aldiv@divisor,f
  3099  0720  0B89               	decfsz	9,f
  3100  0721  2F1C               	goto	u1035
  3101  0722                     l1404:
  3102  0722  3001               	movlw	1
  3103  0723  02CF               	subwf	___aldiv@counter,f
  3104  0724  1D03               	btfss	3,2
  3105  0725  2F27               	goto	u1041
  3106  0726  2F28               	goto	u1040
  3107  0727                     u1041:
  3108  0727  2EF9               	goto	l1394
  3109  0728                     u1040:
  3110  0728                     l1406:
  3111  0728  0850               	movf	___aldiv@sign,w
  3112  0729  1903               	btfsc	3,2
  3113  072A  2F2C               	goto	u1051
  3114  072B  2F2D               	goto	u1050
  3115  072C                     u1051:
  3116  072C  2F38               	goto	l1410
  3117  072D                     u1050:
  3118  072D                     l1408:
  3119  072D  09D1               	comf	___aldiv@quotient,f
  3120  072E  09D2               	comf	___aldiv@quotient+1,f
  3121  072F  09D3               	comf	___aldiv@quotient+2,f
  3122  0730  09D4               	comf	___aldiv@quotient+3,f
  3123  0731  0AD1               	incf	___aldiv@quotient,f
  3124  0732  1903               	skipnz
  3125  0733  0AD2               	incf	___aldiv@quotient+1,f
  3126  0734  1903               	skipnz
  3127  0735  0AD3               	incf	___aldiv@quotient+2,f
  3128  0736  1903               	skipnz
  3129  0737  0AD4               	incf	___aldiv@quotient+3,f
  3130  0738                     l1410:
  3131  0738  0854               	movf	___aldiv@quotient+3,w
  3132  0739  00F4               	movwf	?___aldiv+3
  3133  073A  0853               	movf	___aldiv@quotient+2,w
  3134  073B  00F3               	movwf	?___aldiv+2
  3135  073C  0852               	movf	___aldiv@quotient+1,w
  3136  073D  00F2               	movwf	?___aldiv+1
  3137  073E  0851               	movf	___aldiv@quotient,w
  3138  073F  00F1               	movwf	?___aldiv
  3139  0740                     l487:
  3140  0740  0008               	return
  3141  0741                     __end_of___aldiv:
  3142                           
  3143                           	psect	text7
  3144  0773                     __ptext7:	
  3145 ;; *************** function _ButtonDebounceInit *****************
  3146 ;; Defined at:
  3147 ;;		line 56 in file "source/button_debounce.c"
  3148 ;; Parameters:    Size  Location     Type
  3149 ;;  port            1    wreg     PTR struct .
  3150 ;;		 -> aPorts(12), 
  3151 ;;  pulledUpButt    1    1[COMMON] unsigned char 
  3152 ;; Auto vars:     Size  Location     Type
  3153 ;;  port            1    4[COMMON] PTR struct .
  3154 ;;		 -> aPorts(12), 
  3155 ;;  i               1    3[COMMON] unsigned char 
  3156 ;; Return value:  Size  Location     Type
  3157 ;;                  1    wreg      void 
  3158 ;; Registers used:
  3159 ;;		wreg, fsr1l, fsr1h, status,2, status,0
  3160 ;; Tracked objects:
  3161 ;;		On entry : 0/0
  3162 ;;		On exit  : 0/0
  3163 ;;		Unchanged: 0/0
  3164 ;; Data sizes:     COMMON   BANK0   BANK1   BANK2   BANK3   BANK4   BANK5   BANK6
  3165 ;;      Params:         1       0       0       0       0       0       0       0
  3166 ;;      Locals:         2       0       0       0       0       0       0       0
  3167 ;;      Temps:          1       0       0       0       0       0       0       0
  3168 ;;      Totals:         4       0       0       0       0       0       0       0
  3169 ;;Total ram usage:        4 bytes
  3170 ;; Hardware stack levels used: 1
  3171 ;; Hardware stack levels required when called: 1
  3172 ;; This function calls:
  3173 ;;		Nothing
  3174 ;; This function is called by:
  3175 ;;		_main
  3176 ;; This function uses a non-reentrant model
  3177 ;;
  3178                           
  3179                           
  3180                           ;psect for function _ButtonDebounceInit
  3181  0773                     _ButtonDebounceInit:
  3182                           
  3183                           ;incstack = 0
  3184                           ; Regs used in _ButtonDebounceInit: [wreg+fsr1l+fsr1h+status,2+status,0]
  3185                           ;ButtonDebounceInit@port stored from wreg
  3186  0773  00F4               	movwf	ButtonDebounceInit@port
  3187  0774                     l1414:
  3188                           
  3189                           ;source/button_debounce.c: 56: ButtonDebounceInit(Debouncer *port, uint8_t pulledUpButto
      +                          ns);source/button_debounce.c: 57: {;source/button_debounce.c: 58:     uint8_t i;;source/
      +                          button_debounce.c: 60:     port->index = 0;
  3190  0774  0874               	movf	ButtonDebounceInit@port,w
  3191  0775  3E08               	addlw	8
  3192  0776  0086               	movwf	6
  3193  0777  0187               	clrf	7
  3194  0778  0181               	clrf	1
  3195                           
  3196                           ;source/button_debounce.c: 61:     port->debouncedState = 0x00;
  3197  0779  0874               	movf	ButtonDebounceInit@port,w
  3198  077A  3E09               	addlw	9
  3199  077B  0086               	movwf	6
  3200  077C  0187               	clrf	7
  3201  077D  0181               	clrf	1
  3202                           
  3203                           ;source/button_debounce.c: 62:     port->changed = 0x00;
  3204  077E  0874               	movf	ButtonDebounceInit@port,w
  3205  077F  3E0A               	addlw	10
  3206  0780  0086               	movwf	6
  3207  0781  0187               	clrf	7
  3208  0782  0181               	clrf	1
  3209                           
  3210                           ;source/button_debounce.c: 63:     port->pullType = pulledUpButtons;
  3211  0783  0871               	movf	ButtonDebounceInit@pulledUpButtons,w
  3212  0784  00F2               	movwf	??_ButtonDebounceInit
  3213  0785  0874               	movf	ButtonDebounceInit@port,w
  3214  0786  3E0B               	addlw	11
  3215  0787  0086               	movwf	6
  3216  0788  0187               	clrf	7
  3217  0789  0872               	movf	??_ButtonDebounceInit,w
  3218  078A  0081               	movwf	1
  3219  078B                     l1416:
  3220                           
  3221                           ;source/button_debounce.c: 66:     for(i = 0; i < 8; i++)
  3222  078B  01F3               	clrf	ButtonDebounceInit@i
  3223  078C                     l1422:
  3224                           
  3225                           ;source/button_debounce.c: 67:     {;source/button_debounce.c: 68:         port->state[i
      +                          ] = 0x00;
  3226  078C  0873               	movf	ButtonDebounceInit@i,w
  3227  078D  0774               	addwf	ButtonDebounceInit@port,w
  3228  078E  00F2               	movwf	??_ButtonDebounceInit
  3229  078F  0872               	movf	??_ButtonDebounceInit,w
  3230  0790  0086               	movwf	6
  3231  0791  0187               	clrf	7
  3232  0792  0181               	clrf	1
  3233  0793                     l1424:
  3234                           
  3235                           ;source/button_debounce.c: 69:     }
  3236  0793  3001               	movlw	1
  3237  0794  00F2               	movwf	??_ButtonDebounceInit
  3238  0795  0872               	movf	??_ButtonDebounceInit,w
  3239  0796  07F3               	addwf	ButtonDebounceInit@i,f
  3240  0797                     l1426:
  3241  0797  3008               	movlw	8
  3242  0798  0273               	subwf	ButtonDebounceInit@i,w
  3243  0799  1C03               	skipc
  3244  079A  2F9C               	goto	u1061
  3245  079B  2F9D               	goto	u1060
  3246  079C                     u1061:
  3247  079C  2F8C               	goto	l1422
  3248  079D                     u1060:
  3249  079D                     l393:
  3250  079D  0008               	return
  3251  079E                     __end_of_ButtonDebounceInit:
  3252                           
  3253                           	psect	intentry
  3254  0004                     __pintentry:	
  3255 ;; *************** function _isr *****************
  3256 ;; Defined at:
  3257 ;;		line 541 in file "main.c"
  3258 ;; Parameters:    Size  Location     Type
  3259 ;;		None
  3260 ;; Auto vars:     Size  Location     Type
  3261 ;;		None
  3262 ;; Return value:  Size  Location     Type
  3263 ;;                  1    wreg      void 
  3264 ;; Registers used:
  3265 ;;		wreg, status,2, status,0
  3266 ;; Tracked objects:
  3267 ;;		On entry : 0/0
  3268 ;;		On exit  : 0/0
  3269 ;;		Unchanged: 0/0
  3270 ;; Data sizes:     COMMON   BANK0   BANK1   BANK2   BANK3   BANK4   BANK5   BANK6
  3271 ;;      Params:         0       0       0       0       0       0       0       0
  3272 ;;      Locals:         0       0       0       0       0       0       0       0
  3273 ;;      Temps:          1       0       0       0       0       0       0       0
  3274 ;;      Totals:         1       0       0       0       0       0       0       0
  3275 ;;Total ram usage:        1 bytes
  3276 ;; Hardware stack levels used: 1
  3277 ;; This function calls:
  3278 ;;		Nothing
  3279 ;; This function is called by:
  3280 ;;		Interrupt level 1
  3281 ;; This function uses a non-reentrant model
  3282 ;;
  3283                           
  3284  0004                     _isr:
  3285                           
  3286                           ;incstack = 0
  3287  0004  147E               	bsf	int$flags,0	;set compiler interrupt flag (level 1)
  3288                           
  3289                           ; Regs used in _isr: [wreg+status,2+status,0]
  3290  0005  3180               	pagesel	$
  3291  0006                     i1l1704:
  3292                           
  3293                           ;main.c: 544:     if (PIR0bits.IOCIF) {
  3294  0006  014E               	movlb	14	; select bank14
  3295  0007  1E0C               	btfss	12,4	;volatile
  3296  0008  280A               	goto	u147_21
  3297  0009  280B               	goto	u147_20
  3298  000A                     u147_21:
  3299  000A  2889               	goto	i1l1764
  3300  000B                     u147_20:
  3301  000B                     i1l1706:
  3302                           
  3303                           ;main.c: 548:         if (IOCAF4) {
  3304  000B  017E               	movlb	62	; select bank62
  3305  000C  1E3F               	btfss	63,4	;volatile
  3306  000D  280F               	goto	u148_21
  3307  000E  2810               	goto	u148_20
  3308  000F                     u148_21:
  3309  000F  282D               	goto	i1l1718
  3310  0010                     u148_20:
  3311  0010                     i1l1708:
  3312                           
  3313                           ;main.c: 549:             IOCAF4 = 0;
  3314  0010  123F               	bcf	63,4	;volatile
  3315                           
  3316                           ;main.c: 551:             if (!PORTAbits.RA4) {
  3317  0011  0140               	movlb	0	; select bank0
  3318  0012  1A0C               	btfsc	12,4	;volatile
  3319  0013  2815               	goto	u149_21
  3320  0014  2816               	goto	u149_20
  3321  0015                     u149_21:
  3322  0015  2825               	goto	i1l1716
  3323  0016                     u149_20:
  3324  0016                     i1l1710:
  3325                           
  3326                           ;main.c: 553:                 poweredOn = 0;
  3327  0016  01B0               	clrf	_poweredOn
  3328  0017  01B1               	clrf	_poweredOn+1
  3329  0018                     i1l1712:
  3330                           
  3331                           ;main.c: 554:                 charging = 1;
  3332  0018  3001               	movlw	1
  3333  0019  00A6               	movwf	_charging
  3334  001A  3000               	movlw	0
  3335  001B  00A7               	movwf	_charging+1
  3336  001C                     i1l1714:
  3337                           
  3338                           ;main.c: 555:                 showCharge = 1;
  3339  001C  3001               	movlw	1
  3340  001D  00AE               	movwf	_showCharge
  3341  001E  3000               	movlw	0
  3342  001F  00AF               	movwf	_showCharge+1
  3343                           
  3344                           ;main.c: 556:                 gotTheTouch = 0;
  3345  0020  01A8               	clrf	_gotTheTouch
  3346  0021  01A9               	clrf	_gotTheTouch+1
  3347                           
  3348                           ;main.c: 557:                 lowPowerMode = 0;
  3349  0022  01AC               	clrf	_lowPowerMode
  3350  0023  01AD               	clrf	_lowPowerMode+1
  3351                           
  3352                           ;main.c: 558:             } else {
  3353  0024  282D               	goto	i1l1718
  3354  0025                     i1l1716:
  3355                           
  3356                           ;main.c: 560:                 charging = 0;
  3357  0025  01A6               	clrf	_charging
  3358  0026  01A7               	clrf	_charging+1
  3359                           
  3360                           ;main.c: 561:                 poweredOn = 0;
  3361  0027  01B0               	clrf	_poweredOn
  3362  0028  01B1               	clrf	_poweredOn+1
  3363                           
  3364                           ;main.c: 562:                 showCharge = 0;
  3365  0029  01AE               	clrf	_showCharge
  3366  002A  01AF               	clrf	_showCharge+1
  3367                           
  3368                           ;main.c: 563:                 gotTheTouch = 0;
  3369  002B  01A8               	clrf	_gotTheTouch
  3370  002C  01A9               	clrf	_gotTheTouch+1
  3371  002D                     i1l1718:
  3372                           
  3373                           ;main.c: 570:         if (IOCAF0) {
  3374  002D  017E               	movlb	62	; select bank62
  3375  002E  1C3F               	btfss	63,0	;volatile
  3376  002F  2831               	goto	u150_21
  3377  0030  2832               	goto	u150_20
  3378  0031                     u150_21:
  3379  0031  2858               	goto	i1l1740
  3380  0032                     u150_20:
  3381  0032                     i1l1720:
  3382                           
  3383                           ;main.c: 571:             IOCAF0 = 0;
  3384  0032  103F               	bcf	63,0	;volatile
  3385                           
  3386                           ;main.c: 573:             if (!PORTAbits.RA0 && PORTAbits.RA4) {
  3387  0033  0140               	movlb	0	; select bank0
  3388  0034  180C               	btfsc	12,0	;volatile
  3389  0035  2837               	goto	u151_21
  3390  0036  2838               	goto	u151_20
  3391  0037                     u151_21:
  3392  0037  2846               	goto	i1l1730
  3393  0038                     u151_20:
  3394  0038                     i1l1722:
  3395  0038  1E0C               	btfss	12,4	;volatile
  3396  0039  283B               	goto	u152_21
  3397  003A  283C               	goto	u152_20
  3398  003B                     u152_21:
  3399  003B  2846               	goto	i1l1730
  3400  003C                     u152_20:
  3401  003C                     i1l1724:
  3402                           
  3403                           ;main.c: 574:                 lowPowerMode = 0;
  3404  003C  01AC               	clrf	_lowPowerMode
  3405  003D  01AD               	clrf	_lowPowerMode+1
  3406  003E                     i1l1726:
  3407                           
  3408                           ;main.c: 575:                 poweredOn = 1;
  3409  003E  3001               	movlw	1
  3410  003F  00B0               	movwf	_poweredOn
  3411  0040  3000               	movlw	0
  3412  0041  00B1               	movwf	_poweredOn+1
  3413  0042                     i1l1728:
  3414                           
  3415                           ;main.c: 576:                 showCharge = 1;
  3416  0042  3001               	movlw	1
  3417  0043  00AE               	movwf	_showCharge
  3418  0044  3000               	movlw	0
  3419  0045  00AF               	movwf	_showCharge+1
  3420  0046                     i1l1730:
  3421                           
  3422                           ;main.c: 579:             if (PORTAbits.RA0 && PORTAbits.RA4) {
  3423  0046  1C0C               	btfss	12,0	;volatile
  3424  0047  2849               	goto	u153_21
  3425  0048  284A               	goto	u153_20
  3426  0049                     u153_21:
  3427  0049  2858               	goto	i1l1740
  3428  004A                     u153_20:
  3429  004A                     i1l1732:
  3430  004A  1E0C               	btfss	12,4	;volatile
  3431  004B  284D               	goto	u154_21
  3432  004C  284E               	goto	u154_20
  3433  004D                     u154_21:
  3434  004D  2858               	goto	i1l1740
  3435  004E                     u154_20:
  3436  004E                     i1l1734:
  3437                           
  3438                           ;main.c: 581:                 showCharge = 0;
  3439  004E  01AE               	clrf	_showCharge
  3440  004F  01AF               	clrf	_showCharge+1
  3441                           
  3442                           ;main.c: 582:                 poweredOn = 0;
  3443  0050  01B0               	clrf	_poweredOn
  3444  0051  01B1               	clrf	_poweredOn+1
  3445  0052                     i1l1736:
  3446                           
  3447                           ;main.c: 583:                 lowPowerMode = 1;
  3448  0052  3001               	movlw	1
  3449  0053  00AC               	movwf	_lowPowerMode
  3450  0054  3000               	movlw	0
  3451  0055  00AD               	movwf	_lowPowerMode+1
  3452  0056                     i1l1738:
  3453                           
  3454                           ;main.c: 584:                 forceArc = 0;
  3455  0056  01BC               	clrf	_forceArc
  3456  0057  01BD               	clrf	_forceArc+1
  3457  0058                     i1l1740:
  3458                           
  3459                           ;main.c: 589:         if (IOCAF3) {
  3460  0058  017E               	movlb	62	; select bank62
  3461  0059  1DBF               	btfss	63,3	;volatile
  3462  005A  285C               	goto	u155_21
  3463  005B  285D               	goto	u155_20
  3464  005C                     u155_21:
  3465  005C  2889               	goto	i1l1764
  3466  005D                     u155_20:
  3467  005D                     i1l1742:
  3468                           
  3469                           ;main.c: 590:             IOCAF3 = 0;
  3470  005D  11BF               	bcf	63,3	;volatile
  3471                           
  3472                           ;main.c: 592:             if (!PORTAbits.RA3 && !PORTAbits.RA0 && PORTAbits.RA4) {
  3473  005E  0140               	movlb	0	; select bank0
  3474  005F  198C               	btfsc	12,3	;volatile
  3475  0060  2862               	goto	u156_21
  3476  0061  2863               	goto	u156_20
  3477  0062                     u156_21:
  3478  0062  2877               	goto	i1l1754
  3479  0063                     u156_20:
  3480  0063                     i1l1744:
  3481  0063  180C               	btfsc	12,0	;volatile
  3482  0064  2866               	goto	u157_21
  3483  0065  2867               	goto	u157_20
  3484  0066                     u157_21:
  3485  0066  2877               	goto	i1l1754
  3486  0067                     u157_20:
  3487  0067                     i1l1746:
  3488  0067  1E0C               	btfss	12,4	;volatile
  3489  0068  286A               	goto	u158_21
  3490  0069  286B               	goto	u158_20
  3491  006A                     u158_21:
  3492  006A  2877               	goto	i1l1754
  3493  006B                     u158_20:
  3494  006B                     i1l1748:
  3495                           
  3496                           ;main.c: 593:                 lowPowerMode = 0;
  3497  006B  01AC               	clrf	_lowPowerMode
  3498  006C  01AD               	clrf	_lowPowerMode+1
  3499  006D                     i1l1750:
  3500                           
  3501                           ;main.c: 594:                 poweredOn = 1;
  3502  006D  3001               	movlw	1
  3503  006E  00B0               	movwf	_poweredOn
  3504  006F  3000               	movlw	0
  3505  0070  00B1               	movwf	_poweredOn+1
  3506  0071                     i1l1752:
  3507                           
  3508                           ;main.c: 595:                 showCharge = 0;
  3509  0071  01AE               	clrf	_showCharge
  3510  0072  01AF               	clrf	_showCharge+1
  3511                           
  3512                           ;main.c: 596:                 gotTheTouch = 1;
  3513  0073  3001               	movlw	1
  3514  0074  00A8               	movwf	_gotTheTouch
  3515  0075  3000               	movlw	0
  3516  0076  00A9               	movwf	_gotTheTouch+1
  3517  0077                     i1l1754:
  3518                           
  3519                           ;main.c: 599:             if (PORTAbits.RA3 && !PORTAbits.RA0 && PORTAbits.RA4) {
  3520  0077  1D8C               	btfss	12,3	;volatile
  3521  0078  287A               	goto	u159_21
  3522  0079  287B               	goto	u159_20
  3523  007A                     u159_21:
  3524  007A  2889               	goto	i1l1764
  3525  007B                     u159_20:
  3526  007B                     i1l1756:
  3527  007B  180C               	btfsc	12,0	;volatile
  3528  007C  287E               	goto	u160_21
  3529  007D  287F               	goto	u160_20
  3530  007E                     u160_21:
  3531  007E  2889               	goto	i1l1764
  3532  007F                     u160_20:
  3533  007F                     i1l1758:
  3534  007F  1E0C               	btfss	12,4	;volatile
  3535  0080  2882               	goto	u161_21
  3536  0081  2883               	goto	u161_20
  3537  0082                     u161_21:
  3538  0082  2889               	goto	i1l1764
  3539  0083                     u161_20:
  3540  0083                     i1l1760:
  3541                           
  3542                           ;main.c: 603:                 showCharge = 1;
  3543  0083  3001               	movlw	1
  3544  0084  00AE               	movwf	_showCharge
  3545  0085  3000               	movlw	0
  3546  0086  00AF               	movwf	_showCharge+1
  3547  0087                     i1l1762:
  3548                           
  3549                           ;main.c: 604:                 gotTheTouch = 0;
  3550  0087  01A8               	clrf	_gotTheTouch
  3551  0088  01A9               	clrf	_gotTheTouch+1
  3552  0089                     i1l1764:
  3553                           
  3554                           ;main.c: 614:     if (PIR1bits.TMR2IF) {
  3555  0089  014E               	movlb	14	; select bank14
  3556  008A  1F0D               	btfss	13,6	;volatile
  3557  008B  288D               	goto	u162_21
  3558  008C  288E               	goto	u162_20
  3559  008D                     u162_21:
  3560  008D  28B4               	goto	i1l1782
  3561  008E                     u162_20:
  3562  008E                     i1l1766:
  3563                           
  3564                           ;main.c: 615:         if (!noGate && poweredOn && gotTheTouch) {
  3565  008E  0140               	movlb	0	; select bank0
  3566  008F  0862               	movf	_noGate,w
  3567  0090  0463               	iorwf	_noGate+1,w
  3568  0091  1D03               	btfss	3,2
  3569  0092  2894               	goto	u163_21
  3570  0093  2895               	goto	u163_20
  3571  0094                     u163_21:
  3572  0094  28B0               	goto	i1l1778
  3573  0095                     u163_20:
  3574  0095                     i1l1768:
  3575  0095  0830               	movf	_poweredOn,w
  3576  0096  0431               	iorwf	_poweredOn+1,w
  3577  0097  1903               	btfsc	3,2
  3578  0098  289A               	goto	u164_21
  3579  0099  289B               	goto	u164_20
  3580  009A                     u164_21:
  3581  009A  28B0               	goto	i1l1778
  3582  009B                     u164_20:
  3583  009B                     i1l1770:
  3584  009B  0828               	movf	_gotTheTouch,w
  3585  009C  0429               	iorwf	_gotTheTouch+1,w
  3586  009D  1903               	btfsc	3,2
  3587  009E  28A0               	goto	u165_21
  3588  009F  28A1               	goto	u165_20
  3589  00A0                     u165_21:
  3590  00A0  28B0               	goto	i1l1778
  3591  00A1                     u165_20:
  3592  00A1                     i1l1772:
  3593                           
  3594                           ;main.c: 616:             postscaler ^= 1;
  3595  00A1  3001               	movlw	1
  3596  00A2  06B6               	xorwf	_postscaler,f
  3597  00A3  3000               	movlw	0
  3598  00A4  06B7               	xorwf	_postscaler+1,f
  3599  00A5                     i1l1774:
  3600                           
  3601                           ;main.c: 617:             if (postscaler) {
  3602  00A5  0836               	movf	_postscaler,w
  3603  00A6  0437               	iorwf	_postscaler+1,w
  3604  00A7  1903               	btfsc	3,2
  3605  00A8  28AA               	goto	u166_21
  3606  00A9  28AB               	goto	u166_20
  3607  00AA                     u166_21:
  3608  00AA  28B2               	goto	i1l1780
  3609  00AB                     u166_20:
  3610  00AB                     i1l1776:
  3611                           
  3612                           ;main.c: 618:                 gate ^= 1;
  3613  00AB  3001               	movlw	1
  3614  00AC  06BA               	xorwf	_gate,f
  3615  00AD  3000               	movlw	0
  3616  00AE  06BB               	xorwf	_gate+1,f
  3617  00AF  28B2               	goto	i1l1780
  3618  00B0                     i1l1778:
  3619                           
  3620                           ;main.c: 621:             gate = 0;
  3621  00B0  01BA               	clrf	_gate
  3622  00B1  01BB               	clrf	_gate+1
  3623  00B2                     i1l1780:
  3624                           
  3625                           ;main.c: 623:         PIR1bits.TMR2IF = 0;
  3626  00B2  014E               	movlb	14	; select bank14
  3627  00B3  130D               	bcf	13,6	;volatile
  3628  00B4                     i1l1782:
  3629                           
  3630                           ;main.c: 628:     if (PIR0bits.TMR0IF) {
  3631  00B4  1E8C               	btfss	12,5	;volatile
  3632  00B5  28B7               	goto	u167_21
  3633  00B6  28B8               	goto	u167_20
  3634  00B7                     u167_21:
  3635  00B7  291A               	goto	i1l237
  3636  00B8                     u167_20:
  3637  00B8                     i1l1784:
  3638                           
  3639                           ;main.c: 629:         if (clockDivider < 15) {
  3640  00B8  300F               	movlw	15
  3641  00B9  0140               	movlb	0	; select bank0
  3642  00BA  0241               	subwf	_clockDivider,w
  3643  00BB  1803               	skipnc
  3644  00BC  28BE               	goto	u168_21
  3645  00BD  28BF               	goto	u168_20
  3646  00BE                     u168_21:
  3647  00BE  28CE               	goto	i1l1792
  3648  00BF                     u168_20:
  3649  00BF                     i1l1786:
  3650                           
  3651                           ;main.c: 630:             if (debugging) clockDivider = 15;
  3652  00BF  0842               	movf	_debugging,w
  3653  00C0  1903               	btfsc	3,2
  3654  00C1  28C3               	goto	u169_21
  3655  00C2  28C4               	goto	u169_20
  3656  00C3                     u169_21:
  3657  00C3  28C9               	goto	i1l1790
  3658  00C4                     u169_20:
  3659  00C4                     i1l1788:
  3660  00C4  300F               	movlw	15
  3661  00C5  00F0               	movwf	??_isr
  3662  00C6  0870               	movf	??_isr,w
  3663  00C7  00C1               	movwf	_clockDivider
  3664  00C8  28EB               	goto	i1l1806
  3665  00C9                     i1l1790:
  3666  00C9  3001               	movlw	1
  3667  00CA  00F0               	movwf	??_isr
  3668  00CB  0870               	movf	??_isr,w
  3669  00CC  07C1               	addwf	_clockDivider,f
  3670  00CD  28EB               	goto	i1l1806
  3671  00CE                     i1l1792:
  3672                           
  3673                           ;main.c: 634:             if (debugging) genericDelay = 0;
  3674  00CE  0842               	movf	_debugging,w
  3675  00CF  1903               	btfsc	3,2
  3676  00D0  28D2               	goto	u170_21
  3677  00D1  28D3               	goto	u170_20
  3678  00D2                     u170_21:
  3679  00D2  28D6               	goto	i1l1796
  3680  00D3                     u170_20:
  3681  00D3                     i1l1794:
  3682  00D3  01B2               	clrf	_genericDelay
  3683  00D4  01B3               	clrf	_genericDelay+1
  3684  00D5  28E0               	goto	i1l1800
  3685  00D6                     i1l1796:
  3686  00D6  0832               	movf	_genericDelay,w
  3687  00D7  0433               	iorwf	_genericDelay+1,w
  3688  00D8  1903               	btfsc	3,2
  3689  00D9  28DB               	goto	u171_21
  3690  00DA  28DC               	goto	u171_20
  3691  00DB                     u171_21:
  3692  00DB  28E0               	goto	i1l1800
  3693  00DC                     u171_20:
  3694  00DC                     i1l1798:
  3695  00DC  3001               	movlw	1
  3696  00DD  02B2               	subwf	_genericDelay,f
  3697  00DE  3000               	movlw	0
  3698  00DF  3BB3               	subwfb	_genericDelay+1,f
  3699  00E0                     i1l1800:
  3700                           
  3701                           ;main.c: 636:             clockDivider = 0;
  3702  00E0  01C1               	clrf	_clockDivider
  3703  00E1                     i1l1802:
  3704                           
  3705                           ;main.c: 639:             if (buttonDebounce < 5) buttonDebounce++;
  3706  00E1  3005               	movlw	5
  3707  00E2  0240               	subwf	_buttonDebounce,w
  3708  00E3  1803               	skipnc
  3709  00E4  28E6               	goto	u172_21
  3710  00E5  28E7               	goto	u172_20
  3711  00E6                     u172_21:
  3712  00E6  28EB               	goto	i1l1806
  3713  00E7                     u172_20:
  3714  00E7                     i1l1804:
  3715  00E7  3001               	movlw	1
  3716  00E8  00F0               	movwf	??_isr
  3717  00E9  0870               	movf	??_isr,w
  3718  00EA  07C0               	addwf	_buttonDebounce,f
  3719  00EB                     i1l1806:
  3720                           
  3721                           ;main.c: 656:         if ((gate || forceArc) && poweredOn && gotTheTouch) {
  3722  00EB  083A               	movf	_gate,w
  3723  00EC  043B               	iorwf	_gate+1,w
  3724  00ED  1D03               	btfss	3,2
  3725  00EE  28F0               	goto	u173_21
  3726  00EF  28F1               	goto	u173_20
  3727  00F0                     u173_21:
  3728  00F0  28F7               	goto	i1l1810
  3729  00F1                     u173_20:
  3730  00F1                     i1l1808:
  3731  00F1  083C               	movf	_forceArc,w
  3732  00F2  043D               	iorwf	_forceArc+1,w
  3733  00F3  1903               	btfsc	3,2
  3734  00F4  28F6               	goto	u174_21
  3735  00F5  28F7               	goto	u174_20
  3736  00F6                     u174_21:
  3737  00F6  2916               	goto	i1l233
  3738  00F7                     u174_20:
  3739  00F7                     i1l1810:
  3740  00F7  0830               	movf	_poweredOn,w
  3741  00F8  0431               	iorwf	_poweredOn+1,w
  3742  00F9  1903               	btfsc	3,2
  3743  00FA  28FC               	goto	u175_21
  3744  00FB  28FD               	goto	u175_20
  3745  00FC                     u175_21:
  3746  00FC  2916               	goto	i1l233
  3747  00FD                     u175_20:
  3748  00FD                     i1l1812:
  3749  00FD  0828               	movf	_gotTheTouch,w
  3750  00FE  0429               	iorwf	_gotTheTouch+1,w
  3751  00FF  1903               	btfsc	3,2
  3752  0100  2902               	goto	u176_21
  3753  0101  2903               	goto	u176_20
  3754  0102                     u176_21:
  3755  0102  2916               	goto	i1l233
  3756  0103                     u176_20:
  3757  0103                     i1l1814:
  3758                           
  3759                           ;main.c: 657:             pinState ^= 1;
  3760  0103  3001               	movlw	(0+1) shl (_pinState& (0+7))
  3761  0104  06FC               	xorwf	_pinState/(0+8),f
  3762  0105                     i1l1816:
  3763                           
  3764                           ;main.c: 658:             LATC4 = pinState;
  3765  0105  187C               	btfsc	_pinState/(0+8),_pinState& (0+7)
  3766  0106  2908               	goto	u177_21
  3767  0107  290B               	goto	u177_20
  3768  0108                     u177_21:
  3769  0108  0140               	movlb	0	; select bank0
  3770  0109  161A               	bsf	26,4	;volatile
  3771  010A  290D               	goto	u178_24
  3772  010B                     u177_20:
  3773  010B  0140               	movlb	0	; select bank0
  3774  010C  121A               	bcf	26,4	;volatile
  3775  010D                     u178_24:
  3776  010D                     i1l1818:
  3777                           
  3778                           ;main.c: 659:             LATC5 = (pinState^1);
  3779  010D  1C7C               	btfss	_pinState/(0+8),_pinState& (0+7)
  3780  010E  2910               	goto	u179_21
  3781  010F  2913               	goto	u179_20
  3782  0110                     u179_21:
  3783  0110  0140               	movlb	0	; select bank0
  3784  0111  169A               	bsf	26,5	;volatile
  3785  0112  2915               	goto	u180_24
  3786  0113                     u179_20:
  3787  0113  0140               	movlb	0	; select bank0
  3788  0114  129A               	bcf	26,5	;volatile
  3789  0115                     u180_24:
  3790                           
  3791                           ;main.c: 660:         } else {
  3792  0115  2918               	goto	i1l236
  3793  0116                     i1l233:
  3794                           
  3795                           ;main.c: 661:             LATC4 = 0;
  3796  0116  121A               	bcf	26,4	;volatile
  3797                           
  3798                           ;main.c: 662:             LATC5 = 0;
  3799  0117  129A               	bcf	26,5	;volatile
  3800  0118                     i1l236:	
  3801                           ;main.c: 663:         }
  3802                           
  3803                           
  3804                           ;main.c: 664:         PIR0bits.TMR0IF = 0;
  3805  0118  014E               	movlb	14	; select bank14
  3806  0119  128C               	bcf	12,5	;volatile
  3807  011A                     i1l237:
  3808  011A  107E               	bcf	int$flags,0	;clear compiler interrupt flag (level 1)
  3809  011B  0009               	retfie
  3810  011C                     __end_of_isr:
  3811  007E                     btemp	set	126	;btemp
  3812  007E                     int$flags	set	126
  3813  007E                     wtemp0	set	126
  3814                           
  3815                           	psect	config
  3816                           
  3817                           ;Config register CONFIG1 @ 0x8007
  3818                           ;	External Oscillator Mode Selection bits
  3819                           ;	FEXTOSC = 0x3, unprogrammed default
  3820                           ;	Power-up Default Value for COSC bits
  3821                           ;	RSTOSC = 0x0, user specified literal
  3822                           ;	Clock Out Enable bit
  3823                           ;	CLKOUTEN = 0x1, user specified literal
  3824                           ;	VDD Range Analog Calibration Selection bit
  3825                           ;	VDDAR = 0x1, unprogrammed default
  3826  8007                     	org	32775
  3827  8007  3FCF               	dw	16335
  3828                           
  3829                           ;Config register CONFIG2 @ 0x8008
  3830                           ;	Master Clear Enable bit
  3831                           ;	MCLRE = 0x0, user specified literal
  3832                           ;	Power-up Timer Selection bits
  3833                           ;	PWRTS = 0x3, unprogrammed default
  3834                           ;	WDT Operating Mode bits
  3835                           ;	WDTE = 0x0, user specified literal
  3836                           ;	Brown-out Reset Enable bits
  3837                           ;	BOREN = 0x0, user specified literal
  3838                           ;	Brown-out Reset Voltage Selection bit
  3839                           ;	BORV = LO, Brown-out Reset Voltage (VBOR) set to 1.9V
  3840                           ;	PPSLOCKED One-Way Set Enable bit
  3841                           ;	PPS1WAY = 0x1, unprogrammed default
  3842                           ;	Stack Overflow/Underflow Reset Enable bit
  3843                           ;	STVREN = ON, Stack Overflow or Underflow will cause a reset
  3844  8008                     	org	32776
  3845  8008  3F26               	dw	16166
  3846                           
  3847                           ;Config register CONFIG4 @ 0x800A
  3848                           ;	Boot Block Size Selection bits
  3849                           ;	BBSIZE = 0x7, unprogrammed default
  3850                           ;	Boot Block Enable bit
  3851                           ;	BBEN = 0x1, unprogrammed default
  3852                           ;	SAF Enable bit
  3853                           ;	SAFEN = 0x1, unprogrammed default
  3854                           ;	Application Block Write Protection bit
  3855                           ;	WRTAPP = 0x1, unprogrammed default
  3856                           ;	Boot Block Write Protection bit
  3857                           ;	WRTB = 0x1, unprogrammed default
  3858                           ;	Configuration Registers Write Protection bit
  3859                           ;	WRTC = 0x1, unprogrammed default
  3860                           ;	Storage Area Flash (SAF) Write Protection bit
  3861                           ;	WRTSAF = OFF, SAF is not write-protected
  3862                           ;	Low Voltage Programming Enable bit
  3863                           ;	LVP = OFF, High Voltage on MCLR/Vpp must be used for programming
  3864  800A                     	org	32778
  3865  800A  1FFF               	dw	8191
  3866                           
  3867                           ;Config register CONFIG5 @ 0x800B
  3868                           ;	User Program Flash Memory Code Protection bit
  3869                           ;	CP = OFF, User Program Flash Memory code protection is disabled
  3870  800B                     	org	32779
  3871  800B  3FFF               	dw	16383

Data Sizes:
    Strings     0
    Constant    724
    Data        2
    BSS         49
    Persistent  32
    Stack       0

Auto Spaces:
    Space          Size  Autos    Used
    COMMON           14     10      13
    BANK0            80     19      68
    BANK1            80      0       0
    BANK2            80      0       0
    BANK3            80      0       0
    BANK4            80      0       0
    BANK5            80      0       0
    BANK6            16      0       0

Pointer List with Targets:

    ButtonDebounceInit@port	PTR struct . size(1) Largest target is 12
		 -> aPorts(BANK0[12]), 


Critical Paths under _main in COMMON

    _goToLPmode->_playNote
    _doTheArc->_playNote
    _chargeIndicator->___aldiv

Critical Paths under _isr in COMMON

    None.

Critical Paths under _main in BANK0

    _main->_chargeIndicator
    _chargeIndicator->___aldiv

Critical Paths under _isr in BANK0

    None.

Critical Paths under _main in BANK1

    None.

Critical Paths under _isr in BANK1

    None.

Critical Paths under _main in BANK2

    None.

Critical Paths under _isr in BANK2

    None.

Critical Paths under _main in BANK3

    None.

Critical Paths under _isr in BANK3

    None.

Critical Paths under _main in BANK4

    None.

Critical Paths under _isr in BANK4

    None.

Critical Paths under _main in BANK5

    None.

Critical Paths under _isr in BANK5

    None.

Critical Paths under _main in BANK6

    None.

Critical Paths under _isr in BANK6

    None.

Call Graph Tables:

 ---------------------------------------------------------------------------------
 (Depth) Function   	        Calls       Base Space   Used Autos Params    Refs
 ---------------------------------------------------------------------------------
 (0) _main                                                 5     1      4    2936
                                             14 BANK0      5     1      4
                 _ButtonDebounceInit
                      _blockingDelay
                    _chargeIndicator
                           _doTheArc
                         _goToLPmode
 ---------------------------------------------------------------------------------
 (1) _goToLPmode                                           0     0      0     522
                           _playNote
 ---------------------------------------------------------------------------------
 (1) _doTheArc                                             2     2      0     522
                                              5 COMMON     2     2      0
                           _playNote
 ---------------------------------------------------------------------------------
 (2) _playNote                                             4     0      4     522
                                              1 COMMON     4     0      4
 ---------------------------------------------------------------------------------
 (1) _chargeIndicator                                      8     8      0    1105
                                              6 BANK0      8     8      0
                            ___aldiv
                      _blockingDelay
 ---------------------------------------------------------------------------------
 (2) _blockingDelay                                        2     0      2     478
                                              1 COMMON     2     0      2
 ---------------------------------------------------------------------------------
 (2) ___aldiv                                             15     7      8     604
                                              1 COMMON     9     1      8
                                              0 BANK0      6     6      0
 ---------------------------------------------------------------------------------
 (1) _ButtonDebounceInit                                   4     3      1     309
                                              1 COMMON     4     3      1
 ---------------------------------------------------------------------------------
 Estimated maximum stack depth 2
 ---------------------------------------------------------------------------------
 (Depth) Function   	        Calls       Base Space   Used Autos Params    Refs
 ---------------------------------------------------------------------------------
 (3) _isr                                                  1     1      0       0
                                              0 COMMON     1     1      0
 ---------------------------------------------------------------------------------
 Estimated maximum stack depth 3
 ---------------------------------------------------------------------------------

 Call Graph Graphs:

 _main (ROOT)
   _ButtonDebounceInit
   _blockingDelay
   _chargeIndicator
     ___aldiv
     _blockingDelay
   _doTheArc
     _playNote
   _goToLPmode
     _playNote

 _isr (ROOT)

 Address spaces:
Name               Size   Autos  Total    Cost      Usage
BIGRAM             1F0      0       0       0        0.0%
NULL                 0      0       0       0        0.0%
CODE                 0      0       0       0        0.0%
BITCOMMON            E      0       1       1        7.1%
BITSFR0              0      0       0       1        0.0%
SFR0                 0      0       0       1        0.0%
COMMON               E      A       D       2       92.9%
BITSFR1              0      0       0       2        0.0%
SFR1                 0      0       0       2        0.0%
BITSFR2              0      0       0       3        0.0%
SFR2                 0      0       0       3        0.0%
STACK                0      0       0       3        0.0%
BITSFR3              0      0       0       4        0.0%
SFR3                 0      0       0       4        0.0%
ABS                  0      0      51       4        0.0%
BITBANK0            50      0       0       5        0.0%
BITSFR4              0      0       0       5        0.0%
SFR4                 0      0       0       5        0.0%
BANK0               50     13      44       6       85.0%
BITSFR5              0      0       0       6        0.0%
SFR5                 0      0       0       6        0.0%
BITBANK1            50      0       0       7        0.0%
BITSFR6              0      0       0       7        0.0%
SFR6                 0      0       0       7        0.0%
BANK1               50      0       0       8        0.0%
BITSFR7              0      0       0       8        0.0%
SFR7                 0      0       0       8        0.0%
BITBANK2            50      0       0       9        0.0%
BITSFR8              0      0       0       9        0.0%
SFR8                 0      0       0       9        0.0%
BANK2               50      0       0      10        0.0%
BITSFR9              0      0       0      10        0.0%
SFR9                 0      0       0      10        0.0%
BITBANK3            50      0       0      11        0.0%
BITSFR10             0      0       0      11        0.0%
SFR10                0      0       0      11        0.0%
BANK3               50      0       0      12        0.0%
BITSFR11             0      0       0      12        0.0%
SFR11                0      0       0      12        0.0%
BITBANK4            50      0       0      13        0.0%
BITSFR12             0      0       0      13        0.0%
SFR12                0      0       0      13        0.0%
BANK4               50      0       0      14        0.0%
BITSFR13             0      0       0      14        0.0%
SFR13                0      0       0      14        0.0%
BITBANK5            50      0       0      15        0.0%
BITSFR14             0      0       0      15        0.0%
SFR14                0      0       0      15        0.0%
BANK5               50      0       0      16        0.0%
BITSFR15             0      0       0      16        0.0%
SFR15                0      0       0      16        0.0%
BITBANK6            10      0       0      17        0.0%
BITSFR16             0      0       0      17        0.0%
SFR16                0      0       0      17        0.0%
BANK6               10      0       0      18        0.0%
BITSFR17             0      0       0      18        0.0%
SFR17                0      0       0      18        0.0%
BITSFR18             0      0       0      19        0.0%
SFR18                0      0       0      19        0.0%
DATA                 0      0      51      19        0.0%
BITSFR19             0      0       0      20        0.0%
SFR19                0      0       0      20        0.0%
BITSFR20             0      0       0      21        0.0%
SFR20                0      0       0      21        0.0%
BITSFR21             0      0       0      22        0.0%
SFR21                0      0       0      22        0.0%
BITSFR22             0      0       0      23        0.0%
SFR22                0      0       0      23        0.0%
BITSFR23             0      0       0      24        0.0%
SFR23                0      0       0      24        0.0%
BITSFR24             0      0       0      25        0.0%
SFR24                0      0       0      25        0.0%
BITSFR25             0      0       0      26        0.0%
SFR25                0      0       0      26        0.0%
BITSFR26             0      0       0      27        0.0%
SFR26                0      0       0      27        0.0%
BITSFR27             0      0       0      28        0.0%
SFR27                0      0       0      28        0.0%
BITSFR28             0      0       0      29        0.0%
SFR28                0      0       0      29        0.0%
BITSFR29             0      0       0      30        0.0%
SFR29                0      0       0      30        0.0%
BITSFR30             0      0       0      31        0.0%
SFR30                0      0       0      31        0.0%
BITSFR31             0      0       0      32        0.0%
SFR31                0      0       0      32        0.0%
BITSFR32             0      0       0      33        0.0%
SFR32                0      0       0      33        0.0%
BITSFR33             0      0       0      34        0.0%
SFR33                0      0       0      34        0.0%
BITSFR34             0      0       0      35        0.0%
SFR34                0      0       0      35        0.0%
BITSFR35             0      0       0      36        0.0%
SFR35                0      0       0      36        0.0%
BITSFR36             0      0       0      37        0.0%
SFR36                0      0       0      37        0.0%
BITSFR37             0      0       0      38        0.0%
SFR37                0      0       0      38        0.0%
BITSFR38             0      0       0      39        0.0%
SFR38                0      0       0      39        0.0%
BITSFR39             0      0       0      40        0.0%
SFR39                0      0       0      40        0.0%
BITSFR40             0      0       0      41        0.0%
SFR40                0      0       0      41        0.0%
BITSFR41             0      0       0      42        0.0%
SFR41                0      0       0      42        0.0%
BITSFR42             0      0       0      43        0.0%
SFR42                0      0       0      43        0.0%
BITSFR43             0      0       0      44        0.0%
SFR43                0      0       0      44        0.0%
BITSFR44             0      0       0      45        0.0%
SFR44                0      0       0      45        0.0%
BITSFR45             0      0       0      46        0.0%
SFR45                0      0       0      46        0.0%
BITSFR46             0      0       0      47        0.0%
SFR46                0      0       0      47        0.0%
BITSFR47             0      0       0      48        0.0%
SFR47                0      0       0      48        0.0%
BITSFR48             0      0       0      49        0.0%
SFR48                0      0       0      49        0.0%
BITSFR49             0      0       0      50        0.0%
SFR49                0      0       0      50        0.0%
BITSFR50             0      0       0      51        0.0%
SFR50                0      0       0      51        0.0%
BITSFR51             0      0       0      52        0.0%
SFR51                0      0       0      52        0.0%
BITSFR52             0      0       0      53        0.0%
SFR52                0      0       0      53        0.0%
BITSFR53             0      0       0      54        0.0%
SFR53                0      0       0      54        0.0%
BITSFR54             0      0       0      55        0.0%
SFR54                0      0       0      55        0.0%
BITSFR55             0      0       0      56        0.0%
SFR55                0      0       0      56        0.0%
BITSFR56             0      0       0      57        0.0%
SFR56                0      0       0      57        0.0%
BITSFR57             0      0       0      58        0.0%
SFR57                0      0       0      58        0.0%
BITSFR58             0      0       0      59        0.0%
SFR58                0      0       0      59        0.0%
BITSFR59             0      0       0      60        0.0%
SFR59                0      0       0      60        0.0%
BITSFR60             0      0       0      61        0.0%
SFR60                0      0       0      61        0.0%
BITSFR61             0      0       0      62        0.0%
SFR61                0      0       0      62        0.0%
BITSFR62             0      0       0      63        0.0%
SFR62                0      0       0      63        0.0%
BITSFR63             0      0       0      64        0.0%
SFR63                0      0       0      64        0.0%


Microchip Technology PIC Macro Assembler V2.32 build 20210201212658 
Symbol Table                                                                                   Fri Sep 24 09:42:05 2021

                                _i 007A                                l201 04D1  
                              l320 0696                                l312 0672  
                              l321 0697                                l322 06AC  
                              l242 0307                                l307 0658  
                              l324 06B0                                l316 068C  
                              l260 0375                                l317 068B  
                              l272 03EE                                l249 0318  
                              l193 044B                                l282 075B  
                              l194 0451                                l291 07D7  
                              l278 07E3                                l198 0477  
                              l288 0772                                l393 079D  
                              l297 05D8                                l299 05E0  
                              l477 06C4                                l487 0740  
                              _GIE 005F                                _PR2 028D  
                              u910 07E3                                u911 07E2  
                              u920 0747                                u921 0746  
                              u930 0766                                u931 0765  
                              u940 076C                                u941 076B  
                              u950 0772                                u951 0771  
                              u960 06B7                                u961 06B6  
                              u970 06C8                                u971 06C7  
                              u980 06E7                                u981 06E6  
                              u995 06EB                                _isr 0004  
                              wreg 0009                               l2020 03DA  
                             l1400 071A                               l1410 0738  
                             l1402 071B                               l1404 0722  
                             l1500 0320                               l1422 078C  
                             l1414 0774                               l1406 0728  
                             l1430 05D6                               l1510 035A  
                             l1502 0326                               l1424 0793  
                             l1416 078B                               l1408 072D  
                             l1440 05F2                               l1432 05DA  
                             l1360 0741                               l1520 037D  
                             l1512 035E                               l1504 032C  
                             l1426 0797                               l1450 064B  
                             l1442 0631                               l1370 0766  
                             l1362 0747                               l1530 03B7  
                             l1522 0383                               l1514 0367  
                             l1506 0332                               l1380 06C8  
                             l1356 07D8                               l1460 0665  
                             l1452 0651                               l1444 063A  
                             l1436 05E5                               l1428 05D0  
                             l1372 076C                               l1364 074A  
                             l1532 03BB                               l1524 0389  
                             l1516 036E                               l1508 0337  
                             l1540 03D2                               l1390 06EA  
                             l1382 06D3                               l1374 06B1  
                             l1358 07DD                               l1470 067E  
                             l1462 066B                               l1454 0656  
                             l1446 063F                               l1438 05ED  
                             l1366 0756                               l1550 03ED  
                             l1534 03C4                               l1526 038F  
                             l1518 0379                               l1542 03E5  
                             l1392 06F5                               l1384 06D7  
                             l1376 06B3                               l1472 0684  
                             l1464 0670                               l1448 0648  
                             l1456 065A                               l1480 069A  
                             l1368 0760                               l1544 03EA  
                             l1536 03CB                               l1528 0394  
                             l1560 07CF                               l1394 06F9  
                             l1386 06DF                               l1378 06B7  
                             l1482 06A0                               l1474 0689  
                             l1458 0663                               l1466 0674  
                             l1546 03EB                               l1490 02FE  
                             l1570 07D5                               l1562 07D1  
                             l1396 0700                               l1388 06E7  
                             l1484 06A4                               l1468 067D  
                             l1476 068F                               l1548 03EC  
                             l1492 0304                               l1564 07D2  
                             l1556 07C2                               l1900 040A  
                             l1398 0712                               l1478 0694  
                             l1494 030B                               l1486 02F5  
                             l1566 07D3                               l1558 07C5  
                             l1910 040F                               l1902 040B  
                             l1496 0311                               l1488 02FA  
                             l1568 07D4                               l1920 041B  
                             l1912 0410                               l1904 040C  
                             l1498 031C                               l1930 0429  
                             l1922 0420                               l1914 0411  
                             l1906 040D                               l1940 0434  
                             l1932 042A                               l1924 0421  
                             l1916 0412                               l1908 040E  
                             l1950 043D                               l1942 0438  
                             l1934 042E                               l1926 0423  
                             l1918 0413                               l1870 03F4  
                             l1960 045C                               l1952 0442  
                             l1944 0439                               l1936 042F  
                             l1928 0425                               l1880 03FC  
                             l1872 03F5                               l1970 0485  
                             l1962 0461                               l1954 0443  
                             l1946 043A                               l1938 0432  
                             l1890 0405                               l1882 03FD  
                             l1874 03F7                               l1980 04B0  
                             l1972 048C                               l1964 0463  
                             l1956 0449                               l1948 043C  
                             l1892 0406                               l1884 03FF  
                             l1876 03F9                               l1868 03EF  
                             l1990 04C5                               l1982 04B2  
                             l1974 0495                               l1966 046E  
                             l1958 0455                               l1894 0407  
                             l1886 0401                               l1878 03FB  
                             l1992 04C7                               l1984 04B5  
                             l1976 049E                               l1968 0475  
                             l1896 0408                               l1888 0403  
                             l1994 04CD                               l1986 04BB  
                             l1978 04A7                               l1898 0409  
                             l1996 04D3                               l1988 04BE  
                             l1998 04DA                               ?_isr 0070  
                             u1000 06F9                               u1001 06F8  
                             u1020 0712                               u1100 05F2  
                             u1021 0711                               u1101 05F1  
                             u1110 0603                               u1015 06FA  
                             u1040 0728                               u1200 0684  
                             u1120 063A                               u1041 0727  
                             u1025 070E                               u1201 0683  
                             u1121 0639                               u1050 072D  
                             u1210 0689                               u1130 0648  
                             u1051 072C                               u1035 071C  
                             u1211 0688                               u1131 0647  
                             u1115 05FF                               u1060 079D  
                             u1220 0694                               u1140 0651  
                             u1300 0367                               u1061 079C  
                             u1221 0693                               u1141 0650  
                             u1301 0366                               u1230 06A0  
                             u1150 0656                               u1070 05D6  
                             u1310 036E                               u1231 069F  
                             u1151 0655                               u1071 05D5  
                             u1311 036D                               u1160 0663  
                             u1080 05E0                               u1320 0374  
                             u1240 0304                               u1161 0662  
                             u1081 05DF                               u1321 0373  
                             u1241 0303                               u1170 066B  
                             u1090 05E5                               u1330 0383  
                             u1250 0311                               u1171 066A  
                             u1091 05E4                               u1331 0382  
                             u1251 0310                               u1180 0670  
                             u1340 0389                               u1260 0317  
                             u1181 066F                               u1341 0388  
                             u1261 0316                               u1190 067D  
                             u1350 038F                               u1270 0326  
                             u1191 067C                               u1351 038E  
                             u1271 0325                               u1360 03C4  
                             u1280 032C                               u1361 03C3  
                             u1281 032B                               u1370 03CB  
                             u1290 0332                               u1371 03CA  
                             u1291 0331                               u1380 03D1  
                             u1381 03D0                               u1900 04DA  
                             u1901 04D9                               u1830 0449  
                             u1831 0448                               u1840 0455  
                             u1841 0454                               u1850 0461  
                             u1851 0460                               u1860 0475  
                             u1861 0474                               u1870 04BB  
                             u1871 04BA                               u1880 04C5  
                             u1881 04C4                               u1890 04CD  
                             u1891 04CC                               _PEIE 005E  
                             _INTE 38B0                               _gate 003A  
                             _main 03EF                               fsr0h 0005  
                             fsr1h 0007                               indf0 0000  
                             fsr0l 0004                               indf1 0001  
                             fsr1l 0006                               btemp 007E  
                             start 011C                ButtonDebounceInit@i 0073  
                 playNote@duration 0073                              ??_isr 0070  
                  __end_of___aldiv 0741                              ?_main 005D  
                            _ADRES 009B                              _LATA1 00C1  
                            _LATA2 00C2                              _LATC0 00D0  
                            _LATC1 00D1                              _LATC2 00D2  
                            _LATC3 00D3                              _LATC4 00D4  
                            _LATC5 00D5                              _IOCIE 38B4  
                            i1l233 0116                              i1l236 0118  
                            i1l237 011A                              _PORTA 000C  
                            _WPUA0 F9C8                              _WPUA3 F9CB  
                            _WPUA4 F9CC                              _sheRa 04E0  
                            _notes 079E                     __pbitbssCOMMON 03E0  
                            status 0003                              wtemp0 007E  
                  __initialization 011E                       __end_of_main 04E0  
                  _chargeIndicator 05D0                             ??_main 0061  
                           _ANSELC 1F4E                             _IOCAF0 F9F8  
                           _IOCAF3 F9FB                             _IOCAF4 F9FC  
                           _IOCAN0 F9F0                             _IOCAN3 F9F3  
                           _IOCAP0 F9E8                             _IOCAN4 F9F4  
                           _IOCAP3 F9EB                             _IOCAP4 F9EC  
                           i1l1710 0016                             i1l1800 00E0  
                           i1l1720 0032                             i1l1712 0018  
                           i1l1704 0006                             i1l1810 00F7  
                           i1l1802 00E1                             i1l1722 0038  
                           i1l1730 0046                             i1l1714 001C  
                           i1l1706 000B                             i1l1812 00FD  
                           i1l1804 00E7                             i1l1732 004A  
                           i1l1724 003C                             i1l1740 0058  
                           i1l1716 0025                             i1l1708 0010  
                           i1l1814 0103                             i1l1806 00EB  
                           i1l1750 006D                             i1l1742 005D  
                           i1l1734 004E                             i1l1726 003E  
                           i1l1718 002D                             i1l1816 0105  
                           i1l1808 00F1                             i1l1760 0083  
                           i1l1752 0071                             i1l1744 0063  
                           i1l1736 0052                             i1l1728 0042  
                           i1l1818 010D                             i1l1770 009B  
                           i1l1762 0087                             i1l1746 0067  
                           i1l1754 0077                             i1l1738 0056  
                           i1l1780 00B2                             i1l1772 00A1  
                           i1l1756 007B                             i1l1748 006B  
                           i1l1764 0089                             i1l1790 00C9  
                           i1l1774 00A5                             i1l1766 008E  
                           i1l1782 00B4                             i1l1758 007F  
                           i1l1792 00CE                             i1l1784 00B8  
                           i1l1776 00AB                             i1l1768 0095  
                           i1l1794 00D3                             i1l1786 00BF  
                           i1l1778 00B0                             i1l1796 00D6  
                           i1l1788 00C4                             i1l1798 00DC  
                           u150_20 0032                             u150_21 0031  
                           u151_20 0038                             u151_21 0037  
                           u160_20 007F                             u152_20 003C  
                           u160_21 007E                             u152_21 003B  
                           u161_20 0083                             u153_20 004A  
                           u161_21 0082                             u153_21 0049  
                           u170_20 00D3                             u162_20 008E  
                           u154_20 004E                             u170_21 00D2  
                           u162_21 008D                             u154_21 004D  
                           u171_20 00DC                             u163_20 0095  
                           u155_20 005D                             u147_20 000B  
                           u171_21 00DB                             u163_21 0094  
                           u155_21 005C                             u147_21 000A  
                           u172_20 00E7                             u164_20 009B  
                           u156_20 0063                             u148_20 0010  
                           u172_21 00E6                             u164_21 009A  
                           u156_21 0062                             u148_21 000F  
                           u180_24 0115                             u173_20 00F1  
                           u165_20 00A1                             u157_20 0067  
                           u149_20 0016                             u173_21 00F0  
                           u165_21 00A0                             u157_21 0066  
                           u149_21 0015                             u174_20 00F7  
                           u166_20 00AB                             u158_20 006B  
                           u174_21 00F6                             u166_21 00AA  
                           u158_21 006A                             u175_20 00FD  
                           u167_20 00B8                             u159_20 007B  
                           u175_21 00FC                             u167_21 00B7  
                           u159_21 007A                             u176_20 0103  
                           u168_20 00BF                             u176_21 0102  
                           u168_21 00BE                             u177_20 010B  
                           u169_20 00C4                             u177_21 0108  
                           u169_21 00C3                             u178_24 010D  
                           u179_20 0113                             u179_21 0110  
                           _NVMADR 081A                             _NVMDAT 081C  
                           _TMR0IE 38B5                             _TMR2IE 38BE  
                           _TRISA0 0090                             _TRISA1 0091  
                           _TRISA2 0092                             _TRISA3 0093  
                           _TRISA4 0094                             _TRISC0 00A0  
                           _TRISA5 0095                             _TRISC1 00A1  
                           _TRISC2 00A2                             _TRISC3 00A3  
                           _TRISC4 00A4                             _TRISC5 00A5  
                 __end_of_doTheArc 03EF                             _aPorts 0043  
                        ??___aldiv 0079                             _noGate 0062  
                 __end_of_playNote 0773            __end_of__initialization 0131  
          __end_of_chargeIndicator 06B1                     __pcstackCOMMON 0070  
                     __pidataBANK0 07EA                      __end_of_sheRa 05D0  
                    __end_of_notes 07C2              __end_of_blockingDelay 07E4  
                       _abortAbort 0038                         __pbssBANK0 0020  
      __size_of_ButtonDebounceInit 002B                         __pmaintext 03EF  
                       _goToLPmode 07C2                         __pintentry 0004  
                        ?_doTheArc 0070                       _clockDivider 0041  
                 ?_chargeIndicator 0070                          ?_playNote 0071  
                __end_of_gargoyles 02F5                            ___aldiv 06B1  
                          __ptext1 07C2                            __ptext2 02F5  
                          __ptext3 0741                            __ptext4 05D0  
                          __ptext5 07D8                            __ptext6 06B1  
                          __ptext7 0773                            _lidOpen 002A  
                        _T2CONbits 028E                       __size_of_isr 0118  
                       ??_doTheArc 0075                   ___aldiv@dividend 0075  
                        _T2HLTbits 028F               _chargeIndicator$1123 0059  
                     _genericDelay 0032                            clrloop0 07E5  
             end_of_initialization 0131                      _calibrationMV 0020  
                       ??_playNote 0075                        ?_goToLPmode 0070  
                        _OSCENbits 0891                   ___aldiv@quotient 0051  
                       _showCharge 002E                          _PORTAbits 000C  
ButtonDebounceInit@pulledUpButtons 0071                         _postscaler 0036  
              start_initialization 011E                        __end_of_isr 011C  
              __size_of_goToLPmode 0016                     _buttonDebounce 0040  
               blockingDelay@mSecs 0071             ButtonDebounceInit@port 0074  
                      __pdataBANK0 0062                        __pbssCOMMON 007A  
                        ___latbits 0001                      __pcstackBANK0 004F  
                      _chargeCycle 003E                  __size_of_doTheArc 00FA  
       __end_of_ButtonDebounceInit 079E                          _battVolts 0024  
                        _debugging 0042             __size_of_blockingDelay 000C  
                __size_of_playNote 0032                           ?___aldiv 0071  
                        _gargoyles 0135                       playNote@note 0071  
                         _T2CLKCON 0290                    ___aldiv@divisor 0071  
                  ___aldiv@counter 004F                          _playIndex 0034  
                        clear_ram0 07E4                           _PIR0bits 070C  
                         _PIR1bits 070D                       ??_goToLPmode 0075  
         __size_of_chargeIndicator 00E1                          _poweredOn 0030  
                       _ADCON0bits 009D                         _ADCON1bits 009E  
                    _blockingDelay 07D8                 __end_of_goToLPmode 07D8  
                     _lowPowerMode 002C                        _gotTheTouch 0028  
                 __size_of___aldiv 0090                           _adcVolts 0022  
                       _ANSELAbits 1F38                           _doTheArc 02F5  
                   ?_blockingDelay 0071                         _T0CON0bits 059E  
                       _T0CON1bits 059F                           _charging 0026  
                         _forceArc 003C                      __size_of_main 00F1  
                         _pinState 03E0                           _playNote 0741  
                         _runIndex 003F                           int$flags 007E  
                         main@argc 005D                           main@argv 005F  
                ??_chargeIndicator 0055                        _NVMCON1bits 081E  
                       _FVRCONbits 090C                           intlevel1 0000  
                       _OSCFRQbits 0893                 _ButtonDebounceInit 0773  
                    __pstringtext1 0135                      __pstringtext2 04E0  
                    __pstringtext3 079E                    ??_blockingDelay 0073  
              ?_ButtonDebounceInit 0071                       ___aldiv@sign 0050  
             ??_ButtonDebounceInit 0072  
