

Microchip MPLAB XC8 Assembler V2.32 build 20210201212658 
                                                                                               Thu Sep 23 20:44:27 2021

Microchip MPLAB XC8 C Compiler v2.32 (Free license) build 20210201212658 Og1 
     1                           	processor	16F15224
     2                           	pagewidth 120
     3                           	opt	flic
     4                           	psect	idataBANK0,global,class=CODE,delta=2,noexec
     5                           	psect	stringtext1,global,class=STRCODE,delta=2,noexec
     6                           	psect	stringtext2,global,class=STRCODE,delta=2,noexec
     7                           	psect	stringtext3,global,class=STRCODE,delta=2,noexec
     8                           	psect	cinit,global,class=CODE,merge=1,delta=2
     9                           	psect	bitbssCOMMON,global,bit,class=COMMON,space=1,delta=1,noexec
    10                           	psect	bssCOMMON,global,class=COMMON,space=1,delta=1,noexec
    11                           	psect	bssBANK0,global,class=BANK0,space=1,delta=1,noexec
    12                           	psect	dataBANK0,global,class=BANK0,space=1,delta=1,noexec
    13                           	psect	clrtext,global,class=CODE,delta=2
    14                           	psect	cstackCOMMON,global,class=COMMON,space=1,delta=1,noexec
    15                           	psect	cstackBANK0,global,class=BANK0,space=1,delta=1,noexec
    16                           	psect	maintext,global,class=CODE,merge=1,split=1,delta=2
    17                           	psect	text1,local,class=CODE,merge=1,delta=2
    18                           	psect	text2,local,class=CODE,merge=1,delta=2
    19                           	psect	text3,local,class=CODE,merge=1,delta=2
    20                           	psect	text4,local,class=CODE,merge=1,delta=2
    21                           	psect	text5,local,class=CODE,merge=1,delta=2
    22                           	psect	text6,local,class=CODE,merge=1,delta=2,group=2
    23                           	psect	text7,local,class=CODE,merge=1,delta=2,group=1
    24                           	psect	intentry,global,class=CODE,delta=2
    25                           	psect	config,global,abs,ovrld,class=CONFIG,space=4,delta=2,noexec
    26                           	dabs	1,0x7E,2
    27  0000                     
    28                           ; Version 2.35
    29                           ; Generated 01/06/2021 GMT
    30                           ; 
    31                           ; Copyright © 2021, Microchip Technology Inc. and its subsidiaries ("Microchip")
    32                           ; All rights reserved.
    33                           ; 
    34                           ; This software is developed by Microchip Technology Inc. and its subsidiaries ("Microch
      +                          ip").
    35                           ; 
    36                           ; Redistribution and use in source and binary forms, with or without modification, are
    37                           ; permitted provided that the following conditions are met:
    38                           ; 
    39                           ;     1. Redistributions of source code must retain the above copyright notice, this lis
      +                          t of
    40                           ;        conditions and the following disclaimer.
    41                           ; 
    42                           ;     2. Redistributions in binary form must reproduce the above copyright notice, this 
      +                          list
    43                           ;        of conditions and the following disclaimer in the documentation and/or other
    44                           ;        materials provided with the distribution. Publication is not required when
    45                           ;        this file is used in an embedded application.
    46                           ; 
    47                           ;     3. Microchip's name may not be used to endorse or promote products derived from th
      +                          is
    48                           ;        software without specific prior written permission.
    49                           ; 
    50                           ; THIS SOFTWARE IS PROVIDED BY MICROCHIP "AS IS" AND ANY EXPRESS OR IMPLIED WARRANTIES,
    51                           ; INCLUDING, BUT NOT LIMITED TO, THE IMPLIED WARRANTIES OF MERCHANTABILITY AND FITNESS F
      +                          OR
    52                           ; PURPOSE ARE DISCLAIMED.  IN NO EVENT SHALL MICROCHIP BE LIABLE FOR ANY DIRECT, INDIREC
      +                          T,
    53                           ; INCIDENTAL, SPECIAL, EXEMPLARY, OR CONSEQUENTIAL DAMAGES (INCLUDING BUT NOT LIMITED TO
    54                           ; PROCUREMENT OF SUBSTITUTE GOODS OR SERVICES; LOSS OF USE, DATA OR PROFITS; OR BUSINESS
    55                           ; INTERRUPTION) HOWSOEVER CAUSED AND ON ANY THEORY OF LIABILITY, WHETHER IN CONTRACT, ST
      +                          RICT
    56                           ; LIABILITY, OR TORT (INCLUDING NEGLIGENCE OR OTHERWISE) ARISING IN ANY WAY OUT OF THE U
      +                          SE OF
    57                           ; THIS SOFTWARE, EVEN IF ADVISED OF THE POSSIBILITY OF SUCH DAMAGE.
    58                           ; 
    59                           ; 
    60                           ; Code-generator required, PIC16F15224 Definitions
    61                           ; 
    62                           ; SFR Addresses
    63  0000                     	;# 
    64  0001                     	;# 
    65  0002                     	;# 
    66  0003                     	;# 
    67  0004                     	;# 
    68  0005                     	;# 
    69  0006                     	;# 
    70  0007                     	;# 
    71  0008                     	;# 
    72  0009                     	;# 
    73  000A                     	;# 
    74  000B                     	;# 
    75  000C                     	;# 
    76  000E                     	;# 
    77  0012                     	;# 
    78  0014                     	;# 
    79  0018                     	;# 
    80  001A                     	;# 
    81  009A                     	;# 
    82  009B                     	;# 
    83  009B                     	;# 
    84  009C                     	;# 
    85  009D                     	;# 
    86  009E                     	;# 
    87  009F                     	;# 
    88  010E                     	;# 
    89  010F                     	;# 
    90  0119                     	;# 
    91  011A                     	;# 
    92  011B                     	;# 
    93  011B                     	;# 
    94  011C                     	;# 
    95  011D                     	;# 
    96  011E                     	;# 
    97  011F                     	;# 
    98  018C                     	;# 
    99  018D                     	;# 
   100  018E                     	;# 
   101  018F                     	;# 
   102  0190                     	;# 
   103  0191                     	;# 
   104  0192                     	;# 
   105  020C                     	;# 
   106  020D                     	;# 
   107  020E                     	;# 
   108  020E                     	;# 
   109  020F                     	;# 
   110  020F                     	;# 
   111  0210                     	;# 
   112  0210                     	;# 
   113  0211                     	;# 
   114  0211                     	;# 
   115  028C                     	;# 
   116  028C                     	;# 
   117  028D                     	;# 
   118  028D                     	;# 
   119  028E                     	;# 
   120  028F                     	;# 
   121  0290                     	;# 
   122  0291                     	;# 
   123  030C                     	;# 
   124  030C                     	;# 
   125  030D                     	;# 
   126  030E                     	;# 
   127  030F                     	;# 
   128  0310                     	;# 
   129  0310                     	;# 
   130  0311                     	;# 
   131  0312                     	;# 
   132  0313                     	;# 
   133  0314                     	;# 
   134  0314                     	;# 
   135  0315                     	;# 
   136  0316                     	;# 
   137  0318                     	;# 
   138  0318                     	;# 
   139  0319                     	;# 
   140  031A                     	;# 
   141  059C                     	;# 
   142  059C                     	;# 
   143  059D                     	;# 
   144  059D                     	;# 
   145  059E                     	;# 
   146  059F                     	;# 
   147  070C                     	;# 
   148  070D                     	;# 
   149  070E                     	;# 
   150  0716                     	;# 
   151  0717                     	;# 
   152  0718                     	;# 
   153  080C                     	;# 
   154  0811                     	;# 
   155  0813                     	;# 
   156  0814                     	;# 
   157  081A                     	;# 
   158  081A                     	;# 
   159  081B                     	;# 
   160  081C                     	;# 
   161  081C                     	;# 
   162  081D                     	;# 
   163  081E                     	;# 
   164  081F                     	;# 
   165  088E                     	;# 
   166  0890                     	;# 
   167  0891                     	;# 
   168  0892                     	;# 
   169  0893                     	;# 
   170  090C                     	;# 
   171  1E8F                     	;# 
   172  1E90                     	;# 
   173  1E91                     	;# 
   174  1E92                     	;# 
   175  1E93                     	;# 
   176  1E9C                     	;# 
   177  1EA1                     	;# 
   178  1EA2                     	;# 
   179  1EC3                     	;# 
   180  1EC5                     	;# 
   181  1EC6                     	;# 
   182  1EC7                     	;# 
   183  1ECB                     	;# 
   184  1ECB                     	;# 
   185  1ECB                     	;# 
   186  1ECC                     	;# 
   187  1ECC                     	;# 
   188  1ECC                     	;# 
   189  1F10                     	;# 
   190  1F11                     	;# 
   191  1F12                     	;# 
   192  1F14                     	;# 
   193  1F15                     	;# 
   194  1F20                     	;# 
   195  1F21                     	;# 
   196  1F22                     	;# 
   197  1F23                     	;# 
   198  1F24                     	;# 
   199  1F25                     	;# 
   200  1F38                     	;# 
   201  1F39                     	;# 
   202  1F3A                     	;# 
   203  1F3B                     	;# 
   204  1F3C                     	;# 
   205  1F3D                     	;# 
   206  1F3E                     	;# 
   207  1F3F                     	;# 
   208  1F4E                     	;# 
   209  1F4F                     	;# 
   210  1F50                     	;# 
   211  1F51                     	;# 
   212  1F52                     	;# 
   213  1F53                     	;# 
   214  1F54                     	;# 
   215  1F55                     	;# 
   216  1FE4                     	;# 
   217  1FE5                     	;# 
   218  1FE6                     	;# 
   219  1FE7                     	;# 
   220  1FE8                     	;# 
   221  1FE8                     	;# 
   222  1FE9                     	;# 
   223  1FEA                     	;# 
   224  1FEB                     	;# 
   225  1FED                     	;# 
   226  1FEE                     	;# 
   227  1FEF                     	;# 
   228                           
   229                           	psect	idataBANK0
   230  079D                     __pidataBANK0:
   231                           
   232                           ;initializer for _noGate
   233  079D  3401               	retlw	1
   234  079E  3400               	retlw	0
   235                           
   236                           	psect	stringtext1
   237  0113                     __pstringtext1:
   238  0113                     _gargoyles:
   239  0113  341E               	retlw	30
   240  0114  3400               	retlw	0
   241  0115  343E               	retlw	62
   242  0116  3406               	retlw	6
   243  0117  341C               	retlw	28
   244  0118  3400               	retlw	0
   245  0119  3466               	retlw	102
   246  011A  3401               	retlw	1
   247  011B  3400               	retlw	0
   248  011C  3400               	retlw	0
   249  011D  3428               	retlw	40
   250  011E  3400               	retlw	0
   251  011F  341A               	retlw	26
   252  0120  3400               	retlw	0
   253  0121  3466               	retlw	102
   254  0122  3401               	retlw	1
   255  0123  3400               	retlw	0
   256  0124  3400               	retlw	0
   257  0125  3428               	retlw	40
   258  0126  3400               	retlw	0
   259  0127  3419               	retlw	25
   260  0128  3400               	retlw	0
   261  0129  3466               	retlw	102
   262  012A  3401               	retlw	1
   263  012B  3400               	retlw	0
   264  012C  3400               	retlw	0
   265  012D  3428               	retlw	40
   266  012E  3400               	retlw	0
   267  012F  3417               	retlw	23
   268  0130  3400               	retlw	0
   269  0131  3466               	retlw	102
   270  0132  3401               	retlw	1
   271  0133  3400               	retlw	0
   272  0134  3400               	retlw	0
   273  0135  3428               	retlw	40
   274  0136  3400               	retlw	0
   275  0137  341F               	retlw	31
   276  0138  3400               	retlw	0
   277  0139  34AE               	retlw	174
   278  013A  3404               	retlw	4
   279  013B  341E               	retlw	30
   280  013C  3400               	retlw	0
   281  013D  34C6               	retlw	198
   282  013E  3400               	retlw	0
   283  013F  341C               	retlw	28
   284  0140  3400               	retlw	0
   285  0141  34C6               	retlw	198
   286  0142  3400               	retlw	0
   287  0143  3419               	retlw	25
   288  0144  3400               	retlw	0
   289  0145  3469               	retlw	105
   290  0146  3405               	retlw	5
   291  0147  3400               	retlw	0
   292  0148  3400               	retlw	0
   293  0149  3450               	retlw	80
   294  014A  3400               	retlw	0
   295  014B  341E               	retlw	30
   296  014C  3400               	retlw	0
   297  014D  343E               	retlw	62
   298  014E  3406               	retlw	6
   299  014F  341A               	retlw	26
   300  0150  3400               	retlw	0
   301  0151  347A               	retlw	122
   302  0152  3401               	retlw	1
   303  0153  3400               	retlw	0
   304  0154  3400               	retlw	0
   305  0155  3414               	retlw	20
   306  0156  3400               	retlw	0
   307  0157  341C               	retlw	28
   308  0158  3400               	retlw	0
   309  0159  347A               	retlw	122
   310  015A  3401               	retlw	1
   311  015B  3400               	retlw	0
   312  015C  3400               	retlw	0
   313  015D  3414               	retlw	20
   314  015E  3400               	retlw	0
   315  015F  341E               	retlw	30
   316  0160  3400               	retlw	0
   317  0161  347A               	retlw	122
   318  0162  3401               	retlw	1
   319  0163  3400               	retlw	0
   320  0164  3400               	retlw	0
   321  0165  3414               	retlw	20
   322  0166  3400               	retlw	0
   323  0167  341C               	retlw	28
   324  0168  3400               	retlw	0
   325  0169  347A               	retlw	122
   326  016A  3401               	retlw	1
   327  016B  3400               	retlw	0
   328  016C  3400               	retlw	0
   329  016D  3414               	retlw	20
   330  016E  3400               	retlw	0
   331  016F  341C               	retlw	28
   332  0170  3400               	retlw	0
   333  0171  34F6               	retlw	246
   334  0172  3402               	retlw	2
   335  0173  3400               	retlw	0
   336  0174  3400               	retlw	0
   337  0175  3428               	retlw	40
   338  0176  3400               	retlw	0
   339  0177  341F               	retlw	31
   340  0178  3400               	retlw	0
   341  0179  34F6               	retlw	246
   342  017A  3402               	retlw	2
   343  017B  3400               	retlw	0
   344  017C  3400               	retlw	0
   345  017D  3428               	retlw	40
   346  017E  3400               	retlw	0
   347  017F  3422               	retlw	34
   348  0180  3400               	retlw	0
   349  0181  3469               	retlw	105
   350  0182  3405               	retlw	5
   351  0183  3400               	retlw	0
   352  0184  3400               	retlw	0
   353  0185  3450               	retlw	80
   354  0186  3400               	retlw	0
   355  0187  341A               	retlw	26
   356  0188  3400               	retlw	0
   357  0189  340A               	retlw	10
   358  018A  3403               	retlw	3
   359  018B  3400               	retlw	0
   360  018C  3400               	retlw	0
   361  018D  3414               	retlw	20
   362  018E  3400               	retlw	0
   363  018F  3419               	retlw	25
   364  0190  3400               	retlw	0
   365  0191  347A               	retlw	122
   366  0192  3401               	retlw	1
   367  0193  3400               	retlw	0
   368  0194  3400               	retlw	0
   369  0195  3414               	retlw	20
   370  0196  3400               	retlw	0
   371  0197  3417               	retlw	23
   372  0198  3400               	retlw	0
   373  0199  3466               	retlw	102
   374  019A  3401               	retlw	1
   375  019B  3400               	retlw	0
   376  019C  3400               	retlw	0
   377  019D  3428               	retlw	40
   378  019E  3400               	retlw	0
   379  019F  3419               	retlw	25
   380  01A0  3400               	retlw	0
   381  01A1  341E               	retlw	30
   382  01A2  3403               	retlw	3
   383  01A3  341C               	retlw	28
   384  01A4  3400               	retlw	0
   385  01A5  34F6               	retlw	246
   386  01A6  3402               	retlw	2
   387  01A7  3400               	retlw	0
   388  01A8  3400               	retlw	0
   389  01A9  3428               	retlw	40
   390  01AA  3400               	retlw	0
   391  01AB  341C               	retlw	28
   392  01AC  3400               	retlw	0
   393  01AD  34F6               	retlw	246
   394  01AE  3402               	retlw	2
   395  01AF  3400               	retlw	0
   396  01B0  3400               	retlw	0
   397  01B1  3428               	retlw	40
   398  01B2  3400               	retlw	0
   399  01B3  341A               	retlw	26
   400  01B4  3400               	retlw	0
   401  01B5  3466               	retlw	102
   402  01B6  3401               	retlw	1
   403  01B7  3400               	retlw	0
   404  01B8  3400               	retlw	0
   405  01B9  3428               	retlw	40
   406  01BA  3400               	retlw	0
   407  01BB  3419               	retlw	25
   408  01BC  3400               	retlw	0
   409  01BD  3466               	retlw	102
   410  01BE  3401               	retlw	1
   411  01BF  3400               	retlw	0
   412  01C0  3400               	retlw	0
   413  01C1  3428               	retlw	40
   414  01C2  3400               	retlw	0
   415  01C3  341A               	retlw	26
   416  01C4  3400               	retlw	0
   417  01C5  341E               	retlw	30
   418  01C6  3403               	retlw	3
   419  01C7  341E               	retlw	30
   420  01C8  3400               	retlw	0
   421  01C9  34F6               	retlw	246
   422  01CA  3402               	retlw	2
   423  01CB  3400               	retlw	0
   424  01CC  3400               	retlw	0
   425  01CD  3428               	retlw	40
   426  01CE  3400               	retlw	0
   427  01CF  341E               	retlw	30
   428  01D0  3400               	retlw	0
   429  01D1  34F6               	retlw	246
   430  01D2  3402               	retlw	2
   431  01D3  3400               	retlw	0
   432  01D4  3400               	retlw	0
   433  01D5  3428               	retlw	40
   434  01D6  3400               	retlw	0
   435  01D7  341D               	retlw	29
   436  01D8  3400               	retlw	0
   437  01D9  3466               	retlw	102
   438  01DA  3401               	retlw	1
   439  01DB  3400               	retlw	0
   440  01DC  3400               	retlw	0
   441  01DD  3428               	retlw	40
   442  01DE  3400               	retlw	0
   443  01DF  341B               	retlw	27
   444  01E0  3400               	retlw	0
   445  01E1  3466               	retlw	102
   446  01E2  3401               	retlw	1
   447  01E3  3400               	retlw	0
   448  01E4  3400               	retlw	0
   449  01E5  3428               	retlw	40
   450  01E6  3400               	retlw	0
   451  01E7  341D               	retlw	29
   452  01E8  3400               	retlw	0
   453  01E9  341E               	retlw	30
   454  01EA  3403               	retlw	3
   455  01EB  3420               	retlw	32
   456  01EC  3400               	retlw	0
   457  01ED  34F6               	retlw	246
   458  01EE  3402               	retlw	2
   459  01EF  3400               	retlw	0
   460  01F0  3400               	retlw	0
   461  01F1  3428               	retlw	40
   462  01F2  3400               	retlw	0
   463  01F3  3420               	retlw	32
   464  01F4  3400               	retlw	0
   465  01F5  34F6               	retlw	246
   466  01F6  3402               	retlw	2
   467  01F7  3400               	retlw	0
   468  01F8  3400               	retlw	0
   469  01F9  3428               	retlw	40
   470  01FA  3400               	retlw	0
   471  01FB  341E               	retlw	30
   472  01FC  3400               	retlw	0
   473  01FD  3466               	retlw	102
   474  01FE  3401               	retlw	1
   475  01FF  3400               	retlw	0
   476  0200  3400               	retlw	0
   477  0201  3428               	retlw	40
   478  0202  3400               	retlw	0
   479  0203  341D               	retlw	29
   480  0204  3400               	retlw	0
   481  0205  3466               	retlw	102
   482  0206  3401               	retlw	1
   483  0207  3400               	retlw	0
   484  0208  3400               	retlw	0
   485  0209  3428               	retlw	40
   486  020A  3400               	retlw	0
   487  020B  3422               	retlw	34
   488  020C  3400               	retlw	0
   489  020D  34EE               	retlw	238
   490  020E  3405               	retlw	5
   491  020F  3400               	retlw	0
   492  0210  3400               	retlw	0
   493  0211  3450               	retlw	80
   494  0212  3400               	retlw	0
   495  0213  341E               	retlw	30
   496  0214  3400               	retlw	0
   497  0215  343E               	retlw	62
   498  0216  3406               	retlw	6
   499  0217  341C               	retlw	28
   500  0218  3400               	retlw	0
   501  0219  3466               	retlw	102
   502  021A  3401               	retlw	1
   503  021B  3400               	retlw	0
   504  021C  3400               	retlw	0
   505  021D  3428               	retlw	40
   506  021E  3400               	retlw	0
   507  021F  341A               	retlw	26
   508  0220  3400               	retlw	0
   509  0221  3466               	retlw	102
   510  0222  3401               	retlw	1
   511  0223  3400               	retlw	0
   512  0224  3400               	retlw	0
   513  0225  3428               	retlw	40
   514  0226  3400               	retlw	0
   515  0227  3419               	retlw	25
   516  0228  3400               	retlw	0
   517  0229  3466               	retlw	102
   518  022A  3401               	retlw	1
   519  022B  3400               	retlw	0
   520  022C  3400               	retlw	0
   521  022D  3428               	retlw	40
   522  022E  3400               	retlw	0
   523  022F  3417               	retlw	23
   524  0230  3400               	retlw	0
   525  0231  3466               	retlw	102
   526  0232  3401               	retlw	1
   527  0233  3400               	retlw	0
   528  0234  3400               	retlw	0
   529  0235  3428               	retlw	40
   530  0236  3400               	retlw	0
   531  0237  341F               	retlw	31
   532  0238  3400               	retlw	0
   533  0239  34AE               	retlw	174
   534  023A  3404               	retlw	4
   535  023B  341E               	retlw	30
   536  023C  3400               	retlw	0
   537  023D  34C6               	retlw	198
   538  023E  3400               	retlw	0
   539  023F  341C               	retlw	28
   540  0240  3400               	retlw	0
   541  0241  34C6               	retlw	198
   542  0242  3400               	retlw	0
   543  0243  3419               	retlw	25
   544  0244  3400               	retlw	0
   545  0245  3469               	retlw	105
   546  0246  3405               	retlw	5
   547  0247  3400               	retlw	0
   548  0248  3400               	retlw	0
   549  0249  3450               	retlw	80
   550  024A  3400               	retlw	0
   551  024B  341E               	retlw	30
   552  024C  3400               	retlw	0
   553  024D  343E               	retlw	62
   554  024E  3406               	retlw	6
   555  024F  341A               	retlw	26
   556  0250  3400               	retlw	0
   557  0251  347A               	retlw	122
   558  0252  3401               	retlw	1
   559  0253  3400               	retlw	0
   560  0254  3400               	retlw	0
   561  0255  3414               	retlw	20
   562  0256  3400               	retlw	0
   563  0257  341C               	retlw	28
   564  0258  3400               	retlw	0
   565  0259  347A               	retlw	122
   566  025A  3401               	retlw	1
   567  025B  3400               	retlw	0
   568  025C  3400               	retlw	0
   569  025D  3414               	retlw	20
   570  025E  3400               	retlw	0
   571  025F  341E               	retlw	30
   572  0260  3400               	retlw	0
   573  0261  347A               	retlw	122
   574  0262  3401               	retlw	1
   575  0263  3400               	retlw	0
   576  0264  3400               	retlw	0
   577  0265  3414               	retlw	20
   578  0266  3400               	retlw	0
   579  0267  341C               	retlw	28
   580  0268  3400               	retlw	0
   581  0269  347A               	retlw	122
   582  026A  3401               	retlw	1
   583  026B  3400               	retlw	0
   584  026C  3400               	retlw	0
   585  026D  3414               	retlw	20
   586  026E  3400               	retlw	0
   587  026F  341C               	retlw	28
   588  0270  3400               	retlw	0
   589  0271  34F6               	retlw	246
   590  0272  3402               	retlw	2
   591  0273  3400               	retlw	0
   592  0274  3400               	retlw	0
   593  0275  3428               	retlw	40
   594  0276  3400               	retlw	0
   595  0277  341F               	retlw	31
   596  0278  3400               	retlw	0
   597  0279  34F6               	retlw	246
   598  027A  3402               	retlw	2
   599  027B  3400               	retlw	0
   600  027C  3400               	retlw	0
   601  027D  3428               	retlw	40
   602  027E  3400               	retlw	0
   603  027F  3422               	retlw	34
   604  0280  3400               	retlw	0
   605  0281  34B9               	retlw	185
   606  0282  3405               	retlw	5
   607  0283  3400               	retlw	0
   608  0284  3400               	retlw	0
   609  0285  3428               	retlw	40
   610  0286  3400               	retlw	0
   611  0287  3423               	retlw	35
   612  0288  3400               	retlw	0
   613  0289  340A               	retlw	10
   614  028A  3403               	retlw	3
   615  028B  3400               	retlw	0
   616  028C  3400               	retlw	0
   617  028D  3414               	retlw	20
   618  028E  3400               	retlw	0
   619  028F  3423               	retlw	35
   620  0290  3400               	retlw	0
   621  0291  346F               	retlw	111
   622  0292  3400               	retlw	0
   623  0293  3400               	retlw	0
   624  0294  3400               	retlw	0
   625  0295  3414               	retlw	20
   626  0296  3400               	retlw	0
   627  0297  3423               	retlw	35
   628  0298  3400               	retlw	0
   629  0299  346F               	retlw	111
   630  029A  3400               	retlw	0
   631  029B  3400               	retlw	0
   632  029C  3400               	retlw	0
   633  029D  3414               	retlw	20
   634  029E  3400               	retlw	0
   635  029F  3423               	retlw	35
   636  02A0  3400               	retlw	0
   637  02A1  346F               	retlw	111
   638  02A2  3400               	retlw	0
   639  02A3  3400               	retlw	0
   640  02A4  3400               	retlw	0
   641  02A5  3414               	retlw	20
   642  02A6  3400               	retlw	0
   643  02A7  3423               	retlw	35
   644  02A8  3400               	retlw	0
   645  02A9  340A               	retlw	10
   646  02AA  3403               	retlw	3
   647  02AB  3400               	retlw	0
   648  02AC  3400               	retlw	0
   649  02AD  3414               	retlw	20
   650  02AE  3400               	retlw	0
   651  02AF  3423               	retlw	35
   652  02B0  3400               	retlw	0
   653  02B1  346F               	retlw	111
   654  02B2  3400               	retlw	0
   655  02B3  3400               	retlw	0
   656  02B4  3400               	retlw	0
   657  02B5  3414               	retlw	20
   658  02B6  3400               	retlw	0
   659  02B7  3423               	retlw	35
   660  02B8  3400               	retlw	0
   661  02B9  346F               	retlw	111
   662  02BA  3400               	retlw	0
   663  02BB  3400               	retlw	0
   664  02BC  3400               	retlw	0
   665  02BD  3414               	retlw	20
   666  02BE  3400               	retlw	0
   667  02BF  3423               	retlw	35
   668  02C0  3400               	retlw	0
   669  02C1  346F               	retlw	111
   670  02C2  3400               	retlw	0
   671  02C3  3400               	retlw	0
   672  02C4  3400               	retlw	0
   673  02C5  3414               	retlw	20
   674  02C6  3400               	retlw	0
   675  02C7  3423               	retlw	35
   676  02C8  3400               	retlw	0
   677  02C9  346F               	retlw	111
   678  02CA  3400               	retlw	0
   679  02CB  3400               	retlw	0
   680  02CC  3400               	retlw	0
   681  02CD  3414               	retlw	20
   682  02CE  3400               	retlw	0
   683  02CF  3423               	retlw	35
   684  02D0  3400               	retlw	0
   685  02D1  341E               	retlw	30
   686  02D2  3403               	retlw	3
   687  02D3                     __end_of_gargoyles:
   688                           
   689                           	psect	stringtext2
   690  02D3                     __pstringtext2:
   691  02D3                     _sheRa:
   692  02D3  340B               	retlw	11
   693  02D4  3400               	retlw	0
   694  02D5  34D8               	retlw	216
   695  02D6  3400               	retlw	0
   696  02D7  340D               	retlw	13
   697  02D8  3400               	retlw	0
   698  02D9  34D8               	retlw	216
   699  02DA  3400               	retlw	0
   700  02DB  340E               	retlw	14
   701  02DC  3400               	retlw	0
   702  02DD  349C               	retlw	156
   703  02DE  3401               	retlw	1
   704  02DF  3400               	retlw	0
   705  02E0  3400               	retlw	0
   706  02E1  3415               	retlw	21
   707  02E2  3400               	retlw	0
   708  02E3  3412               	retlw	18
   709  02E4  3400               	retlw	0
   710  02E5  34A7               	retlw	167
   711  02E6  3401               	retlw	1
   712  02E7  3400               	retlw	0
   713  02E8  3400               	retlw	0
   714  02E9  3415               	retlw	21
   715  02EA  3400               	retlw	0
   716  02EB  3413               	retlw	19
   717  02EC  3400               	retlw	0
   718  02ED  348B               	retlw	139
   719  02EE  3402               	retlw	2
   720  02EF  3412               	retlw	18
   721  02F0  3400               	retlw	0
   722  02F1  346B               	retlw	107
   723  02F2  3400               	retlw	0
   724  02F3  3410               	retlw	16
   725  02F4  3400               	retlw	0
   726  02F5  346B               	retlw	107
   727  02F6  3400               	retlw	0
   728  02F7  3412               	retlw	18
   729  02F8  3400               	retlw	0
   730  02F9  3464               	retlw	100
   731  02FA  3403               	retlw	3
   732  02FB  3400               	retlw	0
   733  02FC  3400               	retlw	0
   734  02FD  34B1               	retlw	177
   735  02FE  3401               	retlw	1
   736  02FF  340B               	retlw	11
   737  0300  3400               	retlw	0
   738  0301  34D8               	retlw	216
   739  0302  3400               	retlw	0
   740  0303  340D               	retlw	13
   741  0304  3400               	retlw	0
   742  0305  34D8               	retlw	216
   743  0306  3400               	retlw	0
   744  0307  340E               	retlw	14
   745  0308  3400               	retlw	0
   746  0309  34B1               	retlw	177
   747  030A  3401               	retlw	1
   748  030B  3412               	retlw	18
   749  030C  3400               	retlw	0
   750  030D  34B1               	retlw	177
   751  030E  3401               	retlw	1
   752  030F  3417               	retlw	23
   753  0310  3400               	retlw	0
   754  0311  349C               	retlw	156
   755  0312  3401               	retlw	1
   756  0313  3400               	retlw	0
   757  0314  3400               	retlw	0
   758  0315  3415               	retlw	21
   759  0316  3400               	retlw	0
   760  0317  3415               	retlw	21
   761  0318  3400               	retlw	0
   762  0319  349C               	retlw	156
   763  031A  3401               	retlw	1
   764  031B  3400               	retlw	0
   765  031C  3400               	retlw	0
   766  031D  3415               	retlw	21
   767  031E  3400               	retlw	0
   768  031F  3412               	retlw	18
   769  0320  3400               	retlw	0
   770  0321  3464               	retlw	100
   771  0322  3403               	retlw	3
   772  0323  3400               	retlw	0
   773  0324  3400               	retlw	0
   774  0325  34B1               	retlw	177
   775  0326  3401               	retlw	1
   776  0327  340B               	retlw	11
   777  0328  3400               	retlw	0
   778  0329  34D8               	retlw	216
   779  032A  3400               	retlw	0
   780  032B  340D               	retlw	13
   781  032C  3400               	retlw	0
   782  032D  34D8               	retlw	216
   783  032E  3400               	retlw	0
   784  032F  340E               	retlw	14
   785  0330  3400               	retlw	0
   786  0331  34B1               	retlw	177
   787  0332  3401               	retlw	1
   788  0333  3412               	retlw	18
   789  0334  3400               	retlw	0
   790  0335  34B1               	retlw	177
   791  0336  3401               	retlw	1
   792  0337  3413               	retlw	19
   793  0338  3400               	retlw	0
   794  0339  348B               	retlw	139
   795  033A  3402               	retlw	2
   796  033B  3412               	retlw	18
   797  033C  3400               	retlw	0
   798  033D  346B               	retlw	107
   799  033E  3400               	retlw	0
   800  033F  3410               	retlw	16
   801  0340  3400               	retlw	0
   802  0341  346B               	retlw	107
   803  0342  3400               	retlw	0
   804  0343  3412               	retlw	18
   805  0344  3400               	retlw	0
   806  0345  3464               	retlw	100
   807  0346  3403               	retlw	3
   808  0347  3413               	retlw	19
   809  0348  3400               	retlw	0
   810  0349  342F               	retlw	47
   811  034A  3401               	retlw	1
   812  034B  3400               	retlw	0
   813  034C  3400               	retlw	0
   814  034D  3415               	retlw	21
   815  034E  3400               	retlw	0
   816  034F  3412               	retlw	18
   817  0350  3400               	retlw	0
   818  0351  342F               	retlw	47
   819  0352  3401               	retlw	1
   820  0353  3400               	retlw	0
   821  0354  3400               	retlw	0
   822  0355  3415               	retlw	21
   823  0356  3400               	retlw	0
   824  0357  3413               	retlw	19
   825  0358  3400               	retlw	0
   826  0359  34C2               	retlw	194
   827  035A  3400               	retlw	0
   828  035B  3400               	retlw	0
   829  035C  3400               	retlw	0
   830  035D  3415               	retlw	21
   831  035E  3400               	retlw	0
   832  035F  3415               	retlw	21
   833  0360  3400               	retlw	0
   834  0361  348B               	retlw	139
   835  0362  3402               	retlw	2
   836  0363  3412               	retlw	18
   837  0364  3400               	retlw	0
   838  0365  3462               	retlw	98
   839  0366  3400               	retlw	0
   840  0367  3410               	retlw	16
   841  0368  3400               	retlw	0
   842  0369  346B               	retlw	107
   843  036A  3400               	retlw	0
   844  036B  3412               	retlw	18
   845  036C  3400               	retlw	0
   846  036D  34CA               	retlw	202
   847  036E  3406               	retlw	6
   848  036F  3400               	retlw	0
   849  0370  3400               	retlw	0
   850  0371  34B1               	retlw	177
   851  0372  3401               	retlw	1
   852  0373  3414               	retlw	20
   853  0374  3400               	retlw	0
   854  0375  34D8               	retlw	216
   855  0376  3400               	retlw	0
   856  0377  3416               	retlw	22
   857  0378  3400               	retlw	0
   858  0379  34D8               	retlw	216
   859  037A  3400               	retlw	0
   860  037B  3417               	retlw	23
   861  037C  3400               	retlw	0
   862  037D  34B1               	retlw	177
   863  037E  3401               	retlw	1
   864  037F  341B               	retlw	27
   865  0380  3400               	retlw	0
   866  0381  34B1               	retlw	177
   867  0382  3401               	retlw	1
   868  0383  341C               	retlw	28
   869  0384  3400               	retlw	0
   870  0385  348B               	retlw	139
   871  0386  3402               	retlw	2
   872  0387  341B               	retlw	27
   873  0388  3400               	retlw	0
   874  0389  346B               	retlw	107
   875  038A  3400               	retlw	0
   876  038B  3419               	retlw	25
   877  038C  3400               	retlw	0
   878  038D  346B               	retlw	107
   879  038E  3400               	retlw	0
   880  038F  341B               	retlw	27
   881  0390  3400               	retlw	0
   882  0391  344E               	retlw	78
   883  0392  3403               	retlw	3
   884  0393  3400               	retlw	0
   885  0394  3400               	retlw	0
   886  0395  3415               	retlw	21
   887  0396  3400               	retlw	0
   888  0397  341C               	retlw	28
   889  0398  3400               	retlw	0
   890  0399  342F               	retlw	47
   891  039A  3401               	retlw	1
   892  039B  3400               	retlw	0
   893  039C  3400               	retlw	0
   894  039D  3415               	retlw	21
   895  039E  3400               	retlw	0
   896  039F  341B               	retlw	27
   897  03A0  3400               	retlw	0
   898  03A1  342F               	retlw	47
   899  03A2  3401               	retlw	1
   900  03A3  3400               	retlw	0
   901  03A4  3400               	retlw	0
   902  03A5  3415               	retlw	21
   903  03A6  3400               	retlw	0
   904  03A7  341C               	retlw	28
   905  03A8  3400               	retlw	0
   906  03A9  34C2               	retlw	194
   907  03AA  3400               	retlw	0
   908  03AB  3400               	retlw	0
   909  03AC  3400               	retlw	0
   910  03AD  3415               	retlw	21
   911  03AE  3400               	retlw	0
   912  03AF  341E               	retlw	30
   913  03B0  3400               	retlw	0
   914  03B1  3475               	retlw	117
   915  03B2  3402               	retlw	2
   916  03B3  3400               	retlw	0
   917  03B4  3400               	retlw	0
   918  03B5  3415               	retlw	21
   919  03B6  3400               	retlw	0
   920  03B7  3420               	retlw	32
   921  03B8  3400               	retlw	0
   922  03B9  346B               	retlw	107
   923  03BA  3400               	retlw	0
   924  03BB  3422               	retlw	34
   925  03BC  3400               	retlw	0
   926  03BD  346B               	retlw	107
   927  03BE  3400               	retlw	0
   928  03BF  3423               	retlw	35
   929  03C0  3400               	retlw	0
   930  03C1  34CA               	retlw	202
   931  03C2  3406               	retlw	6
   932  03C3                     __end_of_sheRa:
   933                           
   934                           	psect	stringtext3
   935  072F                     __pstringtext3:
   936  072F                     _notes:
   937  072F  34ED               	retlw	237
   938  0730  34E0               	retlw	224
   939  0731  34D3               	retlw	211
   940  0732  34C7               	retlw	199
   941  0733  34BD               	retlw	189
   942  0734  34B2               	retlw	178
   943  0735  34A8               	retlw	168
   944  0736  349E               	retlw	158
   945  0737  3496               	retlw	150
   946  0738  348D               	retlw	141
   947  0739  3485               	retlw	133
   948  073A  347D               	retlw	125
   949  073B  3476               	retlw	118
   950  073C  3470               	retlw	112
   951  073D  346A               	retlw	106
   952  073E  3463               	retlw	99
   953  073F  345E               	retlw	94
   954  0740  3459               	retlw	89
   955  0741  3454               	retlw	84
   956  0742  344F               	retlw	79
   957  0743  344B               	retlw	75
   958  0744  3446               	retlw	70
   959  0745  3442               	retlw	66
   960  0746  343F               	retlw	63
   961  0747  343B               	retlw	59
   962  0748  3438               	retlw	56
   963  0749  3434               	retlw	52
   964  074A  3432               	retlw	50
   965  074B  342F               	retlw	47
   966  074C  342C               	retlw	44
   967  074D  342A               	retlw	42
   968  074E  3427               	retlw	39
   969  074F  3425               	retlw	37
   970  0750  3423               	retlw	35
   971  0751  3421               	retlw	33
   972  0752  341F               	retlw	31
   973  0753                     __end_of_notes:
   974  000C                     _PORTA	set	12
   975  000C                     _PORTAbits	set	12
   976  005F                     _GIE	set	95
   977  005E                     _PEIE	set	94
   978  00D5                     _LATC5	set	213
   979  00D4                     _LATC4	set	212
   980  00D3                     _LATC3	set	211
   981  00D2                     _LATC2	set	210
   982  00D1                     _LATC1	set	209
   983  00D0                     _LATC0	set	208
   984  00C2                     _LATA2	set	194
   985  00C1                     _LATA1	set	193
   986  00A5                     _TRISC5	set	165
   987  00A4                     _TRISC4	set	164
   988  00A3                     _TRISC3	set	163
   989  00A2                     _TRISC2	set	162
   990  00A1                     _TRISC1	set	161
   991  00A0                     _TRISC0	set	160
   992  0095                     _TRISA5	set	149
   993  0094                     _TRISA4	set	148
   994  0093                     _TRISA3	set	147
   995  0092                     _TRISA2	set	146
   996  0091                     _TRISA1	set	145
   997  0090                     _TRISA0	set	144
   998  009B                     _ADRES	set	155
   999  009D                     _ADCON0bits	set	157
  1000  009E                     _ADCON1bits	set	158
  1001  028F                     _T2HLTbits	set	655
  1002  028E                     _T2CONbits	set	654
  1003  0290                     _T2CLKCON	set	656
  1004  028D                     _PR2	set	653
  1005  059F                     _T0CON1bits	set	1439
  1006  059E                     _T0CON0bits	set	1438
  1007  070D                     _PIR1bits	set	1805
  1008  070C                     _PIR0bits	set	1804
  1009  38B4                     _IOCIE	set	14516
  1010  38B0                     _INTE	set	14512
  1011  38BE                     _TMR2IE	set	14526
  1012  38B5                     _TMR0IE	set	14517
  1013  081C                     _NVMDAT	set	2076
  1014  081A                     _NVMADR	set	2074
  1015  081E                     _NVMCON1bits	set	2078
  1016  0891                     _OSCENbits	set	2193
  1017  0893                     _OSCFRQbits	set	2195
  1018  090C                     _FVRCONbits	set	2316
  1019  1F4E                     _ANSELC	set	8014
  1020  1F38                     _ANSELAbits	set	7992
  1021  F9FB                     _IOCAF3	set	63995
  1022  F9F8                     _IOCAF0	set	63992
  1023  F9EB                     _IOCAP3	set	63979
  1024  F9F3                     _IOCAN3	set	63987
  1025  F9E8                     _IOCAP0	set	63976
  1026  F9F0                     _IOCAN0	set	63984
  1027  F9CB                     _WPUA3	set	63947
  1028  F9C8                     _WPUA0	set	63944
  1029                           
  1030                           	psect	cinit
  1031  00FC                     start_initialization:	
  1032                           ; #config settings
  1033                           
  1034  00FC                     __initialization:
  1035                           
  1036                           ; Initialize objects allocated to BANK0
  1037  00FC  3187  279D  3180   	fcall	__pidataBANK0	;fetch initializer
  1038  00FF  00E6               	movwf	__pdataBANK0& (0+127)
  1039  0100  3187  279E  3180   	fcall	__pidataBANK0+1	;fetch initializer
  1040  0103  00E7               	movwf	(__pdataBANK0+1)& (0+127)
  1041                           
  1042                           ; Clear objects allocated to BITCOMMON
  1043  0104  01FC               	clrf	(__pbitbssCOMMON/(0+8))& (0+127)
  1044                           
  1045                           ; Clear objects allocated to COMMON
  1046  0105  01FA               	clrf	__pbssCOMMON& (0+127)
  1047  0106  01FB               	clrf	(__pbssCOMMON+1)& (0+127)
  1048                           
  1049                           ; Clear objects allocated to BANK0
  1050  0107  3020               	movlw	low __pbssBANK0
  1051  0108  0084               	movwf	4
  1052  0109  3000               	movlw	high __pbssBANK0
  1053  010A  0085               	movwf	5
  1054  010B  3033               	movlw	51
  1055  010C  3187  2797  3180   	fcall	clear_ram0
  1056  010F                     end_of_initialization:	
  1057                           ;End of C runtime variable initialization code
  1058                           
  1059  010F                     __end_of__initialization:
  1060  010F  107E               	bcf	int$flags,0	;clear compiler interrupt flag (level 1)
  1061  0110  0140               	movlb	0
  1062  0111  3183  2BC3         	ljmp	_main	;jump to C main() function
  1063                           
  1064                           	psect	bitbssCOMMON
  1065  03E0                     __pbitbssCOMMON:
  1066  03E0                     _pinState:
  1067  03E0                     	ds	1
  1068                           
  1069                           	psect	bssCOMMON
  1070  007A                     __pbssCOMMON:
  1071  007A                     _i:
  1072  007A                     	ds	2
  1073                           
  1074                           	psect	bssBANK0
  1075  0020                     __pbssBANK0:
  1076  0020                     _voltConvert:
  1077  0020                     	ds	4
  1078  0024                     _calibrationMV:
  1079  0024                     	ds	2
  1080  0026                     _adcVolts:
  1081  0026                     	ds	2
  1082  0028                     _battVolts:
  1083  0028                     	ds	2
  1084  002A                     _charging:
  1085  002A                     	ds	2
  1086  002C                     _gotTheTouch:
  1087  002C                     	ds	2
  1088  002E                     _lidOpen:
  1089  002E                     	ds	2
  1090  0030                     _lowPowerMode:
  1091  0030                     	ds	2
  1092  0032                     _showCharge:
  1093  0032                     	ds	2
  1094  0034                     _poweredOn:
  1095  0034                     	ds	2
  1096  0036                     _genericDelay:
  1097  0036                     	ds	2
  1098  0038                     _playIndex:
  1099  0038                     	ds	2
  1100  003A                     _postscaler:
  1101  003A                     	ds	2
  1102  003C                     _abortAbort:
  1103  003C                     	ds	2
  1104  003E                     _gate:
  1105  003E                     	ds	2
  1106  0040                     _forceArc:
  1107  0040                     	ds	2
  1108  0042                     _chargeCycle:
  1109  0042                     	ds	1
  1110  0043                     _runIndex:
  1111  0043                     	ds	1
  1112  0044                     _buttonDebounce:
  1113  0044                     	ds	1
  1114  0045                     _clockDivider:
  1115  0045                     	ds	1
  1116  0046                     _debugging:
  1117  0046                     	ds	1
  1118  0047                     _aPorts:
  1119  0047                     	ds	12
  1120                           
  1121                           	psect	dataBANK0
  1122  0066                     __pdataBANK0:
  1123  0066                     _noGate:
  1124  0066                     	ds	2
  1125                           
  1126                           	psect	clrtext
  1127  0797                     clear_ram0:	
  1128                           ;	Called with FSR0 containing the base address, and
  1129                           ;	WREG with the size to clear
  1130                           
  1131  0797  0064               	clrwdt	;clear the watchdog before getting into this loop
  1132  0798                     clrloop0:
  1133  0798  0180               	clrf	0	;clear RAM location pointed to by FSR
  1134  0799  3101               	addfsr 0,1
  1135  079A  0B89               	decfsz	9,f	;Have we reached the end of clearing yet?
  1136  079B  2F98               	goto	clrloop0	;have we reached the end yet?
  1137  079C  3400               	retlw	0	;all done for this memory range, return
  1138                           
  1139                           	psect	cstackCOMMON
  1140  0070                     __pcstackCOMMON:
  1141  0070                     ?_chargeIndicator:
  1142  0070                     ?_doTheArc:	
  1143                           ; 1 bytes @ 0x0
  1144                           
  1145  0070                     ?_goToLPmode:	
  1146                           ; 1 bytes @ 0x0
  1147                           
  1148  0070                     ?_isr:	
  1149                           ; 1 bytes @ 0x0
  1150                           
  1151  0070                     ??_isr:	
  1152                           ; 1 bytes @ 0x0
  1153                           
  1154                           
  1155                           ; 1 bytes @ 0x0
  1156  0070                     	ds	1
  1157  0071                     ?_ButtonDebounceInit:
  1158  0071                     ?_blockingDelay:	
  1159                           ; 1 bytes @ 0x1
  1160                           
  1161  0071                     ?___aldiv:	
  1162                           ; 1 bytes @ 0x1
  1163                           
  1164  0071                     ButtonDebounceInit@pulledUpButtons:	
  1165                           ; 4 bytes @ 0x1
  1166                           
  1167  0071                     blockingDelay@mSecs:	
  1168                           ; 1 bytes @ 0x1
  1169                           
  1170  0071                     ___aldiv@divisor:	
  1171                           ; 2 bytes @ 0x1
  1172                           
  1173                           
  1174                           ; 4 bytes @ 0x1
  1175  0071                     	ds	1
  1176  0072                     ??_ButtonDebounceInit:
  1177                           
  1178                           ; 1 bytes @ 0x2
  1179  0072                     	ds	1
  1180  0073                     ??_blockingDelay:
  1181  0073                     ?_playNote:	
  1182                           ; 1 bytes @ 0x3
  1183                           
  1184  0073                     ButtonDebounceInit@i:	
  1185                           ; 1 bytes @ 0x3
  1186                           
  1187  0073                     playNote@note:	
  1188                           ; 1 bytes @ 0x3
  1189                           
  1190                           
  1191                           ; 2 bytes @ 0x3
  1192  0073                     	ds	1
  1193  0074                     ButtonDebounceInit@port:
  1194                           
  1195                           ; 1 bytes @ 0x4
  1196  0074                     	ds	1
  1197  0075                     playNote@duration:
  1198  0075                     ___aldiv@dividend:	
  1199                           ; 2 bytes @ 0x5
  1200                           
  1201                           
  1202                           ; 4 bytes @ 0x5
  1203  0075                     	ds	2
  1204  0077                     ??_doTheArc:
  1205  0077                     ??_goToLPmode:	
  1206                           ; 1 bytes @ 0x7
  1207                           
  1208  0077                     ??_playNote:	
  1209                           ; 1 bytes @ 0x7
  1210                           
  1211                           
  1212                           ; 1 bytes @ 0x7
  1213  0077                     	ds	2
  1214  0079                     ??___aldiv:
  1215                           
  1216                           ; 1 bytes @ 0x9
  1217  0079                     	ds	1
  1218                           
  1219                           	psect	cstackBANK0
  1220  0053                     __pcstackBANK0:
  1221  0053                     ___aldiv@counter:
  1222                           
  1223                           ; 1 bytes @ 0x0
  1224  0053                     	ds	1
  1225  0054                     ___aldiv@sign:
  1226                           
  1227                           ; 1 bytes @ 0x1
  1228  0054                     	ds	1
  1229  0055                     ___aldiv@quotient:
  1230                           
  1231                           ; 4 bytes @ 0x2
  1232  0055                     	ds	4
  1233  0059                     ??_chargeIndicator:
  1234                           
  1235                           ; 1 bytes @ 0x6
  1236  0059                     	ds	4
  1237  005D                     _chargeIndicator$1120:
  1238                           
  1239                           ; 4 bytes @ 0xA
  1240  005D                     	ds	4
  1241  0061                     ?_main:
  1242  0061                     main@argc:	
  1243                           ; 2 bytes @ 0xE
  1244                           
  1245                           
  1246                           ; 2 bytes @ 0xE
  1247  0061                     	ds	2
  1248  0063                     main@argv:
  1249                           
  1250                           ; 2 bytes @ 0x10
  1251  0063                     	ds	2
  1252  0065                     ??_main:
  1253                           
  1254                           ; 1 bytes @ 0x12
  1255  0065                     	ds	1
  1256                           
  1257                           	psect	maintext
  1258  03C3                     __pmaintext:	
  1259 ;;
  1260 ;;Main: autosize = 0, tempsize = 1, incstack = 0, save=0
  1261 ;;
  1262 ;; *************** function _main *****************
  1263 ;; Defined at:
  1264 ;;		line 366 in file "main.c"
  1265 ;; Parameters:    Size  Location     Type
  1266 ;;  argc            2   14[BANK0 ] int 
  1267 ;;  argv            2   16[BANK0 ] PTR PTR unsigned char 
  1268 ;; Auto vars:     Size  Location     Type
  1269 ;;		None
  1270 ;; Return value:  Size  Location     Type
  1271 ;;                  2   14[BANK0 ] int 
  1272 ;; Registers used:
  1273 ;;		wreg, fsr0l, fsr0h, fsr1l, fsr1h, status,2, status,0, pclath, cstack
  1274 ;; Tracked objects:
  1275 ;;		On entry : B3F/0
  1276 ;;		On exit  : 0/0
  1277 ;;		Unchanged: 0/0
  1278 ;; Data sizes:     COMMON   BANK0   BANK1   BANK2   BANK3   BANK4   BANK5   BANK6
  1279 ;;      Params:         0       4       0       0       0       0       0       0
  1280 ;;      Locals:         0       0       0       0       0       0       0       0
  1281 ;;      Temps:          0       1       0       0       0       0       0       0
  1282 ;;      Totals:         0       5       0       0       0       0       0       0
  1283 ;;Total ram usage:        5 bytes
  1284 ;; Hardware stack levels required when called: 4
  1285 ;; This function calls:
  1286 ;;		_ButtonDebounceInit
  1287 ;;		_blockingDelay
  1288 ;;		_chargeIndicator
  1289 ;;		_doTheArc
  1290 ;;		_goToLPmode
  1291 ;; This function is called by:
  1292 ;;		Startup code after reset
  1293 ;; This function uses a non-reentrant model
  1294 ;;
  1295                           
  1296                           
  1297                           ;psect for function _main
  1298  03C3                     _main:
  1299  03C3                     l1800:	
  1300                           ;incstack = 0
  1301                           ; Regs used in _main: [wreg-fsr1h+status,2+status,0+pclath+cstack]
  1302                           
  1303                           
  1304                           ;main.c: 370:     ANSELAbits.ANSA0 = 0;
  1305  03C3  017E               	movlb	62	; select bank62
  1306  03C4  1038               	bcf	56,0	;volatile
  1307                           
  1308                           ;main.c: 371:     ANSELAbits.ANSA1 = 0;
  1309  03C5  10B8               	bcf	56,1	;volatile
  1310                           
  1311                           ;main.c: 372:     ANSELAbits.ANSA2 = 0;
  1312  03C6  1138               	bcf	56,2	;volatile
  1313                           
  1314                           ;main.c: 374:     ANSELAbits.ANSA4 = 1;
  1315  03C7  1638               	bsf	56,4	;volatile
  1316                           
  1317                           ;main.c: 375:     ANSELAbits.ANSA5 = 0;
  1318  03C8  12B8               	bcf	56,5	;volatile
  1319  03C9                     l1802:
  1320                           
  1321                           ;main.c: 381:     ANSELC = 0x0;
  1322  03C9  01CE               	clrf	78	;volatile
  1323  03CA                     l1804:
  1324                           
  1325                           ;main.c: 385:     TRISA0 = 1;
  1326  03CA  0140               	movlb	0	; select bank0
  1327  03CB  1412               	bsf	18,0	;volatile
  1328  03CC                     l1806:
  1329                           
  1330                           ;main.c: 386:     WPUA0 = 1;
  1331  03CC  017E               	movlb	62	; select bank62
  1332  03CD  1439               	bsf	57,0	;volatile
  1333  03CE                     l1808:
  1334                           
  1335                           ;main.c: 387:     TRISA1 = 0;
  1336  03CE  0140               	movlb	0	; select bank0
  1337  03CF  1092               	bcf	18,1	;volatile
  1338  03D0                     l1810:
  1339                           
  1340                           ;main.c: 388:     TRISA2 = 0;
  1341  03D0  1112               	bcf	18,2	;volatile
  1342  03D1                     l1812:
  1343                           
  1344                           ;main.c: 389:     TRISA3 = 1;
  1345  03D1  1592               	bsf	18,3	;volatile
  1346  03D2                     l1814:
  1347                           
  1348                           ;main.c: 390:     WPUA3 = 1;
  1349  03D2  017E               	movlb	62	; select bank62
  1350  03D3  15B9               	bsf	57,3	;volatile
  1351  03D4                     l1816:
  1352                           
  1353                           ;main.c: 391:     TRISA4 = 1;
  1354  03D4  0140               	movlb	0	; select bank0
  1355  03D5  1612               	bsf	18,4	;volatile
  1356  03D6                     l1818:
  1357                           
  1358                           ;main.c: 392:     TRISA5 = 1;
  1359  03D6  1692               	bsf	18,5	;volatile
  1360  03D7                     l1820:
  1361                           
  1362                           ;main.c: 393:     TRISC0 = 0;
  1363  03D7  1014               	bcf	20,0	;volatile
  1364  03D8                     l1822:
  1365                           
  1366                           ;main.c: 394:     TRISC1 = 0;
  1367  03D8  1094               	bcf	20,1	;volatile
  1368  03D9                     l1824:
  1369                           
  1370                           ;main.c: 395:     TRISC2 = 0;
  1371  03D9  1114               	bcf	20,2	;volatile
  1372  03DA                     l1826:
  1373                           
  1374                           ;main.c: 396:     TRISC3 = 0;
  1375  03DA  1194               	bcf	20,3	;volatile
  1376  03DB                     l1828:
  1377                           
  1378                           ;main.c: 397:     TRISC4 = 0;
  1379  03DB  1214               	bcf	20,4	;volatile
  1380  03DC                     l1830:
  1381                           
  1382                           ;main.c: 398:     TRISC5 = 0;
  1383  03DC  1294               	bcf	20,5	;volatile
  1384  03DD                     l1832:
  1385                           
  1386                           ;main.c: 401:     LATA1 = 1;
  1387  03DD  1498               	bsf	24,1	;volatile
  1388  03DE                     l1834:
  1389                           
  1390                           ;main.c: 402:     LATA2 = 1;
  1391  03DE  1518               	bsf	24,2	;volatile
  1392  03DF                     l1836:
  1393                           
  1394                           ;main.c: 403:     LATC0 = 1;
  1395  03DF  141A               	bsf	26,0	;volatile
  1396  03E0                     l1838:
  1397                           
  1398                           ;main.c: 404:     LATC1 = 1;
  1399  03E0  149A               	bsf	26,1	;volatile
  1400  03E1                     l1840:
  1401                           
  1402                           ;main.c: 405:     LATC2 = 1;
  1403  03E1  151A               	bsf	26,2	;volatile
  1404  03E2                     l1842:
  1405                           
  1406                           ;main.c: 406:     LATC3 = 0;
  1407  03E2  119A               	bcf	26,3	;volatile
  1408  03E3                     l1844:
  1409                           
  1410                           ;main.c: 407:     LATC4 = 0;
  1411  03E3  121A               	bcf	26,4	;volatile
  1412  03E4                     l1846:
  1413                           
  1414                           ;main.c: 408:     LATC5 = 0;
  1415  03E4  129A               	bcf	26,5	;volatile
  1416  03E5                     l1848:
  1417                           
  1418                           ;main.c: 411:     ButtonDebounceInit(&aPorts, (0x0001) | (0x0008));
  1419  03E5  3009               	movlw	9
  1420  03E6  00E5               	movwf	??_main
  1421  03E7  0865               	movf	??_main,w
  1422  03E8  00F1               	movwf	ButtonDebounceInit@pulledUpButtons
  1423  03E9  3047               	movlw	(low (_aPorts| 0))& (0+255)
  1424  03EA  3187  2704  3183   	fcall	_ButtonDebounceInit
  1425  03ED                     l1850:
  1426                           
  1427                           ;main.c: 418:     OSCFRQbits.FRQ = 0b101;
  1428  03ED  0151               	movlb	17	; select bank17
  1429  03EE  0813               	movf	19,w	;volatile
  1430  03EF  39F8               	andlw	-8
  1431  03F0  3805               	iorlw	5
  1432  03F1  0093               	movwf	19	;volatile
  1433  03F2                     l1852:
  1434                           
  1435                           ;main.c: 419:     OSCENbits.HFOEN = 1;
  1436  03F2  1711               	bsf	17,6	;volatile
  1437  03F3                     l1854:
  1438                           
  1439                           ;main.c: 423:     T0CON0bits.MD16 = 0;
  1440  03F3  014B               	movlb	11	; select bank11
  1441  03F4  121E               	bcf	30,4	;volatile
  1442  03F5                     l1856:
  1443                           
  1444                           ;main.c: 424:     T0CON0bits.OUTPS = 0b0000;
  1445  03F5  30F0               	movlw	-16
  1446  03F6  059E               	andwf	30,f	;volatile
  1447  03F7                     l1858:
  1448                           
  1449                           ;main.c: 425:     T0CON1bits.CS = 0b010;
  1450  03F7  081F               	movf	31,w	;volatile
  1451  03F8  391F               	andlw	-225
  1452  03F9  3840               	iorlw	64
  1453  03FA  009F               	movwf	31	;volatile
  1454  03FB                     l1860:
  1455                           
  1456                           ;main.c: 426:     T0CON1bits.ASYNC = 0;
  1457  03FB  121F               	bcf	31,4	;volatile
  1458  03FC                     l1862:
  1459                           
  1460                           ;main.c: 427:     T0CON1bits.CKPS = 0b0001;
  1461  03FC  081F               	movf	31,w	;volatile
  1462  03FD  39F0               	andlw	-16
  1463  03FE  3801               	iorlw	1
  1464  03FF  009F               	movwf	31	;volatile
  1465  0400                     l1864:
  1466                           
  1467                           ;main.c: 428:     T0CON0bits.EN = 1;
  1468  0400  179E               	bsf	30,7	;volatile
  1469  0401                     l1866:
  1470                           
  1471                           ;main.c: 431:     PR2 = 0xFF;
  1472  0401  30FF               	movlw	255
  1473  0402  0145               	movlb	5	; select bank5
  1474  0403  008D               	movwf	13	;volatile
  1475  0404                     l1868:
  1476                           
  1477                           ;main.c: 432:     T2CLKCON = 0b001;
  1478  0404  3001               	movlw	1
  1479  0405  0090               	movwf	16	;volatile
  1480  0406                     l1870:
  1481                           
  1482                           ;main.c: 433:     T2CONbits.T2CKPS = 0b110;
  1483  0406  080E               	movf	14,w	;volatile
  1484  0407  398F               	andlw	-113
  1485  0408  3860               	iorlw	96
  1486  0409  008E               	movwf	14	;volatile
  1487  040A                     l1872:
  1488                           
  1489                           ;main.c: 434:     T2HLTbits.PSYNC = 1;
  1490  040A  178F               	bsf	15,7	;volatile
  1491  040B                     l1874:
  1492                           
  1493                           ;main.c: 435:     T2CONbits.TMR2ON = 1;
  1494  040B  178E               	bsf	14,7	;volatile
  1495  040C                     l1876:
  1496                           
  1497                           ;main.c: 438:     TMR0IE = 1;
  1498  040C  014E               	movlb	14	; select bank14
  1499  040D  1696               	bsf	22,5	;volatile
  1500  040E                     l1878:
  1501                           
  1502                           ;main.c: 439:     TMR2IE = 1;
  1503  040E  1717               	bsf	23,6	;volatile
  1504  040F                     l1880:
  1505                           
  1506                           ;main.c: 442:     FVRCONbits.ADFVR = 0b01;
  1507  040F  0152               	movlb	18	; select bank18
  1508  0410  080C               	movf	12,w	;volatile
  1509  0411  39FC               	andlw	-4
  1510  0412  3801               	iorlw	1
  1511  0413  008C               	movwf	12	;volatile
  1512  0414                     l1882:
  1513                           
  1514                           ;main.c: 443:     FVRCONbits.FVREN = 1;
  1515  0414  178C               	bsf	12,7	;volatile
  1516  0415                     l1884:
  1517                           
  1518                           ;main.c: 447:     if (!debugging) NVMCON1bits.NVMREGS = 1;
  1519  0415  0140               	movlb	0	; select bank0
  1520  0416  0846               	movf	_debugging,w
  1521  0417  1D03               	btfss	3,2
  1522  0418  2C1A               	goto	u1631
  1523  0419  2C1B               	goto	u1630
  1524  041A                     u1631:
  1525  041A  2C1D               	goto	l187
  1526  041B                     u1630:
  1527  041B                     l1886:
  1528  041B  0150               	movlb	16	; select bank16
  1529  041C  171E               	bsf	30,6	;volsfr
  1530  041D                     l187:
  1531                           
  1532                           ;main.c: 448:     NVMADR = 0x8118;
  1533  041D  3081               	movlw	129
  1534  041E  0150               	movlb	16	; select bank16
  1535  041F  009B               	movwf	27	;volatile
  1536  0420  3018               	movlw	24
  1537  0421  009A               	movwf	26	;volatile
  1538                           
  1539                           ;main.c: 449:     NVMCON1bits.RD = 1;
  1540  0422  141E               	bsf	30,0	;volsfr
  1541  0423                     l188:	
  1542                           ;main.c: 450:     while (NVMCON1bits.RD == 1);
  1543                           
  1544  0423  181E               	btfsc	30,0	;volsfr
  1545  0424  2C26               	goto	u1641
  1546  0425  2C27               	goto	u1640
  1547  0426                     u1641:
  1548  0426  2C23               	goto	l188
  1549  0427                     u1640:
  1550  0427                     l1888:
  1551                           
  1552                           ;main.c: 451:     calibrationMV = NVMDAT;
  1553  0427  081D               	movf	29,w	;volatile
  1554  0428  0140               	movlb	0	; select bank0
  1555  0429  00A5               	movwf	_calibrationMV+1
  1556  042A  0150               	movlb	16	; select bank16
  1557  042B  081C               	movf	28,w	;volatile
  1558  042C  0140               	movlb	0	; select bank0
  1559  042D  00A4               	movwf	_calibrationMV
  1560  042E                     l1890:
  1561                           
  1562                           ;main.c: 452:     if (!debugging) NVMCON1bits.NVMREGS = 0;
  1563  042E  0846               	movf	_debugging,w
  1564  042F  1D03               	btfss	3,2
  1565  0430  2C32               	goto	u1651
  1566  0431  2C33               	goto	u1650
  1567  0432                     u1651:
  1568  0432  2C35               	goto	l1894
  1569  0433                     u1650:
  1570  0433                     l1892:
  1571  0433  0150               	movlb	16	; select bank16
  1572  0434  131E               	bcf	30,6	;volsfr
  1573  0435                     l1894:
  1574                           
  1575                           ;main.c: 455:     ADCON1bits.CS = 0b110;
  1576  0435  0141               	movlb	1	; select bank1
  1577  0436  081E               	movf	30,w	;volatile
  1578  0437  398F               	andlw	-113
  1579  0438  3860               	iorlw	96
  1580  0439  009E               	movwf	30	;volatile
  1581                           
  1582                           ;main.c: 456:     ADCON1bits.PREF = 0b00;
  1583  043A  30FC               	movlw	-4
  1584  043B  059E               	andwf	30,f	;volatile
  1585                           
  1586                           ;main.c: 457:     ADCON0bits.CHS = 0b011110;
  1587  043C  081D               	movf	29,w	;volatile
  1588  043D  3903               	andlw	-253
  1589  043E  3878               	iorlw	120
  1590  043F  009D               	movwf	29	;volatile
  1591  0440                     l1896:
  1592                           
  1593                           ;main.c: 458:     ADCON1bits.FM = 1;
  1594  0440  179E               	bsf	30,7	;volatile
  1595                           
  1596                           ;main.c: 461:     if (!debugging) ADCON0bits.ON = 1;
  1597  0441  0140               	movlb	0	; select bank0
  1598  0442  0846               	movf	_debugging,w
  1599  0443  1D03               	btfss	3,2
  1600  0444  2C46               	goto	u1661
  1601  0445  2C47               	goto	u1660
  1602  0446                     u1661:
  1603  0446  2C49               	goto	l192
  1604  0447                     u1660:
  1605  0447                     l1898:
  1606  0447  0141               	movlb	1	; select bank1
  1607  0448  141D               	bsf	29,0	;volatile
  1608  0449                     l192:
  1609                           
  1610                           ;main.c: 474:     IOCAN0 = 1;
  1611  0449  017E               	movlb	62	; select bank62
  1612  044A  143E               	bsf	62,0	;volatile
  1613                           
  1614                           ;main.c: 475:     IOCAP0 = 1;
  1615  044B  143D               	bsf	61,0	;volatile
  1616                           
  1617                           ;main.c: 476:     IOCAN3 = 1;
  1618  044C  15BE               	bsf	62,3	;volatile
  1619                           
  1620                           ;main.c: 477:     IOCAP3 = 1;
  1621  044D  15BD               	bsf	61,3	;volatile
  1622                           
  1623                           ;main.c: 478:     INTE = 0;
  1624  044E  014E               	movlb	14	; select bank14
  1625  044F  1016               	bcf	22,0	;volatile
  1626                           
  1627                           ;main.c: 480:     PEIE = 1;
  1628  0450  170B               	bsf	11,6	;volatile
  1629                           
  1630                           ;main.c: 481:     IOCIE = 1;
  1631  0451  1616               	bsf	22,4	;volatile
  1632                           
  1633                           ;main.c: 482:     GIE = 1;
  1634  0452  178B               	bsf	11,7	;volatile
  1635                           
  1636                           ;main.c: 485:     LATC2 = 0;
  1637  0453  0140               	movlb	0	; select bank0
  1638  0454  111A               	bcf	26,2	;volatile
  1639  0455                     l1900:
  1640                           
  1641                           ;main.c: 486:     blockingDelay(100);
  1642  0455  3064               	movlw	100
  1643  0456  00F1               	movwf	blockingDelay@mSecs
  1644  0457  3000               	movlw	0
  1645  0458  00F2               	movwf	blockingDelay@mSecs+1
  1646  0459  3187  278B  3183   	fcall	_blockingDelay
  1647  045C                     l1902:
  1648                           
  1649                           ;main.c: 487:     LATC2 = 1;
  1650  045C  0140               	movlb	0	; select bank0
  1651  045D  151A               	bsf	26,2	;volatile
  1652                           
  1653                           ;main.c: 488:     blockingDelay(100);
  1654  045E  3064               	movlw	100
  1655  045F  00F1               	movwf	blockingDelay@mSecs
  1656  0460  3000               	movlw	0
  1657  0461  00F2               	movwf	blockingDelay@mSecs+1
  1658  0462  3187  278B  3183   	fcall	_blockingDelay
  1659  0465                     l1904:
  1660                           
  1661                           ;main.c: 489:     LATC2 = 0;
  1662  0465  0140               	movlb	0	; select bank0
  1663  0466  111A               	bcf	26,2	;volatile
  1664                           
  1665                           ;main.c: 490:     blockingDelay(100);
  1666  0467  3064               	movlw	100
  1667  0468  00F1               	movwf	blockingDelay@mSecs
  1668  0469  3000               	movlw	0
  1669  046A  00F2               	movwf	blockingDelay@mSecs+1
  1670  046B  3187  278B  3183   	fcall	_blockingDelay
  1671  046E                     l1906:
  1672                           
  1673                           ;main.c: 491:     LATC2 = 1;
  1674  046E  0140               	movlb	0	; select bank0
  1675  046F  151A               	bsf	26,2	;volatile
  1676                           
  1677                           ;main.c: 492:     blockingDelay(100);
  1678  0470  3064               	movlw	100
  1679  0471  00F1               	movwf	blockingDelay@mSecs
  1680  0472  3000               	movlw	0
  1681  0473  00F2               	movwf	blockingDelay@mSecs+1
  1682  0474  3187  278B  3183   	fcall	_blockingDelay
  1683  0477                     l1908:
  1684                           
  1685                           ;main.c: 493:     LATC2 = 0;
  1686  0477  0140               	movlb	0	; select bank0
  1687  0478  111A               	bcf	26,2	;volatile
  1688                           
  1689                           ;main.c: 494:     blockingDelay(100);
  1690  0479  3064               	movlw	100
  1691  047A  00F1               	movwf	blockingDelay@mSecs
  1692  047B  3000               	movlw	0
  1693  047C  00F2               	movwf	blockingDelay@mSecs+1
  1694  047D  3187  278B  3183   	fcall	_blockingDelay
  1695  0480                     l1910:
  1696                           
  1697                           ;main.c: 495:     LATC2 = 1;
  1698  0480  0140               	movlb	0	; select bank0
  1699  0481  151A               	bsf	26,2	;volatile
  1700  0482                     l1912:
  1701                           
  1702                           ;main.c: 501:         forceArc = 0;
  1703  0482  0140               	movlb	0	; select bank0
  1704  0483  01C0               	clrf	_forceArc
  1705  0484  01C1               	clrf	_forceArc+1
  1706  0485                     l1914:
  1707                           
  1708                           ;main.c: 502:         if (showCharge) chargeIndicator();
  1709  0485  0832               	movf	_showCharge,w
  1710  0486  0433               	iorwf	_showCharge+1,w
  1711  0487  1903               	btfsc	3,2
  1712  0488  2C8A               	goto	u1671
  1713  0489  2C8B               	goto	u1670
  1714  048A                     u1671:
  1715  048A  2C8E               	goto	l1918
  1716  048B                     u1670:
  1717  048B                     l1916:
  1718  048B  3184  24B0  3183   	fcall	_chargeIndicator
  1719  048E                     l1918:
  1720                           
  1721                           ;main.c: 503:         if (poweredOn) {
  1722  048E  0140               	movlb	0	; select bank0
  1723  048F  0834               	movf	_poweredOn,w
  1724  0490  0435               	iorwf	_poweredOn+1,w
  1725  0491  1903               	btfsc	3,2
  1726  0492  2C94               	goto	u1681
  1727  0493  2C95               	goto	u1680
  1728  0494                     u1681:
  1729  0494  2CA1               	goto	l195
  1730  0495                     u1680:
  1731  0495                     l1920:
  1732                           
  1733                           ;main.c: 505:             LATC2 = 0;
  1734  0495  111A               	bcf	26,2	;volatile
  1735                           
  1736                           ;main.c: 507:             LATC3 = 1;
  1737  0496  159A               	bsf	26,3	;volatile
  1738  0497                     l1922:
  1739                           
  1740                           ;main.c: 508:             if (gotTheTouch) doTheArc();
  1741  0497  082C               	movf	_gotTheTouch,w
  1742  0498  042D               	iorwf	_gotTheTouch+1,w
  1743  0499  1903               	btfsc	3,2
  1744  049A  2C9C               	goto	u1691
  1745  049B  2C9D               	goto	u1690
  1746  049C                     u1691:
  1747  049C  2CA3               	goto	l1926
  1748  049D                     u1690:
  1749  049D                     l1924:
  1750  049D  3185  2596  3183   	fcall	_doTheArc
  1751  04A0  2CA3               	goto	l1926
  1752  04A1                     l195:
  1753                           
  1754                           ;main.c: 511:             LATC2 = 1;
  1755  04A1  151A               	bsf	26,2	;volatile
  1756                           
  1757                           ;main.c: 513:             LATC3 = 0;
  1758  04A2  119A               	bcf	26,3	;volatile
  1759  04A3                     l1926:
  1760                           
  1761                           ;main.c: 515:         if (lowPowerMode) goToLPmode();
  1762  04A3  0140               	movlb	0	; select bank0
  1763  04A4  0830               	movf	_lowPowerMode,w
  1764  04A5  0431               	iorwf	_lowPowerMode+1,w
  1765  04A6  1903               	btfsc	3,2
  1766  04A7  2CA9               	goto	u1701
  1767  04A8  2CAA               	goto	u1700
  1768  04A9                     u1701:
  1769  04A9  2C82               	goto	l1912
  1770  04AA                     u1700:
  1771  04AA                     l1928:
  1772  04AA  3187  2775  3183   	fcall	_goToLPmode
  1773  04AD  2C82               	goto	l1912
  1774  04AE  3180  28FA         	ljmp	start
  1775  04B0                     __end_of_main:
  1776                           
  1777                           	psect	text1
  1778  0775                     __ptext1:	
  1779 ;; *************** function _goToLPmode *****************
  1780 ;; Defined at:
  1781 ;;		line 737 in file "main.c"
  1782 ;; Parameters:    Size  Location     Type
  1783 ;;		None
  1784 ;; Auto vars:     Size  Location     Type
  1785 ;;		None
  1786 ;; Return value:  Size  Location     Type
  1787 ;;                  1    wreg      void 
  1788 ;; Registers used:
  1789 ;;		wreg, fsr0l, fsr0h, status,2, status,0, pclath, cstack
  1790 ;; Tracked objects:
  1791 ;;		On entry : 0/0
  1792 ;;		On exit  : 0/0
  1793 ;;		Unchanged: 0/0
  1794 ;; Data sizes:     COMMON   BANK0   BANK1   BANK2   BANK3   BANK4   BANK5   BANK6
  1795 ;;      Params:         0       0       0       0       0       0       0       0
  1796 ;;      Locals:         0       0       0       0       0       0       0       0
  1797 ;;      Temps:          0       0       0       0       0       0       0       0
  1798 ;;      Totals:         0       0       0       0       0       0       0       0
  1799 ;;Total ram usage:        0 bytes
  1800 ;; Hardware stack levels used: 1
  1801 ;; Hardware stack levels required when called: 3
  1802 ;; This function calls:
  1803 ;;		_playNote
  1804 ;; This function is called by:
  1805 ;;		_main
  1806 ;; This function uses a non-reentrant model
  1807 ;;
  1808                           
  1809                           
  1810                           ;psect for function _goToLPmode
  1811  0775                     _goToLPmode:
  1812  0775                     l1502:	
  1813                           ;incstack = 0
  1814                           ; Regs used in _goToLPmode: [wreg-fsr0h+status,2+status,0+pclath+cstack]
  1815                           
  1816                           
  1817                           ;main.c: 738:     forceArc = 0;
  1818  0775  0140               	movlb	0	; select bank0
  1819  0776  01C0               	clrf	_forceArc
  1820  0777  01C1               	clrf	_forceArc+1
  1821  0778                     l1504:
  1822                           
  1823                           ;main.c: 739:     playNote(0, 100);
  1824  0778  3000               	movlw	0
  1825  0779  00F3               	movwf	playNote@note
  1826  077A  00F4               	movwf	playNote@note+1
  1827  077B  3064               	movlw	100
  1828  077C  00F5               	movwf	playNote@duration
  1829  077D  3000               	movlw	0
  1830  077E  00F6               	movwf	playNote@duration+1
  1831  077F  3187  2753  3187   	fcall	_playNote
  1832  0782                     l1506:
  1833                           
  1834                           ;main.c: 741:     LATC3 = 0;
  1835  0782  0140               	movlb	0	; select bank0
  1836  0783  119A               	bcf	26,3	;volatile
  1837  0784                     l1508:
  1838                           
  1839                           ;main.c: 744:     LATA1 = 1;
  1840  0784  1498               	bsf	24,1	;volatile
  1841  0785                     l1510:
  1842                           
  1843                           ;main.c: 745:     LATA2 = 1;
  1844  0785  1518               	bsf	24,2	;volatile
  1845  0786                     l1512:
  1846                           
  1847                           ;main.c: 746:     LATC0 = 1;
  1848  0786  141A               	bsf	26,0	;volatile
  1849  0787                     l1514:
  1850                           
  1851                           ;main.c: 747:     LATC1 = 1;
  1852  0787  149A               	bsf	26,1	;volatile
  1853  0788                     l1516:
  1854                           
  1855                           ;main.c: 748:     LATC2 = 1;
  1856  0788  151A               	bsf	26,2	;volatile
  1857  0789  0063               	sleep	;# 
  1858  078A                     l267:
  1859  078A  0008               	return
  1860  078B                     __end_of_goToLPmode:
  1861                           
  1862                           	psect	text2
  1863  0596                     __ptext2:	
  1864 ;; *************** function _doTheArc *****************
  1865 ;; Defined at:
  1866 ;;		line 664 in file "main.c"
  1867 ;; Parameters:    Size  Location     Type
  1868 ;;		None
  1869 ;; Auto vars:     Size  Location     Type
  1870 ;;		None
  1871 ;; Return value:  Size  Location     Type
  1872 ;;                  1    wreg      void 
  1873 ;; Registers used:
  1874 ;;		wreg, fsr0l, fsr0h, status,2, status,0, pclath, cstack
  1875 ;; Tracked objects:
  1876 ;;		On entry : 0/0
  1877 ;;		On exit  : 0/0
  1878 ;;		Unchanged: 0/0
  1879 ;; Data sizes:     COMMON   BANK0   BANK1   BANK2   BANK3   BANK4   BANK5   BANK6
  1880 ;;      Params:         0       0       0       0       0       0       0       0
  1881 ;;      Locals:         0       0       0       0       0       0       0       0
  1882 ;;      Temps:          2       0       0       0       0       0       0       0
  1883 ;;      Totals:         2       0       0       0       0       0       0       0
  1884 ;;Total ram usage:        2 bytes
  1885 ;; Hardware stack levels used: 1
  1886 ;; Hardware stack levels required when called: 3
  1887 ;; This function calls:
  1888 ;;		_blockingDelay
  1889 ;;		_playNote
  1890 ;; This function is called by:
  1891 ;;		_main
  1892 ;; This function uses a non-reentrant model
  1893 ;;
  1894                           
  1895                           
  1896                           ;psect for function _doTheArc
  1897  0596                     _doTheArc:
  1898  0596                     l1440:	
  1899                           ;incstack = 0
  1900                           ; Regs used in _doTheArc: [wreg-fsr0h+status,2+status,0+pclath+cstack]
  1901                           
  1902                           
  1903                           ;main.c: 666:     forceArc = 1;
  1904  0596  3001               	movlw	1
  1905  0597  0140               	movlb	0	; select bank0
  1906  0598  00C0               	movwf	_forceArc
  1907  0599  3000               	movlw	0
  1908  059A  00C1               	movwf	_forceArc+1
  1909  059B                     l1442:
  1910                           
  1911                           ;main.c: 667:     runIndex++;
  1912  059B  3001               	movlw	1
  1913  059C  00F7               	movwf	??_doTheArc
  1914  059D  0877               	movf	??_doTheArc,w
  1915  059E  07C3               	addwf	_runIndex,f
  1916  059F                     l1444:
  1917                           
  1918                           ;main.c: 668:     if (runIndex > 3) runIndex = 1;
  1919  059F  3004               	movlw	4
  1920  05A0  0243               	subwf	_runIndex,w
  1921  05A1  1C03               	skipc
  1922  05A2  2DA4               	goto	u1121
  1923  05A3  2DA5               	goto	u1120
  1924  05A4                     u1121:
  1925  05A4  2E57               	goto	l1486
  1926  05A5                     u1120:
  1927  05A5                     l1446:
  1928  05A5  01C3               	clrf	_runIndex
  1929  05A6  0AC3               	incf	_runIndex,f
  1930  05A7  2E57               	goto	l1486
  1931  05A8                     l233:	
  1932                           ;main.c: 670:         case 1:
  1933                           
  1934                           
  1935                           ;main.c: 672:             LATA1 = 0;
  1936  05A8  1098               	bcf	24,1	;volatile
  1937                           
  1938                           ;main.c: 673:             LATA2 = 1;
  1939  05A9  1518               	bsf	24,2	;volatile
  1940                           
  1941                           ;main.c: 674:             LATC0 = 1;
  1942  05AA  141A               	bsf	26,0	;volatile
  1943                           
  1944                           ;main.c: 675:             LATC1 = 1;
  1945  05AB  149A               	bsf	26,1	;volatile
  1946  05AC                     l1448:	
  1947                           ;main.c: 676:             while (gotTheTouch && poweredOn);
  1948                           
  1949  05AC  082C               	movf	_gotTheTouch,w
  1950  05AD  042D               	iorwf	_gotTheTouch+1,w
  1951  05AE  1903               	btfsc	3,2
  1952  05AF  2DB1               	goto	u1131
  1953  05B0  2DB2               	goto	u1130
  1954  05B1                     u1131:
  1955  05B1  2E6A               	goto	l1488
  1956  05B2                     u1130:
  1957  05B2                     l1450:
  1958  05B2  0834               	movf	_poweredOn,w
  1959  05B3  0435               	iorwf	_poweredOn+1,w
  1960  05B4  1D03               	btfss	3,2
  1961  05B5  2DB7               	goto	u1141
  1962  05B6  2DB8               	goto	u1140
  1963  05B7                     u1141:
  1964  05B7  2DAC               	goto	l1448
  1965  05B8                     u1140:
  1966  05B8  2E6A               	goto	l1488
  1967  05B9                     l240:	
  1968                           ;main.c: 679:         case 2:
  1969                           
  1970                           
  1971                           ;main.c: 681:             LATA1 = 1;
  1972  05B9  1498               	bsf	24,1	;volatile
  1973                           
  1974                           ;main.c: 682:             LATA2 = 0;
  1975  05BA  1118               	bcf	24,2	;volatile
  1976                           
  1977                           ;main.c: 683:             LATC0 = 1;
  1978  05BB  141A               	bsf	26,0	;volatile
  1979                           
  1980                           ;main.c: 684:             LATC1 = 1;
  1981  05BC  149A               	bsf	26,1	;volatile
  1982  05BD                     l1452:
  1983                           
  1984                           ;main.c: 686:             blockingDelay(1000);
  1985  05BD  30E8               	movlw	232
  1986  05BE  00F1               	movwf	blockingDelay@mSecs
  1987  05BF  3003               	movlw	3
  1988  05C0  00F2               	movwf	blockingDelay@mSecs+1
  1989  05C1  3187  278B  3185   	fcall	_blockingDelay
  1990  05C4                     l1454:
  1991                           
  1992                           ;main.c: 687:             forceArc = 0;
  1993  05C4  0140               	movlb	0	; select bank0
  1994  05C5  01C0               	clrf	_forceArc
  1995  05C6  01C1               	clrf	_forceArc+1
  1996  05C7                     l1456:
  1997                           
  1998                           ;main.c: 688:             for (i = 0; i < sizeof (sheRa) && gotTheTouch && poweredOn; i+
      +                          +) playNote(sheRa[i][0], sheRa[i][1]);
  1999  05C7  01FA               	clrf	_i
  2000  05C8  01FB               	clrf	_i+1
  2001  05C9  2DF1               	goto	l1462
  2002  05CA                     l1458:
  2003  05CA  087B               	movf	_i+1,w
  2004  05CB  0085               	movwf	5
  2005  05CC  087A               	movf	_i,w
  2006  05CD  0084               	movwf	4
  2007  05CE  3584               	lslf	4,f
  2008  05CF  0D85               	rlf	5,f
  2009  05D0  3584               	lslf	4,f
  2010  05D1  0D85               	rlf	5,f
  2011  05D2  30D3               	movlw	low (_sheRa| (0+32768))
  2012  05D3  0784               	addwf	4,f
  2013  05D4  3082               	movlw	high (_sheRa| (0+32768))
  2014  05D5  3D85               	addwfc	5,f
  2015  05D6  3F00               	moviw [0]fsr0
  2016  05D7  00F3               	movwf	playNote@note
  2017  05D8  3F01               	moviw [1]fsr0
  2018  05D9  00F4               	movwf	playNote@note+1
  2019  05DA  087B               	movf	_i+1,w
  2020  05DB  0085               	movwf	5
  2021  05DC  087A               	movf	_i,w
  2022  05DD  0084               	movwf	4
  2023  05DE  3584               	lslf	4,f
  2024  05DF  0D85               	rlf	5,f
  2025  05E0  3584               	lslf	4,f
  2026  05E1  0D85               	rlf	5,f
  2027  05E2  30D5               	movlw	low ((_sheRa+2)| (0+32768))
  2028  05E3  0784               	addwf	4,f
  2029  05E4  3082               	movlw	high ((_sheRa+2)| (0+32768))
  2030  05E5  3D85               	addwfc	5,f
  2031  05E6  3F00               	moviw [0]fsr0
  2032  05E7  00F5               	movwf	playNote@duration
  2033  05E8  3F01               	moviw [1]fsr0
  2034  05E9  00F6               	movwf	playNote@duration+1
  2035  05EA  3187  2753  3185   	fcall	_playNote
  2036  05ED                     l1460:
  2037  05ED  3001               	movlw	1
  2038  05EE  07FA               	addwf	_i,f
  2039  05EF  3000               	movlw	0
  2040  05F0  3DFB               	addwfc	_i+1,f
  2041  05F1                     l1462:
  2042  05F1  3000               	movlw	0
  2043  05F2  027B               	subwf	_i+1,w
  2044  05F3  30F0               	movlw	240
  2045  05F4  1903               	skipnz
  2046  05F5  027A               	subwf	_i,w
  2047  05F6  1803               	skipnc
  2048  05F7  2DF9               	goto	u1151
  2049  05F8  2DFA               	goto	u1150
  2050  05F9                     u1151:
  2051  05F9  2E6A               	goto	l1488
  2052  05FA                     u1150:
  2053  05FA                     l1464:
  2054  05FA  0140               	movlb	0	; select bank0
  2055  05FB  082C               	movf	_gotTheTouch,w
  2056  05FC  042D               	iorwf	_gotTheTouch+1,w
  2057  05FD  1903               	btfsc	3,2
  2058  05FE  2E00               	goto	u1161
  2059  05FF  2E01               	goto	u1160
  2060  0600                     u1161:
  2061  0600  2E6A               	goto	l1488
  2062  0601                     u1160:
  2063  0601                     l1466:
  2064  0601  0834               	movf	_poweredOn,w
  2065  0602  0435               	iorwf	_poweredOn+1,w
  2066  0603  1D03               	btfss	3,2
  2067  0604  2E06               	goto	u1171
  2068  0605  2E07               	goto	u1170
  2069  0606                     u1171:
  2070  0606  2DCA               	goto	l1458
  2071  0607                     u1170:
  2072  0607  2E6A               	goto	l1488
  2073  0608                     l246:	
  2074                           ;main.c: 691:         case 3:
  2075                           
  2076                           
  2077                           ;main.c: 693:             LATA1 = 1;
  2078  0608  1498               	bsf	24,1	;volatile
  2079                           
  2080                           ;main.c: 694:             LATA2 = 1;
  2081  0609  1518               	bsf	24,2	;volatile
  2082                           
  2083                           ;main.c: 695:             LATC0 = 0;
  2084  060A  101A               	bcf	26,0	;volatile
  2085                           
  2086                           ;main.c: 696:             LATC1 = 1;
  2087  060B  149A               	bsf	26,1	;volatile
  2088  060C                     l1468:
  2089                           
  2090                           ;main.c: 698:             blockingDelay(1000);
  2091  060C  30E8               	movlw	232
  2092  060D  00F1               	movwf	blockingDelay@mSecs
  2093  060E  3003               	movlw	3
  2094  060F  00F2               	movwf	blockingDelay@mSecs+1
  2095  0610  3187  278B  3185   	fcall	_blockingDelay
  2096  0613                     l1470:
  2097                           
  2098                           ;main.c: 699:             forceArc = 0;
  2099  0613  0140               	movlb	0	; select bank0
  2100  0614  01C0               	clrf	_forceArc
  2101  0615  01C1               	clrf	_forceArc+1
  2102  0616                     l1472:
  2103                           
  2104                           ;main.c: 700:             for (i = 0; i < sizeof (gargoyles) && gotTheTouch && poweredOn
      +                          ; i++) playNote(gargoyles[i][0], gargoyles[i][1]);
  2105  0616  01FA               	clrf	_i
  2106  0617  01FB               	clrf	_i+1
  2107  0618  2E40               	goto	l1478
  2108  0619                     l1474:
  2109  0619  087B               	movf	_i+1,w
  2110  061A  0085               	movwf	5
  2111  061B  087A               	movf	_i,w
  2112  061C  0084               	movwf	4
  2113  061D  3584               	lslf	4,f
  2114  061E  0D85               	rlf	5,f
  2115  061F  3584               	lslf	4,f
  2116  0620  0D85               	rlf	5,f
  2117  0621  3013               	movlw	low (_gargoyles| (0+32768))
  2118  0622  0784               	addwf	4,f
  2119  0623  3081               	movlw	high (_gargoyles| (0+32768))
  2120  0624  3D85               	addwfc	5,f
  2121  0625  3F00               	moviw [0]fsr0
  2122  0626  00F3               	movwf	playNote@note
  2123  0627  3F01               	moviw [1]fsr0
  2124  0628  00F4               	movwf	playNote@note+1
  2125  0629  087B               	movf	_i+1,w
  2126  062A  0085               	movwf	5
  2127  062B  087A               	movf	_i,w
  2128  062C  0084               	movwf	4
  2129  062D  3584               	lslf	4,f
  2130  062E  0D85               	rlf	5,f
  2131  062F  3584               	lslf	4,f
  2132  0630  0D85               	rlf	5,f
  2133  0631  3015               	movlw	low ((_gargoyles+2)| (0+32768))
  2134  0632  0784               	addwf	4,f
  2135  0633  3081               	movlw	high ((_gargoyles+2)| (0+32768))
  2136  0634  3D85               	addwfc	5,f
  2137  0635  3F00               	moviw [0]fsr0
  2138  0636  00F5               	movwf	playNote@duration
  2139  0637  3F01               	moviw [1]fsr0
  2140  0638  00F6               	movwf	playNote@duration+1
  2141  0639  3187  2753  3185   	fcall	_playNote
  2142  063C                     l1476:
  2143  063C  3001               	movlw	1
  2144  063D  07FA               	addwf	_i,f
  2145  063E  3000               	movlw	0
  2146  063F  3DFB               	addwfc	_i+1,f
  2147  0640                     l1478:
  2148  0640  3001               	movlw	1
  2149  0641  027B               	subwf	_i+1,w
  2150  0642  30C0               	movlw	192
  2151  0643  1903               	skipnz
  2152  0644  027A               	subwf	_i,w
  2153  0645  1803               	skipnc
  2154  0646  2E48               	goto	u1181
  2155  0647  2E49               	goto	u1180
  2156  0648                     u1181:
  2157  0648  2E6A               	goto	l1488
  2158  0649                     u1180:
  2159  0649                     l1480:
  2160  0649  0140               	movlb	0	; select bank0
  2161  064A  082C               	movf	_gotTheTouch,w
  2162  064B  042D               	iorwf	_gotTheTouch+1,w
  2163  064C  1903               	btfsc	3,2
  2164  064D  2E4F               	goto	u1191
  2165  064E  2E50               	goto	u1190
  2166  064F                     u1191:
  2167  064F  2E6A               	goto	l1488
  2168  0650                     u1190:
  2169  0650                     l1482:
  2170  0650  0834               	movf	_poweredOn,w
  2171  0651  0435               	iorwf	_poweredOn+1,w
  2172  0652  1D03               	btfss	3,2
  2173  0653  2E55               	goto	u1201
  2174  0654  2E56               	goto	u1200
  2175  0655                     u1201:
  2176  0655  2E19               	goto	l1474
  2177  0656                     u1200:
  2178  0656  2E6A               	goto	l1488
  2179  0657                     l1486:
  2180  0657  0843               	movf	_runIndex,w
  2181  0658  00F7               	movwf	??_doTheArc
  2182  0659  01F8               	clrf	??_doTheArc+1
  2183                           
  2184                           ; Switch on 2 bytes has been partitioned into a top level switch of size 1, and 1 sub-sw
      +                          itches
  2185                           ; Switch size 1, requested type "simple"
  2186                           ; Number of cases is 1, Range of values is 0 to 0
  2187                           ; switch strategies available:
  2188                           ; Name         Instructions Cycles
  2189                           ; simple_byte            4     3 (average)
  2190                           ; direct_byte            8     6 (fixed)
  2191                           ; jumptable            260     6 (fixed)
  2192                           ;	Chosen strategy is simple_byte
  2193  065A  0878               	movf	??_doTheArc+1,w
  2194  065B  3A00               	xorlw	0	; case 0
  2195  065C  1903               	skipnz
  2196  065D  2E5F               	goto	l1950
  2197  065E  2E6A               	goto	l1488
  2198  065F                     l1950:
  2199                           
  2200                           ; Switch size 1, requested type "simple"
  2201                           ; Number of cases is 3, Range of values is 1 to 3
  2202                           ; switch strategies available:
  2203                           ; Name         Instructions Cycles
  2204                           ; simple_byte           10     6 (average)
  2205                           ; direct_byte           15     9 (fixed)
  2206                           ; jumptable            263     9 (fixed)
  2207                           ;	Chosen strategy is simple_byte
  2208  065F  0877               	movf	??_doTheArc,w
  2209  0660  3A01               	xorlw	1	; case 1
  2210  0661  1903               	skipnz
  2211  0662  2DA8               	goto	l233
  2212  0663  3A03               	xorlw	3	; case 2
  2213  0664  1903               	skipnz
  2214  0665  2DB9               	goto	l240
  2215  0666  3A01               	xorlw	1	; case 3
  2216  0667  1903               	skipnz
  2217  0668  2E08               	goto	l246
  2218  0669  2E6A               	goto	l1488
  2219  066A                     l1488:
  2220                           
  2221                           ;main.c: 707:     forceArc = 0;
  2222  066A  0140               	movlb	0	; select bank0
  2223  066B  01C0               	clrf	_forceArc
  2224  066C  01C1               	clrf	_forceArc+1
  2225                           
  2226                           ;main.c: 708:     gotTheTouch = 0;
  2227  066D  01AC               	clrf	_gotTheTouch
  2228  066E  01AD               	clrf	_gotTheTouch+1
  2229  066F                     l1490:
  2230                           
  2231                           ;main.c: 710:     LATA1 = 1;
  2232  066F  1498               	bsf	24,1	;volatile
  2233  0670                     l1492:
  2234                           
  2235                           ;main.c: 711:     LATA2 = 1;
  2236  0670  1518               	bsf	24,2	;volatile
  2237  0671                     l1494:
  2238                           
  2239                           ;main.c: 712:     LATC0 = 1;
  2240  0671  141A               	bsf	26,0	;volatile
  2241  0672                     l1496:
  2242                           
  2243                           ;main.c: 713:     LATC1 = 1;
  2244  0672  149A               	bsf	26,1	;volatile
  2245  0673                     l253:
  2246  0673  0008               	return
  2247  0674                     __end_of_doTheArc:
  2248                           
  2249                           	psect	text3
  2250  0753                     __ptext3:	
  2251 ;; *************** function _playNote *****************
  2252 ;; Defined at:
  2253 ;;		line 725 in file "main.c"
  2254 ;; Parameters:    Size  Location     Type
  2255 ;;  note            2    3[COMMON] unsigned int 
  2256 ;;  duration        2    5[COMMON] unsigned int 
  2257 ;; Auto vars:     Size  Location     Type
  2258 ;;		None
  2259 ;; Return value:  Size  Location     Type
  2260 ;;                  1    wreg      void 
  2261 ;; Registers used:
  2262 ;;		wreg, fsr0l, fsr0h, status,2, status,0, pclath, cstack
  2263 ;; Tracked objects:
  2264 ;;		On entry : 0/0
  2265 ;;		On exit  : 0/0
  2266 ;;		Unchanged: 0/0
  2267 ;; Data sizes:     COMMON   BANK0   BANK1   BANK2   BANK3   BANK4   BANK5   BANK6
  2268 ;;      Params:         4       0       0       0       0       0       0       0
  2269 ;;      Locals:         0       0       0       0       0       0       0       0
  2270 ;;      Temps:          0       0       0       0       0       0       0       0
  2271 ;;      Totals:         4       0       0       0       0       0       0       0
  2272 ;;Total ram usage:        4 bytes
  2273 ;; Hardware stack levels used: 1
  2274 ;; Hardware stack levels required when called: 2
  2275 ;; This function calls:
  2276 ;;		_blockingDelay
  2277 ;; This function is called by:
  2278 ;;		_doTheArc
  2279 ;;		_goToLPmode
  2280 ;; This function uses a non-reentrant model
  2281 ;;
  2282                           
  2283                           
  2284                           ;psect for function _playNote
  2285  0753                     _playNote:
  2286  0753                     l1314:	
  2287                           ;incstack = 0
  2288                           ; Regs used in _playNote: [wreg-fsr0h+status,2+status,0+pclath+cstack]
  2289                           
  2290                           
  2291                           ;main.c: 726:     if (note > 0) {
  2292  0753  0873               	movf	playNote@note,w
  2293  0754  0474               	iorwf	playNote@note+1,w
  2294  0755  1903               	btfsc	3,2
  2295  0756  2F58               	goto	u821
  2296  0757  2F59               	goto	u820
  2297  0758                     u821:
  2298  0758  2F68               	goto	l1320
  2299  0759                     u820:
  2300  0759                     l1316:
  2301                           
  2302                           ;main.c: 727:         noGate = 0;
  2303  0759  0140               	movlb	0	; select bank0
  2304  075A  01E6               	clrf	_noGate
  2305  075B  01E7               	clrf	_noGate+1
  2306  075C                     l1318:
  2307                           
  2308                           ;main.c: 728:         PR2 = notes[note];
  2309  075C  0874               	movf	playNote@note+1,w
  2310  075D  0085               	movwf	5
  2311  075E  0873               	movf	playNote@note,w
  2312  075F  0084               	movwf	4
  2313  0760  302F               	movlw	low (_notes| (0+32768))
  2314  0761  0784               	addwf	4,f
  2315  0762  3087               	movlw	high (_notes| (0+32768))
  2316  0763  3D85               	addwfc	5,f
  2317  0764  0800               	movf	0,w	;code access
  2318  0765  0145               	movlb	5	; select bank5
  2319  0766  008D               	movwf	13	;volatile
  2320                           
  2321                           ;main.c: 729:     } else {
  2322  0767  2F6D               	goto	l1322
  2323  0768                     l1320:
  2324                           
  2325                           ;main.c: 730:         noGate = 1;
  2326  0768  3001               	movlw	1
  2327  0769  0140               	movlb	0	; select bank0
  2328  076A  00E6               	movwf	_noGate
  2329  076B  3000               	movlw	0
  2330  076C  00E7               	movwf	_noGate+1
  2331  076D                     l1322:
  2332                           
  2333                           ;main.c: 732:     blockingDelay(duration);
  2334  076D  0876               	movf	playNote@duration+1,w
  2335  076E  00F2               	movwf	blockingDelay@mSecs+1
  2336  076F  0875               	movf	playNote@duration,w
  2337  0770  00F1               	movwf	blockingDelay@mSecs
  2338  0771  3187  278B  3187   	fcall	_blockingDelay
  2339  0774                     l264:
  2340  0774  0008               	return
  2341  0775                     __end_of_playNote:
  2342                           
  2343                           	psect	text4
  2344  04B0                     __ptext4:	
  2345 ;; *************** function _chargeIndicator *****************
  2346 ;; Defined at:
  2347 ;;		line 767 in file "main.c"
  2348 ;; Parameters:    Size  Location     Type
  2349 ;;		None
  2350 ;; Auto vars:     Size  Location     Type
  2351 ;;		None
  2352 ;; Return value:  Size  Location     Type
  2353 ;;                  1    wreg      void 
  2354 ;; Registers used:
  2355 ;;		wreg, status,2, status,0, pclath, cstack
  2356 ;; Tracked objects:
  2357 ;;		On entry : 0/0
  2358 ;;		On exit  : 0/0
  2359 ;;		Unchanged: 0/0
  2360 ;; Data sizes:     COMMON   BANK0   BANK1   BANK2   BANK3   BANK4   BANK5   BANK6
  2361 ;;      Params:         0       0       0       0       0       0       0       0
  2362 ;;      Locals:         0       4       0       0       0       0       0       0
  2363 ;;      Temps:          0       4       0       0       0       0       0       0
  2364 ;;      Totals:         0       8       0       0       0       0       0       0
  2365 ;;Total ram usage:        8 bytes
  2366 ;; Hardware stack levels used: 1
  2367 ;; Hardware stack levels required when called: 2
  2368 ;; This function calls:
  2369 ;;		___aldiv
  2370 ;;		_blockingDelay
  2371 ;; This function is called by:
  2372 ;;		_main
  2373 ;; This function uses a non-reentrant model
  2374 ;;
  2375                           
  2376                           
  2377                           ;psect for function _chargeIndicator
  2378  04B0                     _chargeIndicator:
  2379  04B0                     l1378:	
  2380                           ;incstack = 0
  2381                           ; Regs used in _chargeIndicator: [wreg+status,2+status,0+pclath+cstack]
  2382                           
  2383                           
  2384                           ;main.c: 769:     if (!debugging) ADCON0bits.ON = 1;
  2385  04B0  0140               	movlb	0	; select bank0
  2386  04B1  0846               	movf	_debugging,w
  2387  04B2  1D03               	btfss	3,2
  2388  04B3  2CB5               	goto	u941
  2389  04B4  2CB6               	goto	u940
  2390  04B5                     u941:
  2391  04B5  2CB8               	goto	l273
  2392  04B6                     u940:
  2393  04B6                     l1380:
  2394  04B6  0141               	movlb	1	; select bank1
  2395  04B7  141D               	bsf	29,0	;volatile
  2396  04B8                     l273:
  2397                           
  2398                           ;main.c: 775:     ADCON0bits.GO = 1;
  2399  04B8  0141               	movlb	1	; select bank1
  2400  04B9  149D               	bsf	29,1	;volatile
  2401  04BA                     l1382:
  2402                           
  2403                           ;main.c: 776:     if (!debugging) while (ADCON0bits.GO == 1);
  2404  04BA  0140               	movlb	0	; select bank0
  2405  04BB  0846               	movf	_debugging,w
  2406  04BC  1D03               	btfss	3,2
  2407  04BD  2CBF               	goto	u951
  2408  04BE  2CC0               	goto	u950
  2409  04BF                     u951:
  2410  04BF  2CC5               	goto	l1386
  2411  04C0                     u950:
  2412  04C0                     l275:
  2413  04C0  0141               	movlb	1	; select bank1
  2414  04C1  189D               	btfsc	29,1	;volatile
  2415  04C2  2CC4               	goto	u961
  2416  04C3  2CC5               	goto	u960
  2417  04C4                     u961:
  2418  04C4  2CC0               	goto	l275
  2419  04C5                     u960:
  2420  04C5                     l1386:
  2421                           
  2422                           ;main.c: 777:     adcVolts = ADRES;
  2423  04C5  0141               	movlb	1	; select bank1
  2424  04C6  081C               	movf	28,w	;volatile
  2425  04C7  0140               	movlb	0	; select bank0
  2426  04C8  00A7               	movwf	_adcVolts+1
  2427  04C9  0141               	movlb	1	; select bank1
  2428  04CA  081B               	movf	27,w	;volatile
  2429  04CB  0140               	movlb	0	; select bank0
  2430  04CC  00A6               	movwf	_adcVolts
  2431  04CD                     l1388:
  2432                           
  2433                           ;main.c: 782:     if (!debugging) battVolts = ((calibrationMV * 1024L) / adcVolts) / 10L
      +                          ;
  2434  04CD  0846               	movf	_debugging,w
  2435  04CE  1D03               	btfss	3,2
  2436  04CF  2CD1               	goto	u971
  2437  04D0  2CD2               	goto	u970
  2438  04D1                     u971:
  2439  04D1  2D11               	goto	l1392
  2440  04D2                     u970:
  2441  04D2                     l1390:
  2442  04D2  0826               	movf	_adcVolts,w
  2443  04D3  00F1               	movwf	___aldiv@divisor
  2444  04D4  0827               	movf	_adcVolts+1,w
  2445  04D5  00F2               	movwf	___aldiv@divisor+1
  2446  04D6  01F3               	clrf	___aldiv@divisor+2
  2447  04D7  01F4               	clrf	___aldiv@divisor+3
  2448  04D8  0824               	movf	_calibrationMV,w
  2449  04D9  00D9               	movwf	??_chargeIndicator
  2450  04DA  0825               	movf	_calibrationMV+1,w
  2451  04DB  00DA               	movwf	??_chargeIndicator+1
  2452  04DC  01DB               	clrf	??_chargeIndicator+2
  2453  04DD  01DC               	clrf	??_chargeIndicator+3
  2454  04DE  300A               	movlw	10
  2455  04DF                     u985:
  2456  04DF  35D9               	lslf	??_chargeIndicator,f
  2457  04E0  0DDA               	rlf	??_chargeIndicator+1,f
  2458  04E1  0DDB               	rlf	??_chargeIndicator+2,f
  2459  04E2  0DDC               	rlf	??_chargeIndicator+3,f
  2460  04E3                     u980:
  2461  04E3  0B89               	decfsz	9,f
  2462  04E4  2CDF               	goto	u985
  2463  04E5  085C               	movf	??_chargeIndicator+3,w
  2464  04E6  00F8               	movwf	___aldiv@dividend+3
  2465  04E7  085B               	movf	??_chargeIndicator+2,w
  2466  04E8  00F7               	movwf	___aldiv@dividend+2
  2467  04E9  085A               	movf	??_chargeIndicator+1,w
  2468  04EA  00F6               	movwf	___aldiv@dividend+1
  2469  04EB  0859               	movf	??_chargeIndicator,w
  2470  04EC  00F5               	movwf	___aldiv@dividend
  2471  04ED  3186  2674  3184   	fcall	___aldiv
  2472  04F0  0874               	movf	?___aldiv+3,w
  2473  04F1  0140               	movlb	0	; select bank0
  2474  04F2  00E0               	movwf	_chargeIndicator$1120+3
  2475  04F3  0873               	movf	?___aldiv+2,w
  2476  04F4  00DF               	movwf	_chargeIndicator$1120+2
  2477  04F5  0872               	movf	?___aldiv+1,w
  2478  04F6  00DE               	movwf	_chargeIndicator$1120+1
  2479  04F7  0871               	movf	?___aldiv,w
  2480  04F8  00DD               	movwf	_chargeIndicator$1120
  2481  04F9  3000               	movlw	0
  2482  04FA  00F4               	movwf	___aldiv@divisor+3
  2483  04FB  3000               	movlw	0
  2484  04FC  00F3               	movwf	___aldiv@divisor+2
  2485  04FD  3000               	movlw	0
  2486  04FE  00F2               	movwf	___aldiv@divisor+1
  2487  04FF  300A               	movlw	10
  2488  0500  00F1               	movwf	___aldiv@divisor
  2489  0501  0860               	movf	_chargeIndicator$1120+3,w
  2490  0502  00F8               	movwf	___aldiv@dividend+3
  2491  0503  085F               	movf	_chargeIndicator$1120+2,w
  2492  0504  00F7               	movwf	___aldiv@dividend+2
  2493  0505  085E               	movf	_chargeIndicator$1120+1,w
  2494  0506  00F6               	movwf	___aldiv@dividend+1
  2495  0507  085D               	movf	_chargeIndicator$1120,w
  2496  0508  00F5               	movwf	___aldiv@dividend
  2497  0509  3186  2674  3184   	fcall	___aldiv
  2498  050C  0872               	movf	?___aldiv+1,w
  2499  050D  0140               	movlb	0	; select bank0
  2500  050E  00A9               	movwf	_battVolts+1
  2501  050F  0871               	movf	?___aldiv,w
  2502  0510  00A8               	movwf	_battVolts
  2503  0511                     l1392:
  2504                           
  2505                           ;main.c: 784:     if (battVolts > 415) {
  2506  0511  3001               	movlw	1
  2507  0512  0229               	subwf	_battVolts+1,w
  2508  0513  30A0               	movlw	160
  2509  0514  1903               	skipnz
  2510  0515  0228               	subwf	_battVolts,w
  2511  0516  1C03               	skipc
  2512  0517  2D19               	goto	u991
  2513  0518  2D1A               	goto	u990
  2514  0519                     u991:
  2515  0519  2D29               	goto	l1400
  2516  051A                     u990:
  2517  051A                     l1394:
  2518                           
  2519                           ;main.c: 787:         LATA1 = 0;
  2520  051A  1098               	bcf	24,1	;volatile
  2521                           
  2522                           ;main.c: 788:         LATA2 = 0;
  2523  051B  1118               	bcf	24,2	;volatile
  2524                           
  2525                           ;main.c: 789:         LATC0 = 0;
  2526  051C  101A               	bcf	26,0	;volatile
  2527                           
  2528                           ;main.c: 790:         LATC1 = 0;
  2529  051D  109A               	bcf	26,1	;volatile
  2530  051E                     l1396:
  2531                           
  2532                           ;main.c: 791:         if (charging) lowPowerMode = 1;
  2533  051E  082A               	movf	_charging,w
  2534  051F  042B               	iorwf	_charging+1,w
  2535  0520  1903               	btfsc	3,2
  2536  0521  2D23               	goto	u1001
  2537  0522  2D24               	goto	u1000
  2538  0523                     u1001:
  2539  0523  2D84               	goto	l1434
  2540  0524                     u1000:
  2541  0524                     l1398:
  2542  0524  3001               	movlw	1
  2543  0525  00B0               	movwf	_lowPowerMode
  2544  0526  3000               	movlw	0
  2545  0527  00B1               	movwf	_lowPowerMode+1
  2546  0528  2D84               	goto	l1434
  2547  0529                     l1400:
  2548  0529  3001               	movlw	1
  2549  052A  0229               	subwf	_battVolts+1,w
  2550  052B  308F               	movlw	143
  2551  052C  1903               	skipnz
  2552  052D  0228               	subwf	_battVolts,w
  2553  052E  1C03               	skipc
  2554  052F  2D31               	goto	u1011
  2555  0530  2D32               	goto	u1010
  2556  0531                     u1011:
  2557  0531  2D44               	goto	l1410
  2558  0532                     u1010:
  2559  0532                     l1402:
  2560                           
  2561                           ;main.c: 795:         LATA1 = 0;
  2562  0532  1098               	bcf	24,1	;volatile
  2563                           
  2564                           ;main.c: 796:         LATA2 = 0;
  2565  0533  1118               	bcf	24,2	;volatile
  2566                           
  2567                           ;main.c: 797:         LATC0 = 0;
  2568  0534  101A               	bcf	26,0	;volatile
  2569  0535                     l1404:
  2570                           
  2571                           ;main.c: 798:         if (charging) {
  2572  0535  082A               	movf	_charging,w
  2573  0536  042B               	iorwf	_charging+1,w
  2574  0537  1903               	btfsc	3,2
  2575  0538  2D3A               	goto	u1021
  2576  0539  2D3B               	goto	u1020
  2577  053A                     u1021:
  2578  053A  2D84               	goto	l1434
  2579  053B                     u1020:
  2580  053B                     l1406:
  2581                           
  2582                           ;main.c: 799:             if (chargeCycle) LATC1 = 0;
  2583  053B  0842               	movf	_chargeCycle,w
  2584  053C  1903               	btfsc	3,2
  2585  053D  2D3F               	goto	u1031
  2586  053E  2D40               	goto	u1030
  2587  053F                     u1031:
  2588  053F  2D42               	goto	l284
  2589  0540                     u1030:
  2590  0540                     l1408:
  2591  0540  109A               	bcf	26,1	;volatile
  2592  0541  2D84               	goto	l1434
  2593  0542                     l284:	
  2594                           ;main.c: 800:             else LATC1 = 1;
  2595                           
  2596  0542  149A               	bsf	26,1	;volatile
  2597  0543  2D84               	goto	l1434
  2598  0544                     l1410:
  2599  0544  3001               	movlw	1
  2600  0545  0229               	subwf	_battVolts+1,w
  2601  0546  3081               	movlw	129
  2602  0547  1903               	skipnz
  2603  0548  0228               	subwf	_battVolts,w
  2604  0549  1C03               	skipc
  2605  054A  2D4C               	goto	u1041
  2606  054B  2D4D               	goto	u1040
  2607  054C                     u1041:
  2608  054C  2D5E               	goto	l1420
  2609  054D                     u1040:
  2610  054D                     l1412:
  2611                           
  2612                           ;main.c: 805:         LATA1 = 0;
  2613  054D  1098               	bcf	24,1	;volatile
  2614                           
  2615                           ;main.c: 806:         LATA2 = 0;
  2616  054E  1118               	bcf	24,2	;volatile
  2617  054F                     l1414:
  2618                           
  2619                           ;main.c: 807:         if (charging) {
  2620  054F  082A               	movf	_charging,w
  2621  0550  042B               	iorwf	_charging+1,w
  2622  0551  1903               	btfsc	3,2
  2623  0552  2D54               	goto	u1051
  2624  0553  2D55               	goto	u1050
  2625  0554                     u1051:
  2626  0554  2D42               	goto	l284
  2627  0555                     u1050:
  2628  0555                     l1416:
  2629                           
  2630                           ;main.c: 808:             if (chargeCycle) LATC0 = 0;
  2631  0555  0842               	movf	_chargeCycle,w
  2632  0556  1903               	btfsc	3,2
  2633  0557  2D59               	goto	u1061
  2634  0558  2D5A               	goto	u1060
  2635  0559                     u1061:
  2636  0559  2D5C               	goto	l289
  2637  055A                     u1060:
  2638  055A                     l1418:
  2639  055A  101A               	bcf	26,0	;volatile
  2640  055B  2D42               	goto	l284
  2641  055C                     l289:	
  2642                           ;main.c: 809:             else LATC0 = 1;
  2643                           
  2644  055C  141A               	bsf	26,0	;volatile
  2645  055D  2D42               	goto	l284
  2646  055E                     l1420:
  2647  055E  3001               	movlw	1
  2648  055F  0229               	subwf	_battVolts+1,w
  2649  0560  3078               	movlw	120
  2650  0561  1903               	skipnz
  2651  0562  0228               	subwf	_battVolts,w
  2652  0563  1C03               	skipc
  2653  0564  2D66               	goto	u1071
  2654  0565  2D67               	goto	u1070
  2655  0566                     u1071:
  2656  0566  2D79               	goto	l1430
  2657  0567                     u1070:
  2658  0567                     l1422:
  2659                           
  2660                           ;main.c: 815:         LATA1 = 0;
  2661  0567  1098               	bcf	24,1	;volatile
  2662  0568                     l1424:
  2663                           
  2664                           ;main.c: 816:         if (charging) {
  2665  0568  082A               	movf	_charging,w
  2666  0569  042B               	iorwf	_charging+1,w
  2667  056A  1903               	btfsc	3,2
  2668  056B  2D6D               	goto	u1081
  2669  056C  2D6E               	goto	u1080
  2670  056D                     u1081:
  2671  056D  2D76               	goto	l293
  2672  056E                     u1080:
  2673  056E                     l1426:
  2674                           
  2675                           ;main.c: 817:             if (chargeCycle) LATA2 = 0;
  2676  056E  0842               	movf	_chargeCycle,w
  2677  056F  1903               	btfsc	3,2
  2678  0570  2D72               	goto	u1091
  2679  0571  2D73               	goto	u1090
  2680  0572                     u1091:
  2681  0572  2D75               	goto	l294
  2682  0573                     u1090:
  2683  0573                     l1428:
  2684  0573  1118               	bcf	24,2	;volatile
  2685  0574  2D76               	goto	l293
  2686  0575                     l294:	
  2687                           ;main.c: 818:             else LATA2 = 1;
  2688                           
  2689  0575  1518               	bsf	24,2	;volatile
  2690  0576                     l293:	
  2691                           ;main.c: 819:         }
  2692                           
  2693                           
  2694                           ;main.c: 820:         LATC0 = 1;
  2695  0576  141A               	bsf	26,0	;volatile
  2696                           
  2697                           ;main.c: 821:         LATC1 = 1;
  2698  0577  149A               	bsf	26,1	;volatile
  2699                           
  2700                           ;main.c: 822:     } else {
  2701  0578  2D84               	goto	l1434
  2702  0579                     l1430:
  2703                           
  2704                           ;main.c: 824:         if (chargeCycle) LATA1 = 0;
  2705  0579  0842               	movf	_chargeCycle,w
  2706  057A  1903               	btfsc	3,2
  2707  057B  2D7D               	goto	u1101
  2708  057C  2D7E               	goto	u1100
  2709  057D                     u1101:
  2710  057D  2D80               	goto	l297
  2711  057E                     u1100:
  2712  057E                     l1432:
  2713  057E  1098               	bcf	24,1	;volatile
  2714  057F  2D81               	goto	l298
  2715  0580                     l297:	
  2716                           ;main.c: 825:         else LATA1 = 1;
  2717                           
  2718  0580  1498               	bsf	24,1	;volatile
  2719  0581                     l298:
  2720                           
  2721                           ;main.c: 826:         LATA2 = 1;
  2722  0581  1518               	bsf	24,2	;volatile
  2723                           
  2724                           ;main.c: 827:         LATC0 = 1;
  2725  0582  141A               	bsf	26,0	;volatile
  2726                           
  2727                           ;main.c: 828:         LATC1 = 1;
  2728  0583  149A               	bsf	26,1	;volatile
  2729  0584                     l1434:
  2730                           
  2731                           ;main.c: 830:     if (charging) {
  2732  0584  082A               	movf	_charging,w
  2733  0585  042B               	iorwf	_charging+1,w
  2734  0586  1903               	btfsc	3,2
  2735  0587  2D89               	goto	u1111
  2736  0588  2D8A               	goto	u1110
  2737  0589                     u1111:
  2738  0589  2D95               	goto	l300
  2739  058A                     u1110:
  2740  058A                     l1436:
  2741                           
  2742                           ;main.c: 831:         chargeCycle ^= 1;
  2743  058A  3001               	movlw	1
  2744  058B  00D9               	movwf	??_chargeIndicator
  2745  058C  0859               	movf	??_chargeIndicator,w
  2746  058D  06C2               	xorwf	_chargeCycle,f
  2747  058E                     l1438:
  2748                           
  2749                           ;main.c: 833:         blockingDelay(500);
  2750  058E  30F4               	movlw	244
  2751  058F  00F1               	movwf	blockingDelay@mSecs
  2752  0590  3001               	movlw	1
  2753  0591  00F2               	movwf	blockingDelay@mSecs+1
  2754  0592  3187  278B  3184   	fcall	_blockingDelay
  2755  0595                     l300:
  2756  0595  0008               	return
  2757  0596                     __end_of_chargeIndicator:
  2758                           
  2759                           	psect	text5
  2760  078B                     __ptext5:	
  2761 ;; *************** function _blockingDelay *****************
  2762 ;; Defined at:
  2763 ;;		line 718 in file "main.c"
  2764 ;; Parameters:    Size  Location     Type
  2765 ;;  mSecs           2    1[COMMON] unsigned int 
  2766 ;; Auto vars:     Size  Location     Type
  2767 ;;		None
  2768 ;; Return value:  Size  Location     Type
  2769 ;;                  1    wreg      void 
  2770 ;; Registers used:
  2771 ;;		wreg, status,2, status,0
  2772 ;; Tracked objects:
  2773 ;;		On entry : 0/0
  2774 ;;		On exit  : 0/0
  2775 ;;		Unchanged: 0/0
  2776 ;; Data sizes:     COMMON   BANK0   BANK1   BANK2   BANK3   BANK4   BANK5   BANK6
  2777 ;;      Params:         2       0       0       0       0       0       0       0
  2778 ;;      Locals:         0       0       0       0       0       0       0       0
  2779 ;;      Temps:          0       0       0       0       0       0       0       0
  2780 ;;      Totals:         2       0       0       0       0       0       0       0
  2781 ;;Total ram usage:        2 bytes
  2782 ;; Hardware stack levels used: 1
  2783 ;; Hardware stack levels required when called: 1
  2784 ;; This function calls:
  2785 ;;		Nothing
  2786 ;; This function is called by:
  2787 ;;		_main
  2788 ;;		_doTheArc
  2789 ;;		_playNote
  2790 ;;		_chargeIndicator
  2791 ;; This function uses a non-reentrant model
  2792 ;;
  2793                           
  2794                           
  2795                           ;psect for function _blockingDelay
  2796  078B                     _blockingDelay:
  2797  078B                     l1310:	
  2798                           ;incstack = 0
  2799                           ; Regs used in _blockingDelay: [wreg+status,2+status,0]
  2800                           
  2801                           
  2802                           ;main.c: 719:     genericDelay = mSecs;
  2803  078B  0872               	movf	blockingDelay@mSecs+1,w
  2804  078C  0140               	movlb	0	; select bank0
  2805  078D  00B7               	movwf	_genericDelay+1
  2806  078E  0871               	movf	blockingDelay@mSecs,w
  2807  078F  00B6               	movwf	_genericDelay
  2808  0790                     l1312:	
  2809                           ;main.c: 720:     while (genericDelay > 0);
  2810                           
  2811  0790  0836               	movf	_genericDelay,w
  2812  0791  0437               	iorwf	_genericDelay+1,w
  2813  0792  1D03               	btfss	3,2
  2814  0793  2F95               	goto	u811
  2815  0794  2F96               	goto	u810
  2816  0795                     u811:
  2817  0795  2F90               	goto	l1312
  2818  0796                     u810:
  2819  0796                     l259:
  2820  0796  0008               	return
  2821  0797                     __end_of_blockingDelay:
  2822                           
  2823                           	psect	text6
  2824  0674                     __ptext6:	
  2825 ;; *************** function ___aldiv *****************
  2826 ;; Defined at:
  2827 ;;		line 5 in file "C:\Program Files\Microchip\xc8\v2.32\pic\sources\c99\common\aldiv.c"
  2828 ;; Parameters:    Size  Location     Type
  2829 ;;  divisor         4    1[COMMON] long 
  2830 ;;  dividend        4    5[COMMON] long 
  2831 ;; Auto vars:     Size  Location     Type
  2832 ;;  quotient        4    2[BANK0 ] long 
  2833 ;;  sign            1    1[BANK0 ] unsigned char 
  2834 ;;  counter         1    0[BANK0 ] unsigned char 
  2835 ;; Return value:  Size  Location     Type
  2836 ;;                  4    1[COMMON] long 
  2837 ;; Registers used:
  2838 ;;		wreg, status,2, status,0
  2839 ;; Tracked objects:
  2840 ;;		On entry : 0/0
  2841 ;;		On exit  : 0/0
  2842 ;;		Unchanged: 0/0
  2843 ;; Data sizes:     COMMON   BANK0   BANK1   BANK2   BANK3   BANK4   BANK5   BANK6
  2844 ;;      Params:         8       0       0       0       0       0       0       0
  2845 ;;      Locals:         0       6       0       0       0       0       0       0
  2846 ;;      Temps:          1       0       0       0       0       0       0       0
  2847 ;;      Totals:         9       6       0       0       0       0       0       0
  2848 ;;Total ram usage:       15 bytes
  2849 ;; Hardware stack levels used: 1
  2850 ;; Hardware stack levels required when called: 1
  2851 ;; This function calls:
  2852 ;;		Nothing
  2853 ;; This function is called by:
  2854 ;;		_chargeIndicator
  2855 ;; This function uses a non-reentrant model
  2856 ;;
  2857                           
  2858                           
  2859                           ;psect for function ___aldiv
  2860  0674                     ___aldiv:
  2861  0674                     l1324:	
  2862                           ;incstack = 0
  2863                           ; Regs used in ___aldiv: [wreg+status,2+status,0]
  2864                           
  2865  0674  0140               	movlb	0	; select bank0
  2866  0675  01D4               	clrf	___aldiv@sign
  2867  0676                     l1326:
  2868  0676  1FF4               	btfss	___aldiv@divisor+3,7
  2869  0677  2E79               	goto	u831
  2870  0678  2E7A               	goto	u830
  2871  0679                     u831:
  2872  0679  2E87               	goto	l453
  2873  067A                     u830:
  2874  067A                     l1328:
  2875  067A  09F1               	comf	___aldiv@divisor,f
  2876  067B  09F2               	comf	___aldiv@divisor+1,f
  2877  067C  09F3               	comf	___aldiv@divisor+2,f
  2878  067D  09F4               	comf	___aldiv@divisor+3,f
  2879  067E  0AF1               	incf	___aldiv@divisor,f
  2880  067F  1903               	skipnz
  2881  0680  0AF2               	incf	___aldiv@divisor+1,f
  2882  0681  1903               	skipnz
  2883  0682  0AF3               	incf	___aldiv@divisor+2,f
  2884  0683  1903               	skipnz
  2885  0684  0AF4               	incf	___aldiv@divisor+3,f
  2886  0685  01D4               	clrf	___aldiv@sign
  2887  0686  0AD4               	incf	___aldiv@sign,f
  2888  0687                     l453:
  2889  0687  1FF8               	btfss	___aldiv@dividend+3,7
  2890  0688  2E8A               	goto	u841
  2891  0689  2E8B               	goto	u840
  2892  068A                     u841:
  2893  068A  2E9A               	goto	l1334
  2894  068B                     u840:
  2895  068B                     l1330:
  2896  068B  09F5               	comf	___aldiv@dividend,f
  2897  068C  09F6               	comf	___aldiv@dividend+1,f
  2898  068D  09F7               	comf	___aldiv@dividend+2,f
  2899  068E  09F8               	comf	___aldiv@dividend+3,f
  2900  068F  0AF5               	incf	___aldiv@dividend,f
  2901  0690  1903               	skipnz
  2902  0691  0AF6               	incf	___aldiv@dividend+1,f
  2903  0692  1903               	skipnz
  2904  0693  0AF7               	incf	___aldiv@dividend+2,f
  2905  0694  1903               	skipnz
  2906  0695  0AF8               	incf	___aldiv@dividend+3,f
  2907  0696                     l1332:
  2908  0696  3001               	movlw	1
  2909  0697  00F9               	movwf	??___aldiv
  2910  0698  0879               	movf	??___aldiv,w
  2911  0699  06D4               	xorwf	___aldiv@sign,f
  2912  069A                     l1334:
  2913  069A  3000               	movlw	0
  2914  069B  00D8               	movwf	___aldiv@quotient+3
  2915  069C  3000               	movlw	0
  2916  069D  00D7               	movwf	___aldiv@quotient+2
  2917  069E  3000               	movlw	0
  2918  069F  00D6               	movwf	___aldiv@quotient+1
  2919  06A0  3000               	movlw	0
  2920  06A1  00D5               	movwf	___aldiv@quotient
  2921  06A2                     l1336:
  2922  06A2  0874               	movf	___aldiv@divisor+3,w
  2923  06A3  0473               	iorwf	___aldiv@divisor+2,w
  2924  06A4  0472               	iorwf	___aldiv@divisor+1,w
  2925  06A5  0471               	iorwf	___aldiv@divisor,w
  2926  06A6  1903               	skipnz
  2927  06A7  2EA9               	goto	u851
  2928  06A8  2EAA               	goto	u850
  2929  06A9                     u851:
  2930  06A9  2EEB               	goto	l1356
  2931  06AA                     u850:
  2932  06AA                     l1338:
  2933  06AA  01D3               	clrf	___aldiv@counter
  2934  06AB  0AD3               	incf	___aldiv@counter,f
  2935  06AC  2EB8               	goto	l1342
  2936  06AD                     l1340:
  2937  06AD  3001               	movlw	1
  2938  06AE                     u865:
  2939  06AE  35F1               	lslf	___aldiv@divisor,f
  2940  06AF  0DF2               	rlf	___aldiv@divisor+1,f
  2941  06B0  0DF3               	rlf	___aldiv@divisor+2,f
  2942  06B1  0DF4               	rlf	___aldiv@divisor+3,f
  2943  06B2  0B89               	decfsz	9,f
  2944  06B3  2EAE               	goto	u865
  2945  06B4  3001               	movlw	1
  2946  06B5  00F9               	movwf	??___aldiv
  2947  06B6  0879               	movf	??___aldiv,w
  2948  06B7  07D3               	addwf	___aldiv@counter,f
  2949  06B8                     l1342:
  2950  06B8  1FF4               	btfss	___aldiv@divisor+3,7
  2951  06B9  2EBB               	goto	u871
  2952  06BA  2EBC               	goto	u870
  2953  06BB                     u871:
  2954  06BB  2EAD               	goto	l1340
  2955  06BC                     u870:
  2956  06BC                     l1344:
  2957  06BC  3001               	movlw	1
  2958  06BD                     u885:
  2959  06BD  35D5               	lslf	___aldiv@quotient,f
  2960  06BE  0DD6               	rlf	___aldiv@quotient+1,f
  2961  06BF  0DD7               	rlf	___aldiv@quotient+2,f
  2962  06C0  0DD8               	rlf	___aldiv@quotient+3,f
  2963  06C1  0B89               	decfsz	9,f
  2964  06C2  2EBD               	goto	u885
  2965  06C3                     l1346:
  2966  06C3  0874               	movf	___aldiv@divisor+3,w
  2967  06C4  0278               	subwf	___aldiv@dividend+3,w
  2968  06C5  1D03               	skipz
  2969  06C6  2ED1               	goto	u895
  2970  06C7  0873               	movf	___aldiv@divisor+2,w
  2971  06C8  0277               	subwf	___aldiv@dividend+2,w
  2972  06C9  1D03               	skipz
  2973  06CA  2ED1               	goto	u895
  2974  06CB  0872               	movf	___aldiv@divisor+1,w
  2975  06CC  0276               	subwf	___aldiv@dividend+1,w
  2976  06CD  1D03               	skipz
  2977  06CE  2ED1               	goto	u895
  2978  06CF  0871               	movf	___aldiv@divisor,w
  2979  06D0  0275               	subwf	___aldiv@dividend,w
  2980  06D1                     u895:
  2981  06D1  1C03               	skipc
  2982  06D2  2ED4               	goto	u891
  2983  06D3  2ED5               	goto	u890
  2984  06D4                     u891:
  2985  06D4  2EDE               	goto	l1352
  2986  06D5                     u890:
  2987  06D5                     l1348:
  2988  06D5  0871               	movf	___aldiv@divisor,w
  2989  06D6  02F5               	subwf	___aldiv@dividend,f
  2990  06D7  0872               	movf	___aldiv@divisor+1,w
  2991  06D8  3BF6               	subwfb	___aldiv@dividend+1,f
  2992  06D9  0873               	movf	___aldiv@divisor+2,w
  2993  06DA  3BF7               	subwfb	___aldiv@dividend+2,f
  2994  06DB  0874               	movf	___aldiv@divisor+3,w
  2995  06DC  3BF8               	subwfb	___aldiv@dividend+3,f
  2996  06DD                     l1350:
  2997  06DD  1455               	bsf	___aldiv@quotient,0
  2998  06DE                     l1352:
  2999  06DE  3001               	movlw	1
  3000  06DF                     u905:
  3001  06DF  36F4               	lsrf	___aldiv@divisor+3,f
  3002  06E0  0CF3               	rrf	___aldiv@divisor+2,f
  3003  06E1  0CF2               	rrf	___aldiv@divisor+1,f
  3004  06E2  0CF1               	rrf	___aldiv@divisor,f
  3005  06E3  0B89               	decfsz	9,f
  3006  06E4  2EDF               	goto	u905
  3007  06E5                     l1354:
  3008  06E5  3001               	movlw	1
  3009  06E6  02D3               	subwf	___aldiv@counter,f
  3010  06E7  1D03               	btfss	3,2
  3011  06E8  2EEA               	goto	u911
  3012  06E9  2EEB               	goto	u910
  3013  06EA                     u911:
  3014  06EA  2EBC               	goto	l1344
  3015  06EB                     u910:
  3016  06EB                     l1356:
  3017  06EB  0854               	movf	___aldiv@sign,w
  3018  06EC  1903               	btfsc	3,2
  3019  06ED  2EEF               	goto	u921
  3020  06EE  2EF0               	goto	u920
  3021  06EF                     u921:
  3022  06EF  2EFB               	goto	l1360
  3023  06F0                     u920:
  3024  06F0                     l1358:
  3025  06F0  09D5               	comf	___aldiv@quotient,f
  3026  06F1  09D6               	comf	___aldiv@quotient+1,f
  3027  06F2  09D7               	comf	___aldiv@quotient+2,f
  3028  06F3  09D8               	comf	___aldiv@quotient+3,f
  3029  06F4  0AD5               	incf	___aldiv@quotient,f
  3030  06F5  1903               	skipnz
  3031  06F6  0AD6               	incf	___aldiv@quotient+1,f
  3032  06F7  1903               	skipnz
  3033  06F8  0AD7               	incf	___aldiv@quotient+2,f
  3034  06F9  1903               	skipnz
  3035  06FA  0AD8               	incf	___aldiv@quotient+3,f
  3036  06FB                     l1360:
  3037  06FB  0858               	movf	___aldiv@quotient+3,w
  3038  06FC  00F4               	movwf	?___aldiv+3
  3039  06FD  0857               	movf	___aldiv@quotient+2,w
  3040  06FE  00F3               	movwf	?___aldiv+2
  3041  06FF  0856               	movf	___aldiv@quotient+1,w
  3042  0700  00F2               	movwf	?___aldiv+1
  3043  0701  0855               	movf	___aldiv@quotient,w
  3044  0702  00F1               	movwf	?___aldiv
  3045  0703                     l463:
  3046  0703  0008               	return
  3047  0704                     __end_of___aldiv:
  3048                           
  3049                           	psect	text7
  3050  0704                     __ptext7:	
  3051 ;; *************** function _ButtonDebounceInit *****************
  3052 ;; Defined at:
  3053 ;;		line 56 in file "source/button_debounce.c"
  3054 ;; Parameters:    Size  Location     Type
  3055 ;;  port            1    wreg     PTR struct .
  3056 ;;		 -> aPorts(12), 
  3057 ;;  pulledUpButt    1    1[COMMON] unsigned char 
  3058 ;; Auto vars:     Size  Location     Type
  3059 ;;  port            1    4[COMMON] PTR struct .
  3060 ;;		 -> aPorts(12), 
  3061 ;;  i               1    3[COMMON] unsigned char 
  3062 ;; Return value:  Size  Location     Type
  3063 ;;                  1    wreg      void 
  3064 ;; Registers used:
  3065 ;;		wreg, fsr1l, fsr1h, status,2, status,0
  3066 ;; Tracked objects:
  3067 ;;		On entry : 0/0
  3068 ;;		On exit  : 0/0
  3069 ;;		Unchanged: 0/0
  3070 ;; Data sizes:     COMMON   BANK0   BANK1   BANK2   BANK3   BANK4   BANK5   BANK6
  3071 ;;      Params:         1       0       0       0       0       0       0       0
  3072 ;;      Locals:         2       0       0       0       0       0       0       0
  3073 ;;      Temps:          1       0       0       0       0       0       0       0
  3074 ;;      Totals:         4       0       0       0       0       0       0       0
  3075 ;;Total ram usage:        4 bytes
  3076 ;; Hardware stack levels used: 1
  3077 ;; Hardware stack levels required when called: 1
  3078 ;; This function calls:
  3079 ;;		Nothing
  3080 ;; This function is called by:
  3081 ;;		_main
  3082 ;; This function uses a non-reentrant model
  3083 ;;
  3084                           
  3085                           
  3086                           ;psect for function _ButtonDebounceInit
  3087  0704                     _ButtonDebounceInit:
  3088                           
  3089                           ;incstack = 0
  3090                           ; Regs used in _ButtonDebounceInit: [wreg+fsr1l+fsr1h+status,2+status,0]
  3091                           ;ButtonDebounceInit@port stored from wreg
  3092  0704  00F4               	movwf	ButtonDebounceInit@port
  3093  0705                     l1364:
  3094                           
  3095                           ;source/button_debounce.c: 56: ButtonDebounceInit(Debouncer *port, uint8_t pulledUpButto
      +                          ns);source/button_debounce.c: 57: {;source/button_debounce.c: 58:     uint8_t i;;source/
      +                          button_debounce.c: 60:     port->index = 0;
  3096  0705  0874               	movf	ButtonDebounceInit@port,w
  3097  0706  3E08               	addlw	8
  3098  0707  0086               	movwf	6
  3099  0708  0187               	clrf	7
  3100  0709  0181               	clrf	1
  3101                           
  3102                           ;source/button_debounce.c: 61:     port->debouncedState = 0x00;
  3103  070A  0874               	movf	ButtonDebounceInit@port,w
  3104  070B  3E09               	addlw	9
  3105  070C  0086               	movwf	6
  3106  070D  0187               	clrf	7
  3107  070E  0181               	clrf	1
  3108                           
  3109                           ;source/button_debounce.c: 62:     port->changed = 0x00;
  3110  070F  0874               	movf	ButtonDebounceInit@port,w
  3111  0710  3E0A               	addlw	10
  3112  0711  0086               	movwf	6
  3113  0712  0187               	clrf	7
  3114  0713  0181               	clrf	1
  3115                           
  3116                           ;source/button_debounce.c: 63:     port->pullType = pulledUpButtons;
  3117  0714  0871               	movf	ButtonDebounceInit@pulledUpButtons,w
  3118  0715  00F2               	movwf	??_ButtonDebounceInit
  3119  0716  0874               	movf	ButtonDebounceInit@port,w
  3120  0717  3E0B               	addlw	11
  3121  0718  0086               	movwf	6
  3122  0719  0187               	clrf	7
  3123  071A  0872               	movf	??_ButtonDebounceInit,w
  3124  071B  0081               	movwf	1
  3125  071C                     l1366:
  3126                           
  3127                           ;source/button_debounce.c: 66:     for(i = 0; i < 8; i++)
  3128  071C  01F3               	clrf	ButtonDebounceInit@i
  3129  071D                     l1372:
  3130                           
  3131                           ;source/button_debounce.c: 67:     {;source/button_debounce.c: 68:         port->state[i
      +                          ] = 0x00;
  3132  071D  0873               	movf	ButtonDebounceInit@i,w
  3133  071E  0774               	addwf	ButtonDebounceInit@port,w
  3134  071F  00F2               	movwf	??_ButtonDebounceInit
  3135  0720  0872               	movf	??_ButtonDebounceInit,w
  3136  0721  0086               	movwf	6
  3137  0722  0187               	clrf	7
  3138  0723  0181               	clrf	1
  3139  0724                     l1374:
  3140                           
  3141                           ;source/button_debounce.c: 69:     }
  3142  0724  3001               	movlw	1
  3143  0725  00F2               	movwf	??_ButtonDebounceInit
  3144  0726  0872               	movf	??_ButtonDebounceInit,w
  3145  0727  07F3               	addwf	ButtonDebounceInit@i,f
  3146  0728                     l1376:
  3147  0728  3008               	movlw	8
  3148  0729  0273               	subwf	ButtonDebounceInit@i,w
  3149  072A  1C03               	skipc
  3150  072B  2F2D               	goto	u931
  3151  072C  2F2E               	goto	u930
  3152  072D                     u931:
  3153  072D  2F1D               	goto	l1372
  3154  072E                     u930:
  3155  072E                     l369:
  3156  072E  0008               	return
  3157  072F                     __end_of_ButtonDebounceInit:
  3158                           
  3159                           	psect	intentry
  3160  0004                     __pintentry:	
  3161 ;; *************** function _isr *****************
  3162 ;; Defined at:
  3163 ;;		line 537 in file "main.c"
  3164 ;; Parameters:    Size  Location     Type
  3165 ;;		None
  3166 ;; Auto vars:     Size  Location     Type
  3167 ;;		None
  3168 ;; Return value:  Size  Location     Type
  3169 ;;                  1    wreg      void 
  3170 ;; Registers used:
  3171 ;;		wreg, status,2, status,0
  3172 ;; Tracked objects:
  3173 ;;		On entry : 0/0
  3174 ;;		On exit  : 0/0
  3175 ;;		Unchanged: 0/0
  3176 ;; Data sizes:     COMMON   BANK0   BANK1   BANK2   BANK3   BANK4   BANK5   BANK6
  3177 ;;      Params:         0       0       0       0       0       0       0       0
  3178 ;;      Locals:         0       0       0       0       0       0       0       0
  3179 ;;      Temps:          1       0       0       0       0       0       0       0
  3180 ;;      Totals:         1       0       0       0       0       0       0       0
  3181 ;;Total ram usage:        1 bytes
  3182 ;; Hardware stack levels used: 1
  3183 ;; This function calls:
  3184 ;;		Nothing
  3185 ;; This function is called by:
  3186 ;;		Interrupt level 1
  3187 ;; This function uses a non-reentrant model
  3188 ;;
  3189                           
  3190  0004                     _isr:
  3191                           
  3192                           ;incstack = 0
  3193  0004  147E               	bsf	int$flags,0	;set compiler interrupt flag (level 1)
  3194                           
  3195                           ; Regs used in _isr: [wreg+status,2+status,0]
  3196  0005  3180               	pagesel	$
  3197  0006                     i1l1648:
  3198                           
  3199                           ;main.c: 540:     if (PIR0bits.IOCIF) {
  3200  0006  014E               	movlb	14	; select bank14
  3201  0007  1E0C               	btfss	12,4	;volatile
  3202  0008  280A               	goto	u129_21
  3203  0009  280B               	goto	u129_20
  3204  000A                     u129_21:
  3205  000A  2867               	goto	i1l1696
  3206  000B                     u129_20:
  3207  000B                     i1l1650:
  3208                           
  3209                           ;main.c: 564:         if (IOCAF0) {
  3210  000B  017E               	movlb	62	; select bank62
  3211  000C  1C3F               	btfss	63,0	;volatile
  3212  000D  280F               	goto	u130_21
  3213  000E  2810               	goto	u130_20
  3214  000F                     u130_21:
  3215  000F  2836               	goto	i1l1672
  3216  0010                     u130_20:
  3217  0010                     i1l1652:
  3218                           
  3219                           ;main.c: 565:             IOCAF0 = 0;
  3220  0010  103F               	bcf	63,0	;volatile
  3221                           
  3222                           ;main.c: 567:             if (!PORTAbits.RA0 && !PORTAbits.RA5) {
  3223  0011  0140               	movlb	0	; select bank0
  3224  0012  180C               	btfsc	12,0	;volatile
  3225  0013  2815               	goto	u131_21
  3226  0014  2816               	goto	u131_20
  3227  0015                     u131_21:
  3228  0015  2824               	goto	i1l1662
  3229  0016                     u131_20:
  3230  0016                     i1l1654:
  3231  0016  1A8C               	btfsc	12,5	;volatile
  3232  0017  2819               	goto	u132_21
  3233  0018  281A               	goto	u132_20
  3234  0019                     u132_21:
  3235  0019  2824               	goto	i1l1662
  3236  001A                     u132_20:
  3237  001A                     i1l1656:
  3238                           
  3239                           ;main.c: 568:                 lowPowerMode = 0;
  3240  001A  01B0               	clrf	_lowPowerMode
  3241  001B  01B1               	clrf	_lowPowerMode+1
  3242  001C                     i1l1658:
  3243                           
  3244                           ;main.c: 569:                 poweredOn = 1;
  3245  001C  3001               	movlw	1
  3246  001D  00B4               	movwf	_poweredOn
  3247  001E  3000               	movlw	0
  3248  001F  00B5               	movwf	_poweredOn+1
  3249  0020                     i1l1660:
  3250                           
  3251                           ;main.c: 570:                 showCharge = 1;
  3252  0020  3001               	movlw	1
  3253  0021  00B2               	movwf	_showCharge
  3254  0022  3000               	movlw	0
  3255  0023  00B3               	movwf	_showCharge+1
  3256  0024                     i1l1662:
  3257                           
  3258                           ;main.c: 573:             if (PORTAbits.RA0 && !PORTAbits.RA5) {
  3259  0024  1C0C               	btfss	12,0	;volatile
  3260  0025  2827               	goto	u133_21
  3261  0026  2828               	goto	u133_20
  3262  0027                     u133_21:
  3263  0027  2836               	goto	i1l1672
  3264  0028                     u133_20:
  3265  0028                     i1l1664:
  3266  0028  1A8C               	btfsc	12,5	;volatile
  3267  0029  282B               	goto	u134_21
  3268  002A  282C               	goto	u134_20
  3269  002B                     u134_21:
  3270  002B  2836               	goto	i1l1672
  3271  002C                     u134_20:
  3272  002C                     i1l1666:
  3273                           
  3274                           ;main.c: 575:                 showCharge = 0;
  3275  002C  01B2               	clrf	_showCharge
  3276  002D  01B3               	clrf	_showCharge+1
  3277                           
  3278                           ;main.c: 576:                 poweredOn = 0;
  3279  002E  01B4               	clrf	_poweredOn
  3280  002F  01B5               	clrf	_poweredOn+1
  3281  0030                     i1l1668:
  3282                           
  3283                           ;main.c: 577:                 lowPowerMode = 1;
  3284  0030  3001               	movlw	1
  3285  0031  00B0               	movwf	_lowPowerMode
  3286  0032  3000               	movlw	0
  3287  0033  00B1               	movwf	_lowPowerMode+1
  3288  0034                     i1l1670:
  3289                           
  3290                           ;main.c: 578:                 forceArc = 0;
  3291  0034  01C0               	clrf	_forceArc
  3292  0035  01C1               	clrf	_forceArc+1
  3293  0036                     i1l1672:
  3294                           
  3295                           ;main.c: 583:         if (IOCAF3) {
  3296  0036  017E               	movlb	62	; select bank62
  3297  0037  1DBF               	btfss	63,3	;volatile
  3298  0038  283A               	goto	u135_21
  3299  0039  283B               	goto	u135_20
  3300  003A                     u135_21:
  3301  003A  2867               	goto	i1l1696
  3302  003B                     u135_20:
  3303  003B                     i1l1674:
  3304                           
  3305                           ;main.c: 584:             IOCAF3 = 0;
  3306  003B  11BF               	bcf	63,3	;volatile
  3307                           
  3308                           ;main.c: 586:             if (!PORTAbits.RA3 && !PORTAbits.RA0 && !PORTAbits.RA5) {
  3309  003C  0140               	movlb	0	; select bank0
  3310  003D  198C               	btfsc	12,3	;volatile
  3311  003E  2840               	goto	u136_21
  3312  003F  2841               	goto	u136_20
  3313  0040                     u136_21:
  3314  0040  2855               	goto	i1l1686
  3315  0041                     u136_20:
  3316  0041                     i1l1676:
  3317  0041  180C               	btfsc	12,0	;volatile
  3318  0042  2844               	goto	u137_21
  3319  0043  2845               	goto	u137_20
  3320  0044                     u137_21:
  3321  0044  2855               	goto	i1l1686
  3322  0045                     u137_20:
  3323  0045                     i1l1678:
  3324  0045  1A8C               	btfsc	12,5	;volatile
  3325  0046  2848               	goto	u138_21
  3326  0047  2849               	goto	u138_20
  3327  0048                     u138_21:
  3328  0048  2855               	goto	i1l1686
  3329  0049                     u138_20:
  3330  0049                     i1l1680:
  3331                           
  3332                           ;main.c: 587:                 lowPowerMode = 0;
  3333  0049  01B0               	clrf	_lowPowerMode
  3334  004A  01B1               	clrf	_lowPowerMode+1
  3335  004B                     i1l1682:
  3336                           
  3337                           ;main.c: 588:                 poweredOn = 1;
  3338  004B  3001               	movlw	1
  3339  004C  00B4               	movwf	_poweredOn
  3340  004D  3000               	movlw	0
  3341  004E  00B5               	movwf	_poweredOn+1
  3342  004F                     i1l1684:
  3343                           
  3344                           ;main.c: 589:                 showCharge = 0;
  3345  004F  01B2               	clrf	_showCharge
  3346  0050  01B3               	clrf	_showCharge+1
  3347                           
  3348                           ;main.c: 590:                 gotTheTouch = 1;
  3349  0051  3001               	movlw	1
  3350  0052  00AC               	movwf	_gotTheTouch
  3351  0053  3000               	movlw	0
  3352  0054  00AD               	movwf	_gotTheTouch+1
  3353  0055                     i1l1686:
  3354                           
  3355                           ;main.c: 593:             if (PORTAbits.RA3 && !PORTAbits.RA0 && !PORTAbits.RA5) {
  3356  0055  1D8C               	btfss	12,3	;volatile
  3357  0056  2858               	goto	u139_21
  3358  0057  2859               	goto	u139_20
  3359  0058                     u139_21:
  3360  0058  2867               	goto	i1l1696
  3361  0059                     u139_20:
  3362  0059                     i1l1688:
  3363  0059  180C               	btfsc	12,0	;volatile
  3364  005A  285C               	goto	u140_21
  3365  005B  285D               	goto	u140_20
  3366  005C                     u140_21:
  3367  005C  2867               	goto	i1l1696
  3368  005D                     u140_20:
  3369  005D                     i1l1690:
  3370  005D  1A8C               	btfsc	12,5	;volatile
  3371  005E  2860               	goto	u141_21
  3372  005F  2861               	goto	u141_20
  3373  0060                     u141_21:
  3374  0060  2867               	goto	i1l1696
  3375  0061                     u141_20:
  3376  0061                     i1l1692:
  3377                           
  3378                           ;main.c: 597:                 showCharge = 1;
  3379  0061  3001               	movlw	1
  3380  0062  00B2               	movwf	_showCharge
  3381  0063  3000               	movlw	0
  3382  0064  00B3               	movwf	_showCharge+1
  3383  0065                     i1l1694:
  3384                           
  3385                           ;main.c: 598:                 gotTheTouch = 0;
  3386  0065  01AC               	clrf	_gotTheTouch
  3387  0066  01AD               	clrf	_gotTheTouch+1
  3388  0067                     i1l1696:
  3389                           
  3390                           ;main.c: 608:     if (PIR1bits.TMR2IF) {
  3391  0067  014E               	movlb	14	; select bank14
  3392  0068  1F0D               	btfss	13,6	;volatile
  3393  0069  286B               	goto	u142_21
  3394  006A  286C               	goto	u142_20
  3395  006B                     u142_21:
  3396  006B  2892               	goto	i1l1714
  3397  006C                     u142_20:
  3398  006C                     i1l1698:
  3399                           
  3400                           ;main.c: 609:         if (!noGate && poweredOn && gotTheTouch) {
  3401  006C  0140               	movlb	0	; select bank0
  3402  006D  0866               	movf	_noGate,w
  3403  006E  0467               	iorwf	_noGate+1,w
  3404  006F  1D03               	btfss	3,2
  3405  0070  2872               	goto	u143_21
  3406  0071  2873               	goto	u143_20
  3407  0072                     u143_21:
  3408  0072  288E               	goto	i1l1710
  3409  0073                     u143_20:
  3410  0073                     i1l1700:
  3411  0073  0834               	movf	_poweredOn,w
  3412  0074  0435               	iorwf	_poweredOn+1,w
  3413  0075  1903               	btfsc	3,2
  3414  0076  2878               	goto	u144_21
  3415  0077  2879               	goto	u144_20
  3416  0078                     u144_21:
  3417  0078  288E               	goto	i1l1710
  3418  0079                     u144_20:
  3419  0079                     i1l1702:
  3420  0079  082C               	movf	_gotTheTouch,w
  3421  007A  042D               	iorwf	_gotTheTouch+1,w
  3422  007B  1903               	btfsc	3,2
  3423  007C  287E               	goto	u145_21
  3424  007D  287F               	goto	u145_20
  3425  007E                     u145_21:
  3426  007E  288E               	goto	i1l1710
  3427  007F                     u145_20:
  3428  007F                     i1l1704:
  3429                           
  3430                           ;main.c: 610:             postscaler ^= 1;
  3431  007F  3001               	movlw	1
  3432  0080  06BA               	xorwf	_postscaler,f
  3433  0081  3000               	movlw	0
  3434  0082  06BB               	xorwf	_postscaler+1,f
  3435  0083                     i1l1706:
  3436                           
  3437                           ;main.c: 611:             if (postscaler) {
  3438  0083  083A               	movf	_postscaler,w
  3439  0084  043B               	iorwf	_postscaler+1,w
  3440  0085  1903               	btfsc	3,2
  3441  0086  2888               	goto	u146_21
  3442  0087  2889               	goto	u146_20
  3443  0088                     u146_21:
  3444  0088  2890               	goto	i1l1712
  3445  0089                     u146_20:
  3446  0089                     i1l1708:
  3447                           
  3448                           ;main.c: 612:                 gate ^= 1;
  3449  0089  3001               	movlw	1
  3450  008A  06BE               	xorwf	_gate,f
  3451  008B  3000               	movlw	0
  3452  008C  06BF               	xorwf	_gate+1,f
  3453  008D  2890               	goto	i1l1712
  3454  008E                     i1l1710:
  3455                           
  3456                           ;main.c: 615:             gate = 0;
  3457  008E  01BE               	clrf	_gate
  3458  008F  01BF               	clrf	_gate+1
  3459  0090                     i1l1712:
  3460                           
  3461                           ;main.c: 617:         PIR1bits.TMR2IF = 0;
  3462  0090  014E               	movlb	14	; select bank14
  3463  0091  130D               	bcf	13,6	;volatile
  3464  0092                     i1l1714:
  3465                           
  3466                           ;main.c: 622:     if (PIR0bits.TMR0IF) {
  3467  0092  1E8C               	btfss	12,5	;volatile
  3468  0093  2895               	goto	u147_21
  3469  0094  2896               	goto	u147_20
  3470  0095                     u147_21:
  3471  0095  28F8               	goto	i1l228
  3472  0096                     u147_20:
  3473  0096                     i1l1716:
  3474                           
  3475                           ;main.c: 623:         if (clockDivider < 15) {
  3476  0096  300F               	movlw	15
  3477  0097  0140               	movlb	0	; select bank0
  3478  0098  0245               	subwf	_clockDivider,w
  3479  0099  1803               	skipnc
  3480  009A  289C               	goto	u148_21
  3481  009B  289D               	goto	u148_20
  3482  009C                     u148_21:
  3483  009C  28AC               	goto	i1l1724
  3484  009D                     u148_20:
  3485  009D                     i1l1718:
  3486                           
  3487                           ;main.c: 624:             if(debugging) clockDivider = 15;
  3488  009D  0846               	movf	_debugging,w
  3489  009E  1903               	btfsc	3,2
  3490  009F  28A1               	goto	u149_21
  3491  00A0  28A2               	goto	u149_20
  3492  00A1                     u149_21:
  3493  00A1  28A7               	goto	i1l1722
  3494  00A2                     u149_20:
  3495  00A2                     i1l1720:
  3496  00A2  300F               	movlw	15
  3497  00A3  00F0               	movwf	??_isr
  3498  00A4  0870               	movf	??_isr,w
  3499  00A5  00C5               	movwf	_clockDivider
  3500  00A6  28C9               	goto	i1l1738
  3501  00A7                     i1l1722:
  3502  00A7  3001               	movlw	1
  3503  00A8  00F0               	movwf	??_isr
  3504  00A9  0870               	movf	??_isr,w
  3505  00AA  07C5               	addwf	_clockDivider,f
  3506  00AB  28C9               	goto	i1l1738
  3507  00AC                     i1l1724:
  3508                           
  3509                           ;main.c: 628:             if (debugging) genericDelay = 0;
  3510  00AC  0846               	movf	_debugging,w
  3511  00AD  1903               	btfsc	3,2
  3512  00AE  28B0               	goto	u150_21
  3513  00AF  28B1               	goto	u150_20
  3514  00B0                     u150_21:
  3515  00B0  28B4               	goto	i1l1728
  3516  00B1                     u150_20:
  3517  00B1                     i1l1726:
  3518  00B1  01B6               	clrf	_genericDelay
  3519  00B2  01B7               	clrf	_genericDelay+1
  3520  00B3  28BE               	goto	i1l1732
  3521  00B4                     i1l1728:
  3522  00B4  0836               	movf	_genericDelay,w
  3523  00B5  0437               	iorwf	_genericDelay+1,w
  3524  00B6  1903               	btfsc	3,2
  3525  00B7  28B9               	goto	u151_21
  3526  00B8  28BA               	goto	u151_20
  3527  00B9                     u151_21:
  3528  00B9  28BE               	goto	i1l1732
  3529  00BA                     u151_20:
  3530  00BA                     i1l1730:
  3531  00BA  3001               	movlw	1
  3532  00BB  02B6               	subwf	_genericDelay,f
  3533  00BC  3000               	movlw	0
  3534  00BD  3BB7               	subwfb	_genericDelay+1,f
  3535  00BE                     i1l1732:
  3536                           
  3537                           ;main.c: 630:             clockDivider = 0;
  3538  00BE  01C5               	clrf	_clockDivider
  3539  00BF                     i1l1734:
  3540                           
  3541                           ;main.c: 633:             if (buttonDebounce < 5) buttonDebounce++;
  3542  00BF  3005               	movlw	5
  3543  00C0  0244               	subwf	_buttonDebounce,w
  3544  00C1  1803               	skipnc
  3545  00C2  28C4               	goto	u152_21
  3546  00C3  28C5               	goto	u152_20
  3547  00C4                     u152_21:
  3548  00C4  28C9               	goto	i1l1738
  3549  00C5                     u152_20:
  3550  00C5                     i1l1736:
  3551  00C5  3001               	movlw	1
  3552  00C6  00F0               	movwf	??_isr
  3553  00C7  0870               	movf	??_isr,w
  3554  00C8  07C4               	addwf	_buttonDebounce,f
  3555  00C9                     i1l1738:
  3556                           
  3557                           ;main.c: 650:         if ((gate || forceArc) && poweredOn && gotTheTouch) {
  3558  00C9  083E               	movf	_gate,w
  3559  00CA  043F               	iorwf	_gate+1,w
  3560  00CB  1D03               	btfss	3,2
  3561  00CC  28CE               	goto	u153_21
  3562  00CD  28CF               	goto	u153_20
  3563  00CE                     u153_21:
  3564  00CE  28D5               	goto	i1l1742
  3565  00CF                     u153_20:
  3566  00CF                     i1l1740:
  3567  00CF  0840               	movf	_forceArc,w
  3568  00D0  0441               	iorwf	_forceArc+1,w
  3569  00D1  1903               	btfsc	3,2
  3570  00D2  28D4               	goto	u154_21
  3571  00D3  28D5               	goto	u154_20
  3572  00D4                     u154_21:
  3573  00D4  28F4               	goto	i1l224
  3574  00D5                     u154_20:
  3575  00D5                     i1l1742:
  3576  00D5  0834               	movf	_poweredOn,w
  3577  00D6  0435               	iorwf	_poweredOn+1,w
  3578  00D7  1903               	btfsc	3,2
  3579  00D8  28DA               	goto	u155_21
  3580  00D9  28DB               	goto	u155_20
  3581  00DA                     u155_21:
  3582  00DA  28F4               	goto	i1l224
  3583  00DB                     u155_20:
  3584  00DB                     i1l1744:
  3585  00DB  082C               	movf	_gotTheTouch,w
  3586  00DC  042D               	iorwf	_gotTheTouch+1,w
  3587  00DD  1903               	btfsc	3,2
  3588  00DE  28E0               	goto	u156_21
  3589  00DF  28E1               	goto	u156_20
  3590  00E0                     u156_21:
  3591  00E0  28F4               	goto	i1l224
  3592  00E1                     u156_20:
  3593  00E1                     i1l1746:
  3594                           
  3595                           ;main.c: 651:             pinState ^= 1;
  3596  00E1  3001               	movlw	(0+1) shl (_pinState& (0+7))
  3597  00E2  06FC               	xorwf	_pinState/(0+8),f
  3598  00E3                     i1l1748:
  3599                           
  3600                           ;main.c: 652:             LATC4 = pinState;
  3601  00E3  187C               	btfsc	_pinState/(0+8),_pinState& (0+7)
  3602  00E4  28E6               	goto	u157_21
  3603  00E5  28E9               	goto	u157_20
  3604  00E6                     u157_21:
  3605  00E6  0140               	movlb	0	; select bank0
  3606  00E7  161A               	bsf	26,4	;volatile
  3607  00E8  28EB               	goto	u158_24
  3608  00E9                     u157_20:
  3609  00E9  0140               	movlb	0	; select bank0
  3610  00EA  121A               	bcf	26,4	;volatile
  3611  00EB                     u158_24:
  3612  00EB                     i1l1750:
  3613                           
  3614                           ;main.c: 653:             LATC5 = (pinState^1);
  3615  00EB  1C7C               	btfss	_pinState/(0+8),_pinState& (0+7)
  3616  00EC  28EE               	goto	u159_21
  3617  00ED  28F1               	goto	u159_20
  3618  00EE                     u159_21:
  3619  00EE  0140               	movlb	0	; select bank0
  3620  00EF  169A               	bsf	26,5	;volatile
  3621  00F0  28F3               	goto	u160_24
  3622  00F1                     u159_20:
  3623  00F1  0140               	movlb	0	; select bank0
  3624  00F2  129A               	bcf	26,5	;volatile
  3625  00F3                     u160_24:
  3626                           
  3627                           ;main.c: 654:         } else {
  3628  00F3  28F6               	goto	i1l227
  3629  00F4                     i1l224:
  3630                           
  3631                           ;main.c: 655:             LATC4 = 0;
  3632  00F4  121A               	bcf	26,4	;volatile
  3633                           
  3634                           ;main.c: 656:             LATC5 = 0;
  3635  00F5  129A               	bcf	26,5	;volatile
  3636  00F6                     i1l227:	
  3637                           ;main.c: 657:         }
  3638                           
  3639                           
  3640                           ;main.c: 658:         PIR0bits.TMR0IF = 0;
  3641  00F6  014E               	movlb	14	; select bank14
  3642  00F7  128C               	bcf	12,5	;volatile
  3643  00F8                     i1l228:
  3644  00F8  107E               	bcf	int$flags,0	;clear compiler interrupt flag (level 1)
  3645  00F9  0009               	retfie
  3646  00FA                     __end_of_isr:
  3647  007E                     btemp	set	126	;btemp
  3648  007E                     int$flags	set	126
  3649  007E                     wtemp0	set	126
  3650                           
  3651                           	psect	config
  3652                           
  3653                           ;Config register CONFIG1 @ 0x8007
  3654                           ;	External Oscillator Mode Selection bits
  3655                           ;	FEXTOSC = 0x3, unprogrammed default
  3656                           ;	Power-up Default Value for COSC bits
  3657                           ;	RSTOSC = 0x0, user specified literal
  3658                           ;	Clock Out Enable bit
  3659                           ;	CLKOUTEN = 0x1, user specified literal
  3660                           ;	VDD Range Analog Calibration Selection bit
  3661                           ;	VDDAR = 0x1, unprogrammed default
  3662  8007                     	org	32775
  3663  8007  3FCF               	dw	16335
  3664                           
  3665                           ;Config register CONFIG2 @ 0x8008
  3666                           ;	Master Clear Enable bit
  3667                           ;	MCLRE = 0x0, user specified literal
  3668                           ;	Power-up Timer Selection bits
  3669                           ;	PWRTS = 0x3, unprogrammed default
  3670                           ;	WDT Operating Mode bits
  3671                           ;	WDTE = 0x0, user specified literal
  3672                           ;	Brown-out Reset Enable bits
  3673                           ;	BOREN = 0x0, user specified literal
  3674                           ;	Brown-out Reset Voltage Selection bit
  3675                           ;	BORV = LO, Brown-out Reset Voltage (VBOR) set to 1.9V
  3676                           ;	PPSLOCKED One-Way Set Enable bit
  3677                           ;	PPS1WAY = 0x1, unprogrammed default
  3678                           ;	Stack Overflow/Underflow Reset Enable bit
  3679                           ;	STVREN = ON, Stack Overflow or Underflow will cause a reset
  3680  8008                     	org	32776
  3681  8008  3F26               	dw	16166
  3682                           
  3683                           ;Config register CONFIG4 @ 0x800A
  3684                           ;	Boot Block Size Selection bits
  3685                           ;	BBSIZE = 0x7, unprogrammed default
  3686                           ;	Boot Block Enable bit
  3687                           ;	BBEN = 0x1, unprogrammed default
  3688                           ;	SAF Enable bit
  3689                           ;	SAFEN = 0x1, unprogrammed default
  3690                           ;	Application Block Write Protection bit
  3691                           ;	WRTAPP = 0x1, unprogrammed default
  3692                           ;	Boot Block Write Protection bit
  3693                           ;	WRTB = 0x1, unprogrammed default
  3694                           ;	Configuration Registers Write Protection bit
  3695                           ;	WRTC = 0x1, unprogrammed default
  3696                           ;	Storage Area Flash (SAF) Write Protection bit
  3697                           ;	WRTSAF = OFF, SAF is not write-protected
  3698                           ;	Low Voltage Programming Enable bit
  3699                           ;	LVP = OFF, High Voltage on MCLR/Vpp must be used for programming
  3700  800A                     	org	32778
  3701  800A  1FFF               	dw	8191
  3702                           
  3703                           ;Config register CONFIG5 @ 0x800B
  3704                           ;	User Program Flash Memory Code Protection bit
  3705                           ;	CP = OFF, User Program Flash Memory code protection is disabled
  3706  800B                     	org	32779
  3707  800B  3FFF               	dw	16383

Data Sizes:
    Strings     0
    Constant    724
    Data        2
    BSS         53
    Persistent  32
    Stack       0

Auto Spaces:
    Space          Size  Autos    Used
    COMMON           14     10      13
    BANK0            80     19      72
    BANK1            80      0       0
    BANK2            80      0       0
    BANK3            80      0       0
    BANK4            80      0       0
    BANK5            80      0       0
    BANK6            16      0       0

Pointer List with Targets:

    ButtonDebounceInit@port	PTR struct . size(1) Largest target is 12
		 -> aPorts(BANK0[12]), 


Critical Paths under _main in COMMON

    _goToLPmode->_playNote
    _doTheArc->_playNote
    _playNote->_blockingDelay
    _chargeIndicator->___aldiv

Critical Paths under _isr in COMMON

    None.

Critical Paths under _main in BANK0

    _main->_chargeIndicator
    _chargeIndicator->___aldiv

Critical Paths under _isr in BANK0

    None.

Critical Paths under _main in BANK1

    None.

Critical Paths under _isr in BANK1

    None.

Critical Paths under _main in BANK2

    None.

Critical Paths under _isr in BANK2

    None.

Critical Paths under _main in BANK3

    None.

Critical Paths under _isr in BANK3

    None.

Critical Paths under _main in BANK4

    None.

Critical Paths under _isr in BANK4

    None.

Critical Paths under _main in BANK5

    None.

Critical Paths under _isr in BANK5

    None.

Critical Paths under _main in BANK6

    None.

Critical Paths under _isr in BANK6

    None.

Call Graph Tables:

 ---------------------------------------------------------------------------------
 (Depth) Function   	        Calls       Base Space   Used Autos Params    Refs
 ---------------------------------------------------------------------------------
 (0) _main                                                 5     1      4    5510
                                             14 BANK0      5     1      4
                 _ButtonDebounceInit
                      _blockingDelay
                    _chargeIndicator
                           _doTheArc
                         _goToLPmode
 ---------------------------------------------------------------------------------
 (1) _goToLPmode                                           0     0      0    1228
                           _playNote
 ---------------------------------------------------------------------------------
 (1) _doTheArc                                             2     2      0    1934
                                              7 COMMON     2     2      0
                      _blockingDelay
                           _playNote
 ---------------------------------------------------------------------------------
 (2) _playNote                                             4     0      4    1228
                                              3 COMMON     4     0      4
                      _blockingDelay
 ---------------------------------------------------------------------------------
 (1) _chargeIndicator                                      8     8      0    1333
                                              6 BANK0      8     8      0
                            ___aldiv
                      _blockingDelay
 ---------------------------------------------------------------------------------
 (3) _blockingDelay                                        2     0      2     706
                                              1 COMMON     2     0      2
 ---------------------------------------------------------------------------------
 (2) ___aldiv                                             15     7      8     604
                                              1 COMMON     9     1      8
                                              0 BANK0      6     6      0
 ---------------------------------------------------------------------------------
 (1) _ButtonDebounceInit                                   4     3      1     309
                                              1 COMMON     4     3      1
 ---------------------------------------------------------------------------------
 Estimated maximum stack depth 3
 ---------------------------------------------------------------------------------
 (Depth) Function   	        Calls       Base Space   Used Autos Params    Refs
 ---------------------------------------------------------------------------------
 (4) _isr                                                  1     1      0       0
                                              0 COMMON     1     1      0
 ---------------------------------------------------------------------------------
 Estimated maximum stack depth 4
 ---------------------------------------------------------------------------------

 Call Graph Graphs:

 _main (ROOT)
   _ButtonDebounceInit
   _blockingDelay
   _chargeIndicator
     ___aldiv
     _blockingDelay
   _doTheArc
     _blockingDelay
     _playNote
       _blockingDelay
   _goToLPmode
     _playNote

 _isr (ROOT)

 Address spaces:
Name               Size   Autos  Total    Cost      Usage
BIGRAM             1F0      0       0       0        0.0%
NULL                 0      0       0       0        0.0%
CODE                 0      0       0       0        0.0%
BITCOMMON            E      0       1       1        7.1%
BITSFR0              0      0       0       1        0.0%
SFR0                 0      0       0       1        0.0%
COMMON               E      A       D       2       92.9%
BITSFR1              0      0       0       2        0.0%
SFR1                 0      0       0       2        0.0%
BITSFR2              0      0       0       3        0.0%
SFR2                 0      0       0       3        0.0%
STACK                0      0       0       3        0.0%
BITSFR3              0      0       0       4        0.0%
SFR3                 0      0       0       4        0.0%
ABS                  0      0      55       4        0.0%
BITBANK0            50      0       0       5        0.0%
BITSFR4              0      0       0       5        0.0%
SFR4                 0      0       0       5        0.0%
BANK0               50     13      48       6       90.0%
BITSFR5              0      0       0       6        0.0%
SFR5                 0      0       0       6        0.0%
BITBANK1            50      0       0       7        0.0%
BITSFR6              0      0       0       7        0.0%
SFR6                 0      0       0       7        0.0%
BANK1               50      0       0       8        0.0%
BITSFR7              0      0       0       8        0.0%
SFR7                 0      0       0       8        0.0%
BITBANK2            50      0       0       9        0.0%
BITSFR8              0      0       0       9        0.0%
SFR8                 0      0       0       9        0.0%
BANK2               50      0       0      10        0.0%
BITSFR9              0      0       0      10        0.0%
SFR9                 0      0       0      10        0.0%
BITBANK3            50      0       0      11        0.0%
BITSFR10             0      0       0      11        0.0%
SFR10                0      0       0      11        0.0%
BANK3               50      0       0      12        0.0%
BITSFR11             0      0       0      12        0.0%
SFR11                0      0       0      12        0.0%
BITBANK4            50      0       0      13        0.0%
BITSFR12             0      0       0      13        0.0%
SFR12                0      0       0      13        0.0%
BANK4               50      0       0      14        0.0%
BITSFR13             0      0       0      14        0.0%
SFR13                0      0       0      14        0.0%
BITBANK5            50      0       0      15        0.0%
BITSFR14             0      0       0      15        0.0%
SFR14                0      0       0      15        0.0%
BANK5               50      0       0      16        0.0%
BITSFR15             0      0       0      16        0.0%
SFR15                0      0       0      16        0.0%
BITBANK6            10      0       0      17        0.0%
BITSFR16             0      0       0      17        0.0%
SFR16                0      0       0      17        0.0%
BANK6               10      0       0      18        0.0%
BITSFR17             0      0       0      18        0.0%
SFR17                0      0       0      18        0.0%
BITSFR18             0      0       0      19        0.0%
SFR18                0      0       0      19        0.0%
DATA                 0      0      55      19        0.0%
BITSFR19             0      0       0      20        0.0%
SFR19                0      0       0      20        0.0%
BITSFR20             0      0       0      21        0.0%
SFR20                0      0       0      21        0.0%
BITSFR21             0      0       0      22        0.0%
SFR21                0      0       0      22        0.0%
BITSFR22             0      0       0      23        0.0%
SFR22                0      0       0      23        0.0%
BITSFR23             0      0       0      24        0.0%
SFR23                0      0       0      24        0.0%
BITSFR24             0      0       0      25        0.0%
SFR24                0      0       0      25        0.0%
BITSFR25             0      0       0      26        0.0%
SFR25                0      0       0      26        0.0%
BITSFR26             0      0       0      27        0.0%
SFR26                0      0       0      27        0.0%
BITSFR27             0      0       0      28        0.0%
SFR27                0      0       0      28        0.0%
BITSFR28             0      0       0      29        0.0%
SFR28                0      0       0      29        0.0%
BITSFR29             0      0       0      30        0.0%
SFR29                0      0       0      30        0.0%
BITSFR30             0      0       0      31        0.0%
SFR30                0      0       0      31        0.0%
BITSFR31             0      0       0      32        0.0%
SFR31                0      0       0      32        0.0%
BITSFR32             0      0       0      33        0.0%
SFR32                0      0       0      33        0.0%
BITSFR33             0      0       0      34        0.0%
SFR33                0      0       0      34        0.0%
BITSFR34             0      0       0      35        0.0%
SFR34                0      0       0      35        0.0%
BITSFR35             0      0       0      36        0.0%
SFR35                0      0       0      36        0.0%
BITSFR36             0      0       0      37        0.0%
SFR36                0      0       0      37        0.0%
BITSFR37             0      0       0      38        0.0%
SFR37                0      0       0      38        0.0%
BITSFR38             0      0       0      39        0.0%
SFR38                0      0       0      39        0.0%
BITSFR39             0      0       0      40        0.0%
SFR39                0      0       0      40        0.0%
BITSFR40             0      0       0      41        0.0%
SFR40                0      0       0      41        0.0%
BITSFR41             0      0       0      42        0.0%
SFR41                0      0       0      42        0.0%
BITSFR42             0      0       0      43        0.0%
SFR42                0      0       0      43        0.0%
BITSFR43             0      0       0      44        0.0%
SFR43                0      0       0      44        0.0%
BITSFR44             0      0       0      45        0.0%
SFR44                0      0       0      45        0.0%
BITSFR45             0      0       0      46        0.0%
SFR45                0      0       0      46        0.0%
BITSFR46             0      0       0      47        0.0%
SFR46                0      0       0      47        0.0%
BITSFR47             0      0       0      48        0.0%
SFR47                0      0       0      48        0.0%
BITSFR48             0      0       0      49        0.0%
SFR48                0      0       0      49        0.0%
BITSFR49             0      0       0      50        0.0%
SFR49                0      0       0      50        0.0%
BITSFR50             0      0       0      51        0.0%
SFR50                0      0       0      51        0.0%
BITSFR51             0      0       0      52        0.0%
SFR51                0      0       0      52        0.0%
BITSFR52             0      0       0      53        0.0%
SFR52                0      0       0      53        0.0%
BITSFR53             0      0       0      54        0.0%
SFR53                0      0       0      54        0.0%
BITSFR54             0      0       0      55        0.0%
SFR54                0      0       0      55        0.0%
BITSFR55             0      0       0      56        0.0%
SFR55                0      0       0      56        0.0%
BITSFR56             0      0       0      57        0.0%
SFR56                0      0       0      57        0.0%
BITSFR57             0      0       0      58        0.0%
SFR57                0      0       0      58        0.0%
BITSFR58             0      0       0      59        0.0%
SFR58                0      0       0      59        0.0%
BITSFR59             0      0       0      60        0.0%
SFR59                0      0       0      60        0.0%
BITSFR60             0      0       0      61        0.0%
SFR60                0      0       0      61        0.0%
BITSFR61             0      0       0      62        0.0%
SFR61                0      0       0      62        0.0%
BITSFR62             0      0       0      63        0.0%
SFR62                0      0       0      63        0.0%
BITSFR63             0      0       0      64        0.0%
SFR63                0      0       0      64        0.0%


Microchip Technology PIC Macro Assembler V2.32 build 20210201212658 
Symbol Table                                                                                   Thu Sep 23 20:44:27 2021

                                _i 007A                                l300 0595  
                              l240 05B9                                l233 05A8  
                              l253 0673                                l246 0608  
                              l264 0774                                l192 0449  
                              l273 04B8                                l259 0796  
                              l275 04C0                                l267 078A  
                              l195 04A1                                l187 041D  
                              l284 0542                                l188 0423  
                              l453 0687                                l293 0576  
                              l294 0575                                l463 0703  
                              l369 072E                                l297 0580  
                              l289 055C                                l298 0581  
                              _GIE 005F                                _PR2 028D  
                              u810 0796                                u811 0795  
                              u820 0759                                u821 0758  
                              u910 06EB                                u830 067A  
                              u911 06EA                                u831 0679  
                              u920 06F0                                u840 068B  
                              u921 06EF                                u905 06DF  
                              u841 068A                                u930 072E  
                              u850 06AA                                u931 072D  
                              u851 06A9                                u940 04B6  
                              u941 04B5                                u870 06BC  
                              u950 04C0                                u871 06BB  
                              u951 04BF                                u960 04C5  
                              u865 06AE                                u961 04C4  
                              u890 06D5                                u970 04D2  
                              u891 06D4                                u971 04D1  
                              u980 04E3                                u885 06BD  
                              u990 051A                                u895 06D1  
                              u991 0519                                u985 04DF  
                              _isr 0004                                wreg 0009  
                             l1310 078B                               l1312 0790  
                             l1400 0529                               l1320 0768  
                             l1330 068B                               l1402 0532  
                             l1410 0544                               l1322 076D  
                             l1314 0753                               l1340 06AD  
                             l1332 0696                               l1324 0674  
                             l1412 054D                               l1420 055E  
                             l1404 0535                               l1316 0759  
                             l1350 06DD                               l1342 06B8  
                             l1334 069A                               l1326 0676  
                             l1422 0567                               l1430 0579  
                             l1414 054F                               l1406 053B  
                             l1318 075C                               l1510 0785  
                             l1502 0775                               l1360 06FB  
                             l1352 06DE                               l1344 06BC  
                             l1336 06A2                               l1328 067A  
                             l1432 057E                               l1424 0568  
                             l1416 0555                               l1408 0540  
                             l1440 0596                               l1512 0786  
                             l1504 0778                               l1354 06E5  
                             l1346 06C3                               l1338 06AA  
                             l1426 056E                               l1418 055A  
                             l1434 0584                               l1450 05B2  
                             l1442 059B                               l1514 0787  
                             l1506 0782                               l1372 071D  
                             l1364 0705                               l1348 06D5  
                             l1356 06EB                               l1436 058A  
                             l1428 0573                               l1380 04B6  
                             l1460 05ED                               l1452 05BD  
                             l1444 059F                               l1516 0788  
                             l1508 0784                               l1374 0724  
                             l1366 071C                               l1358 06F0  
                             l1438 058E                               l1390 04D2  
                             l1382 04BA                               l1470 0613  
                             l1462 05F1                               l1454 05C4  
                             l1446 05A5                               l1376 0728  
                             l1392 0511                               l1480 0649  
                             l1472 0616                               l1464 05FA  
                             l1456 05C7                               l1448 05AC  
                             l1800 03C3                               l1394 051A  
                             l1386 04C5                               l1378 04B0  
                             l1490 066F                               l1482 0650  
                             l1474 0619                               l1466 0601  
                             l1458 05CA                               l1810 03D0  
                             l1802 03C9                               l1396 051E  
                             l1388 04CD                               l1492 0670  
                             l1476 063C                               l1468 060C  
                             l1900 0455                               l1820 03D7  
                             l1812 03D1                               l1804 03CA  
                             l1398 0524                               l1494 0671  
                             l1478 0640                               l1486 0657  
                             l1910 0480                               l1902 045C  
                             l1830 03DC                               l1822 03D8  
                             l1814 03D2                               l1806 03CC  
                             l1496 0672                               l1488 066A  
                             l1920 0495                               l1912 0482  
                             l1904 0465                               l1840 03E1  
                             l1832 03DD                               l1824 03D9  
                             l1816 03D4                               l1808 03CE  
                             l1922 0497                               l1914 0485  
                             l1906 046E                               l1850 03ED  
                             l1842 03E2                               l1834 03DE  
                             l1826 03DA                               l1818 03D6  
                             l1924 049D                               l1916 048B  
                             l1908 0477                               l1860 03FB  
                             l1852 03F2                               l1844 03E3  
                             l1836 03DF                               l1828 03DB  
                             l1950 065F                               l1926 04A3  
                             l1918 048E                               l1870 0406  
                             l1862 03FC                               l1854 03F3  
                             l1846 03E4                               l1838 03E0  
                             l1928 04AA                               l1880 040F  
                             l1872 040A                               l1864 0400  
                             l1856 03F5                               l1848 03E5  
                             l1890 042E                               l1882 0414  
                             l1874 040B                               l1866 0401  
                             l1858 03F7                               l1892 0433  
                             l1884 0415                               l1876 040C  
                             l1868 0404                               l1894 0435  
                             l1886 041B                               l1878 040E  
                             l1896 0440                               l1888 0427  
                             l1898 0447                               ?_isr 0070  
                      _voltConvert 0020                               u1000 0524  
                             u1001 0523                               u1010 0532  
                             u1011 0531                               u1100 057E  
                             u1020 053B                               u1101 057D  
                             u1021 053A                               u1110 058A  
                             u1030 0540                               u1111 0589  
                             u1031 053F                               u1040 054D  
                             u1200 0656                               u1120 05A5  
                             u1041 054C                               u1201 0655  
                             u1121 05A4                               u1050 0555  
                             u1130 05B2                               u1051 0554  
                             u1131 05B1                               u1060 055A  
                             u1140 05B8                               u1061 0559  
                             u1141 05B7                               u1070 0567  
                             u1150 05FA                               u1071 0566  
                             u1151 05F9                               u1080 056E  
                             u1160 0601                               u1081 056D  
                             u1161 0600                               u1090 0573  
                             u1170 0607                               u1091 0572  
                             u1171 0606                               u1180 0649  
                             u1181 0648                               u1190 0650  
                             u1191 064F                               u1700 04AA  
                             u1701 04A9                               u1630 041B  
                             u1631 041A                               u1640 0427  
                             u1641 0426                               u1650 0433  
                             u1651 0432                               u1660 0447  
                             u1661 0446                               u1670 048B  
                             u1671 048A                               u1680 0495  
                             u1681 0494                               u1690 049D  
                             u1691 049C                               _PEIE 005E  
                             _INTE 38B0                               _gate 003E  
                             _main 03C3                               fsr0h 0005  
                             fsr1h 0007                               indf0 0000  
                             fsr0l 0004                               indf1 0001  
                             fsr1l 0006                               btemp 007E  
                             start 00FA                ButtonDebounceInit@i 0073  
                 playNote@duration 0075                              ??_isr 0070  
                  __end_of___aldiv 0704                              ?_main 0061  
                            _ADRES 009B                              _LATA1 00C1  
                            _LATA2 00C2                              _LATC0 00D0  
                            _LATC1 00D1                              _LATC2 00D2  
                            _LATC3 00D3                              _LATC4 00D4  
                            _LATC5 00D5                              _IOCIE 38B4  
                            i1l224 00F4                              i1l227 00F6  
                            i1l228 00F8                              _PORTA 000C  
                            _WPUA0 F9C8                              _WPUA3 F9CB  
                            _sheRa 02D3                              _notes 072F  
                   __pbitbssCOMMON 03E0                              status 0003  
                            wtemp0 007E                    __initialization 00FC  
                     __end_of_main 04B0                    _chargeIndicator 04B0  
                           ??_main 0065                             _ANSELC 1F4E  
                           _IOCAF0 F9F8                             _IOCAF3 F9FB  
                           _IOCAN0 F9F0                             _IOCAN3 F9F3  
                           _IOCAP0 F9E8                             _IOCAP3 F9EB  
                           i1l1700 0073                             i1l1702 0079  
                           i1l1710 008E                             i1l1720 00A2  
                           i1l1712 0090                             i1l1704 007F  
                           i1l1730 00BA                             i1l1722 00A7  
                           i1l1706 0083                             i1l1714 0092  
                           i1l1650 000B                             i1l1740 00CF  
                           i1l1732 00BE                             i1l1724 00AC  
                           i1l1716 0096                             i1l1708 0089  
                           i1l1660 0020                             i1l1652 0010  
                           i1l1750 00EB                             i1l1742 00D5  
                           i1l1734 00BF                             i1l1726 00B1  
                           i1l1718 009D                             i1l1670 0034  
                           i1l1654 0016                             i1l1662 0024  
                           i1l1744 00DB                             i1l1736 00C5  
                           i1l1728 00B4                             i1l1680 0049  
                           i1l1664 0028                             i1l1656 001A  
                           i1l1672 0036                             u130_20 0010  
                           i1l1648 0006                             u130_21 000F  
                           i1l1746 00E1                             i1l1738 00C9  
                           i1l1690 005D                             i1l1682 004B  
                           i1l1674 003B                             i1l1666 002C  
                           i1l1658 001C                             i1l1748 00E3  
                           i1l1692 0061                             i1l1684 004F  
                           i1l1676 0041                             i1l1668 0030  
                           i1l1694 0065                             i1l1678 0045  
                           i1l1686 0055                             i1l1688 0059  
                           u131_20 0016                             i1l1696 0067  
                           u131_21 0015                             i1l1698 006C  
                           u140_20 005D                             u132_20 001A  
                           u140_21 005C                             u132_21 0019  
                           u141_20 0061                             u133_20 0028  
                           u141_21 0060                             u133_21 0027  
                           u150_20 00B1                             u142_20 006C  
                           u134_20 002C                             u150_21 00B0  
                           u142_21 006B                             u134_21 002B  
                           u151_20 00BA                             u143_20 0073  
                           u135_20 003B                             u151_21 00B9  
                           u143_21 0072                             u135_21 003A  
                           u152_20 00C5                             u144_20 0079  
                           u136_20 0041                             u152_21 00C4  
                           u144_21 0078                             u136_21 0040  
                           u160_24 00F3                             u153_20 00CF  
                           u145_20 007F                             u137_20 0045  
                           u129_20 000B                             u153_21 00CE  
                           u145_21 007E                             u137_21 0044  
                           u129_21 000A                             u154_20 00D5  
                           u146_20 0089                             u138_20 0049  
                           u154_21 00D4                             u146_21 0088  
                           u138_21 0048                             u155_20 00DB  
                           u147_20 0096                             u139_20 0059  
                           u155_21 00DA                             u147_21 0095  
                           u139_21 0058                             u156_20 00E1  
                           u148_20 009D                             u156_21 00E0  
                           u148_21 009C                             u157_20 00E9  
                           u149_20 00A2                             u157_21 00E6  
                           u149_21 00A1                             u158_24 00EB  
                           u159_20 00F1                             u159_21 00EE  
                           _NVMADR 081A                             _NVMDAT 081C  
                           _TMR0IE 38B5                             _TMR2IE 38BE  
                           _TRISA0 0090                             _TRISA1 0091  
                           _TRISA2 0092                             _TRISA3 0093  
                           _TRISA4 0094                             _TRISC0 00A0  
                           _TRISA5 0095                             _TRISC1 00A1  
                           _TRISC2 00A2                             _TRISC3 00A3  
                           _TRISC4 00A4                             _TRISC5 00A5  
                 __end_of_doTheArc 0674                             _aPorts 0047  
                        ??___aldiv 0079                             _noGate 0066  
                 __end_of_playNote 0775            __end_of__initialization 010F  
          __end_of_chargeIndicator 0596                     __pcstackCOMMON 0070  
                     __pidataBANK0 079D                      __end_of_sheRa 03C3  
                    __end_of_notes 0753              __end_of_blockingDelay 0797  
                       _abortAbort 003C                         __pbssBANK0 0020  
      __size_of_ButtonDebounceInit 002B                         __pmaintext 03C3  
                       _goToLPmode 0775                         __pintentry 0004  
                        ?_doTheArc 0070                       _clockDivider 0045  
                 ?_chargeIndicator 0070                          ?_playNote 0073  
                __end_of_gargoyles 02D3                            ___aldiv 0674  
                          __ptext1 0775                            __ptext2 0596  
                          __ptext3 0753                            __ptext4 04B0  
                          __ptext5 078B                            __ptext6 0674  
                          __ptext7 0704                            _lidOpen 002E  
                        _T2CONbits 028E                       __size_of_isr 00F6  
                       ??_doTheArc 0077                   ___aldiv@dividend 0075  
                        _T2HLTbits 028F               _chargeIndicator$1120 005D  
                     _genericDelay 0036                            clrloop0 0798  
             end_of_initialization 010F                      _calibrationMV 0024  
                       ??_playNote 0077                        ?_goToLPmode 0070  
                        _OSCENbits 0891                   ___aldiv@quotient 0055  
                       _showCharge 0032                          _PORTAbits 000C  
ButtonDebounceInit@pulledUpButtons 0071                         _postscaler 003A  
              start_initialization 00FC                        __end_of_isr 00FA  
              __size_of_goToLPmode 0016                     _buttonDebounce 0044  
               blockingDelay@mSecs 0071             ButtonDebounceInit@port 0074  
                      __pdataBANK0 0066                        __pbssCOMMON 007A  
                        ___latbits 0001                      __pcstackBANK0 0053  
                      _chargeCycle 0042                  __size_of_doTheArc 00DE  
       __end_of_ButtonDebounceInit 072F                          _battVolts 0028  
                        _debugging 0046             __size_of_blockingDelay 000C  
                __size_of_playNote 0022                           ?___aldiv 0071  
                        _gargoyles 0113                       playNote@note 0073  
                         _T2CLKCON 0290                    ___aldiv@divisor 0071  
                  ___aldiv@counter 0053                          _playIndex 0038  
                        clear_ram0 0797                           _PIR0bits 070C  
                         _PIR1bits 070D                       ??_goToLPmode 0077  
         __size_of_chargeIndicator 00E6                          _poweredOn 0034  
                       _ADCON0bits 009D                         _ADCON1bits 009E  
                    _blockingDelay 078B                 __end_of_goToLPmode 078B  
                     _lowPowerMode 0030                        _gotTheTouch 002C  
                 __size_of___aldiv 0090                           _adcVolts 0026  
                       _ANSELAbits 1F38                           _doTheArc 0596  
                   ?_blockingDelay 0071                         _T0CON0bits 059E  
                       _T0CON1bits 059F                           _charging 002A  
                         _forceArc 0040                      __size_of_main 00ED  
                         _pinState 03E0                           _playNote 0753  
                         _runIndex 0043                           int$flags 007E  
                         main@argc 0061                           main@argv 0063  
                ??_chargeIndicator 0059                        _NVMCON1bits 081E  
                       _FVRCONbits 090C                           intlevel1 0000  
                       _OSCFRQbits 0893                 _ButtonDebounceInit 0704  
                    __pstringtext1 0113                      __pstringtext2 02D3  
                    __pstringtext3 072F                    ??_blockingDelay 0073  
              ?_ButtonDebounceInit 0071                       ___aldiv@sign 0054  
             ??_ButtonDebounceInit 0072  
