

Microchip MPLAB XC8 Assembler V2.32 build 20210201212658 
                                                                                               Tue Sep 21 21:29:41 2021

Microchip MPLAB XC8 C Compiler v2.32 (Free license) build 20210201212658 Og1 
     1                           	processor	16F15224
     2                           	pagewidth 120
     3                           	opt	flic
     4                           	psect	idataBANK0,global,class=CODE,delta=2,noexec
     5                           	psect	stringtext1,global,class=STRCODE,delta=2,noexec
     6                           	psect	cinit,global,class=CODE,merge=1,delta=2
     7                           	psect	bitbssCOMMON,global,bit,class=COMMON,space=1,delta=1,noexec
     8                           	psect	bssBANK0,global,class=BANK0,space=1,delta=1,noexec
     9                           	psect	dataBANK0,global,class=BANK0,space=1,delta=1,noexec
    10                           	psect	clrtext,global,class=CODE,delta=2
    11                           	psect	cstackCOMMON,global,class=COMMON,space=1,delta=1,noexec
    12                           	psect	cstackBANK0,global,class=BANK0,space=1,delta=1,noexec
    13                           	psect	maintext,global,class=CODE,merge=1,split=1,delta=2
    14                           	psect	text1,local,class=CODE,merge=1,delta=2
    15                           	psect	text2,local,class=CODE,merge=1,delta=2
    16                           	psect	text3,local,class=CODE,merge=1,delta=2
    17                           	psect	text4,local,class=CODE,merge=1,delta=2
    18                           	psect	text5,local,class=CODE,merge=1,delta=2
    19                           	psect	text6,local,class=CODE,merge=1,delta=2
    20                           	psect	text7,local,class=CODE,merge=1,delta=2
    21                           	psect	text8,local,class=CODE,merge=1,delta=2
    22                           	psect	text9,local,class=CODE,merge=1,delta=2,group=1
    23                           	psect	text10,local,class=CODE,merge=1,delta=2,group=1
    24                           	psect	intentry,global,class=CODE,delta=2
    25                           	psect	config,global,abs,ovrld,class=CONFIG,space=4,delta=2,noexec
    26                           	dabs	1,0x7E,2
    27  0000                     
    28                           ; Version 2.35
    29                           ; Generated 01/06/2021 GMT
    30                           ; 
    31                           ; Copyright © 2021, Microchip Technology Inc. and its subsidiaries ("Microchip")
    32                           ; All rights reserved.
    33                           ; 
    34                           ; This software is developed by Microchip Technology Inc. and its subsidiaries ("Microch
      +                          ip").
    35                           ; 
    36                           ; Redistribution and use in source and binary forms, with or without modification, are
    37                           ; permitted provided that the following conditions are met:
    38                           ; 
    39                           ;     1. Redistributions of source code must retain the above copyright notice, this lis
      +                          t of
    40                           ;        conditions and the following disclaimer.
    41                           ; 
    42                           ;     2. Redistributions in binary form must reproduce the above copyright notice, this 
      +                          list
    43                           ;        of conditions and the following disclaimer in the documentation and/or other
    44                           ;        materials provided with the distribution. Publication is not required when
    45                           ;        this file is used in an embedded application.
    46                           ; 
    47                           ;     3. Microchip's name may not be used to endorse or promote products derived from th
      +                          is
    48                           ;        software without specific prior written permission.
    49                           ; 
    50                           ; THIS SOFTWARE IS PROVIDED BY MICROCHIP "AS IS" AND ANY EXPRESS OR IMPLIED WARRANTIES,
    51                           ; INCLUDING, BUT NOT LIMITED TO, THE IMPLIED WARRANTIES OF MERCHANTABILITY AND FITNESS F
      +                          OR
    52                           ; PURPOSE ARE DISCLAIMED.  IN NO EVENT SHALL MICROCHIP BE LIABLE FOR ANY DIRECT, INDIREC
      +                          T,
    53                           ; INCIDENTAL, SPECIAL, EXEMPLARY, OR CONSEQUENTIAL DAMAGES (INCLUDING BUT NOT LIMITED TO
    54                           ; PROCUREMENT OF SUBSTITUTE GOODS OR SERVICES; LOSS OF USE, DATA OR PROFITS; OR BUSINESS
    55                           ; INTERRUPTION) HOWSOEVER CAUSED AND ON ANY THEORY OF LIABILITY, WHETHER IN CONTRACT, ST
      +                          RICT
    56                           ; LIABILITY, OR TORT (INCLUDING NEGLIGENCE OR OTHERWISE) ARISING IN ANY WAY OUT OF THE U
      +                          SE OF
    57                           ; THIS SOFTWARE, EVEN IF ADVISED OF THE POSSIBILITY OF SUCH DAMAGE.
    58                           ; 
    59                           ; 
    60                           ; Code-generator required, PIC16F15224 Definitions
    61                           ; 
    62                           ; SFR Addresses
    63  0000                     	;# 
    64  0001                     	;# 
    65  0002                     	;# 
    66  0003                     	;# 
    67  0004                     	;# 
    68  0005                     	;# 
    69  0006                     	;# 
    70  0007                     	;# 
    71  0008                     	;# 
    72  0009                     	;# 
    73  000A                     	;# 
    74  000B                     	;# 
    75  000C                     	;# 
    76  000E                     	;# 
    77  0012                     	;# 
    78  0014                     	;# 
    79  0018                     	;# 
    80  001A                     	;# 
    81  009A                     	;# 
    82  009B                     	;# 
    83  009B                     	;# 
    84  009C                     	;# 
    85  009D                     	;# 
    86  009E                     	;# 
    87  009F                     	;# 
    88  010E                     	;# 
    89  010F                     	;# 
    90  0119                     	;# 
    91  011A                     	;# 
    92  011B                     	;# 
    93  011B                     	;# 
    94  011C                     	;# 
    95  011D                     	;# 
    96  011E                     	;# 
    97  011F                     	;# 
    98  018C                     	;# 
    99  018D                     	;# 
   100  018E                     	;# 
   101  018F                     	;# 
   102  0190                     	;# 
   103  0191                     	;# 
   104  0192                     	;# 
   105  020C                     	;# 
   106  020D                     	;# 
   107  020E                     	;# 
   108  020E                     	;# 
   109  020F                     	;# 
   110  020F                     	;# 
   111  0210                     	;# 
   112  0210                     	;# 
   113  0211                     	;# 
   114  0211                     	;# 
   115  028C                     	;# 
   116  028C                     	;# 
   117  028D                     	;# 
   118  028D                     	;# 
   119  028E                     	;# 
   120  028F                     	;# 
   121  0290                     	;# 
   122  0291                     	;# 
   123  030C                     	;# 
   124  030C                     	;# 
   125  030D                     	;# 
   126  030E                     	;# 
   127  030F                     	;# 
   128  0310                     	;# 
   129  0310                     	;# 
   130  0311                     	;# 
   131  0312                     	;# 
   132  0313                     	;# 
   133  0314                     	;# 
   134  0314                     	;# 
   135  0315                     	;# 
   136  0316                     	;# 
   137  0318                     	;# 
   138  0318                     	;# 
   139  0319                     	;# 
   140  031A                     	;# 
   141  059C                     	;# 
   142  059C                     	;# 
   143  059D                     	;# 
   144  059D                     	;# 
   145  059E                     	;# 
   146  059F                     	;# 
   147  070C                     	;# 
   148  070D                     	;# 
   149  070E                     	;# 
   150  0716                     	;# 
   151  0717                     	;# 
   152  0718                     	;# 
   153  080C                     	;# 
   154  0811                     	;# 
   155  0813                     	;# 
   156  0814                     	;# 
   157  081A                     	;# 
   158  081A                     	;# 
   159  081B                     	;# 
   160  081C                     	;# 
   161  081C                     	;# 
   162  081D                     	;# 
   163  081E                     	;# 
   164  081F                     	;# 
   165  088E                     	;# 
   166  0890                     	;# 
   167  0891                     	;# 
   168  0892                     	;# 
   169  0893                     	;# 
   170  090C                     	;# 
   171  1E8F                     	;# 
   172  1E90                     	;# 
   173  1E91                     	;# 
   174  1E92                     	;# 
   175  1E93                     	;# 
   176  1E9C                     	;# 
   177  1EA1                     	;# 
   178  1EA2                     	;# 
   179  1EC3                     	;# 
   180  1EC5                     	;# 
   181  1EC6                     	;# 
   182  1EC7                     	;# 
   183  1ECB                     	;# 
   184  1ECB                     	;# 
   185  1ECB                     	;# 
   186  1ECC                     	;# 
   187  1ECC                     	;# 
   188  1ECC                     	;# 
   189  1F10                     	;# 
   190  1F11                     	;# 
   191  1F12                     	;# 
   192  1F14                     	;# 
   193  1F15                     	;# 
   194  1F20                     	;# 
   195  1F21                     	;# 
   196  1F22                     	;# 
   197  1F23                     	;# 
   198  1F24                     	;# 
   199  1F25                     	;# 
   200  1F38                     	;# 
   201  1F39                     	;# 
   202  1F3A                     	;# 
   203  1F3B                     	;# 
   204  1F3C                     	;# 
   205  1F3D                     	;# 
   206  1F3E                     	;# 
   207  1F3F                     	;# 
   208  1F4E                     	;# 
   209  1F4F                     	;# 
   210  1F50                     	;# 
   211  1F51                     	;# 
   212  1F52                     	;# 
   213  1F53                     	;# 
   214  1F54                     	;# 
   215  1F55                     	;# 
   216  1FE4                     	;# 
   217  1FE5                     	;# 
   218  1FE6                     	;# 
   219  1FE7                     	;# 
   220  1FE8                     	;# 
   221  1FE8                     	;# 
   222  1FE9                     	;# 
   223  1FEA                     	;# 
   224  1FEB                     	;# 
   225  1FED                     	;# 
   226  1FEE                     	;# 
   227  1FEF                     	;# 
   228                           
   229                           	psect	idataBANK0
   230  0002                     __pidataBANK0:
   231                           
   232                           ;initializer for _noGate
   233  0002  3401               	retlw	1
   234  0003  3400               	retlw	0
   235                           
   236                           	psect	stringtext1
   237  07E6                     __pstringtext1:
   238  07E6                     _notes:
   239  07E6  34ED               	retlw	237
   240  07E7  34E0               	retlw	224
   241  07E8  34D3               	retlw	211
   242  07E9  34C7               	retlw	199
   243  07EA  34BD               	retlw	189
   244  07EB  34B2               	retlw	178
   245  07EC  34A8               	retlw	168
   246  07ED  349E               	retlw	158
   247  07EE  3496               	retlw	150
   248  07EF  348D               	retlw	141
   249  07F0  3485               	retlw	133
   250  07F1  347D               	retlw	125
   251  07F2  3476               	retlw	118
   252  07F3  3470               	retlw	112
   253  07F4  346A               	retlw	106
   254  07F5  3463               	retlw	99
   255  07F6  345E               	retlw	94
   256  07F7  3459               	retlw	89
   257  07F8  3454               	retlw	84
   258  07F9  344F               	retlw	79
   259  07FA  344B               	retlw	75
   260  07FB  3446               	retlw	70
   261  07FC  3442               	retlw	66
   262  07FD  343F               	retlw	63
   263  07FE  343B               	retlw	59
   264  07FF  3438               	retlw	56
   265  0800  3434               	retlw	52
   266  0801  3432               	retlw	50
   267  0802  342F               	retlw	47
   268  0803  342C               	retlw	44
   269  0804  342A               	retlw	42
   270  0805  3427               	retlw	39
   271  0806  3425               	retlw	37
   272  0807  3423               	retlw	35
   273  0808  3421               	retlw	33
   274  0809  341F               	retlw	31
   275  080A                     __end_of_notes:
   276  000C                     _PORTAbits	set	12
   277  005F                     _GIE	set	95
   278  005E                     _PEIE	set	94
   279  00D5                     _LATC5	set	213
   280  00D4                     _LATC4	set	212
   281  00D3                     _LATC3	set	211
   282  00D2                     _LATC2	set	210
   283  00D1                     _LATC1	set	209
   284  00D0                     _LATC0	set	208
   285  00C2                     _LATA2	set	194
   286  00C1                     _LATA1	set	193
   287  00A5                     _TRISC5	set	165
   288  00A4                     _TRISC4	set	164
   289  00A3                     _TRISC3	set	163
   290  00A2                     _TRISC2	set	162
   291  00A1                     _TRISC1	set	161
   292  00A0                     _TRISC0	set	160
   293  0095                     _TRISA5	set	149
   294  0094                     _TRISA4	set	148
   295  0093                     _TRISA3	set	147
   296  0092                     _TRISA2	set	146
   297  0091                     _TRISA1	set	145
   298  0090                     _TRISA0	set	144
   299  009B                     _ADRES	set	155
   300  009F                     _ADACT	set	159
   301  009D                     _ADCON0bits	set	157
   302  009E                     _ADCON1bits	set	158
   303  028F                     _T2HLTbits	set	655
   304  028E                     _T2CONbits	set	654
   305  0290                     _T2CLKCON	set	656
   306  028D                     _PR2	set	653
   307  059F                     _T0CON1bits	set	1439
   308  059E                     _T0CON0bits	set	1438
   309  070D                     _PIR1bits	set	1805
   310  070C                     _PIR0bits	set	1804
   311  38B4                     _IOCIE	set	14516
   312  38B0                     _INTE	set	14512
   313  38BE                     _TMR2IE	set	14526
   314  38B5                     _TMR0IE	set	14517
   315  081A                     _NVMADR	set	2074
   316  081E                     _NVMCON1bits	set	2078
   317  0893                     _OSCFRQbits	set	2195
   318  0891                     _OSCENbits	set	2193
   319  090C                     _FVRCONbits	set	2316
   320  1F4E                     _ANSELC	set	8014
   321  1F38                     _ANSELAbits	set	7992
   322  F9FB                     _IOCAF3	set	63995
   323  F9F8                     _IOCAF0	set	63992
   324  F9FD                     _IOCAF5	set	63997
   325  F9ED                     _IOCAP5	set	63981
   326  F9F5                     _IOCAN5	set	63989
   327  F9EB                     _IOCAP3	set	63979
   328  F9F3                     _IOCAN3	set	63987
   329  F9E8                     _IOCAP0	set	63976
   330  F9F0                     _IOCAN0	set	63984
   331  F9CB                     _WPUA3	set	63947
   332  F9C8                     _WPUA0	set	63944
   333                           
   334                           	psect	cinit
   335  00D0                     start_initialization:	
   336                           ; #config settings
   337                           
   338  00D0                     __initialization:
   339                           
   340                           ; Initialize objects allocated to BANK0
   341  00D0  3180  2002  3180   	fcall	__pidataBANK0	;fetch initializer
   342  00D3  00D4               	movwf	__pdataBANK0& (0+127)
   343  00D4  3180  2003  3180   	fcall	__pidataBANK0+1	;fetch initializer
   344  00D7  00D5               	movwf	(__pdataBANK0+1)& (0+127)
   345                           
   346                           ; Clear objects allocated to BITCOMMON
   347  00D8  01FB               	clrf	(__pbitbssCOMMON/(0+8))& (0+127)
   348                           
   349                           ; Clear objects allocated to BANK0
   350  00D9  3020               	movlw	low __pbssBANK0
   351  00DA  0084               	movwf	4
   352  00DB  3000               	movlw	high __pbssBANK0
   353  00DC  0085               	movwf	5
   354  00DD  301B               	movlw	27
   355  00DE  318D  258D  3180   	fcall	clear_ram0
   356  00E1                     end_of_initialization:	
   357                           ;End of C runtime variable initialization code
   358                           
   359  00E1                     __end_of__initialization:
   360  00E1  107E               	bcf	int$flags,0	;clear compiler interrupt flag (level 1)
   361  00E2  0140               	movlb	0
   362  00E3  318E  2E36         	ljmp	_main	;jump to C main() function
   363                           
   364                           	psect	bitbssCOMMON
   365  03D8                     __pbitbssCOMMON:
   366  03D8                     _pinState:
   367  03D8                     	ds	1
   368                           
   369                           	psect	bssBANK0
   370  0020                     __pbssBANK0:
   371  0020                     _calibrationMV:
   372  0020                     	ds	4
   373  0024                     _adcVolts:
   374  0024                     	ds	2
   375  0026                     _battVolts:
   376  0026                     	ds	2
   377  0028                     _genericDelay:
   378  0028                     	ds	2
   379  002A                     _playIndex:
   380  002A                     	ds	2
   381  002C                     _postscaler:
   382  002C                     	ds	2
   383  002E                     _gate:
   384  002E                     	ds	2
   385  0030                     _forceArc:
   386  0030                     	ds	2
   387  0032                     _charging:
   388  0032                     	ds	1
   389  0033                     _chargeCycle:
   390  0033                     	ds	1
   391  0034                     _runIndex:
   392  0034                     	ds	1
   393  0035                     _lowPowerMode:
   394  0035                     	ds	1
   395  0036                     _doingTheArc:
   396  0036                     	ds	1
   397  0037                     _showCharge:
   398  0037                     	ds	1
   399  0038                     _poweredOn:
   400  0038                     	ds	1
   401  0039                     _debugging:
   402  0039                     	ds	1
   403  003A                     _clockDivider:
   404  003A                     	ds	1
   405                           
   406                           	psect	dataBANK0
   407  0054                     __pdataBANK0:
   408  0054                     _noGate:
   409  0054                     	ds	2
   410                           
   411                           	psect	clrtext
   412  0D8D                     clear_ram0:	
   413                           ;	Called with FSR0 containing the base address, and
   414                           ;	WREG with the size to clear
   415                           
   416  0D8D  0064               	clrwdt	;clear the watchdog before getting into this loop
   417  0D8E                     clrloop0:
   418  0D8E  0180               	clrf	0	;clear RAM location pointed to by FSR
   419  0D8F  3101               	addfsr 0,1
   420  0D90  0B89               	decfsz	9,f	;Have we reached the end of clearing yet?
   421  0D91  2D8E               	goto	clrloop0	;have we reached the end yet?
   422  0D92  3400               	retlw	0	;all done for this memory range, return
   423                           
   424                           	psect	cstackCOMMON
   425  0070                     __pcstackCOMMON:
   426  0070                     ?_doTheArc:
   427  0070                     ?_chargeIndicator:	
   428                           ; 1 bytes @ 0x0
   429                           
   430  0070                     ?_goToLPmode:	
   431                           ; 1 bytes @ 0x0
   432                           
   433  0070                     ?_imperialMarch:	
   434                           ; 1 bytes @ 0x0
   435                           
   436  0070                     ?_gargoyles:	
   437                           ; 1 bytes @ 0x0
   438                           
   439  0070                     ?_sheRa:	
   440                           ; 1 bytes @ 0x0
   441                           
   442  0070                     ?_isr:	
   443                           ; 1 bytes @ 0x0
   444                           
   445  0070                     ??_isr:	
   446                           ; 1 bytes @ 0x0
   447                           
   448                           
   449                           ; 1 bytes @ 0x0
   450  0070                     	ds	1
   451  0071                     ?_blockingDelay:
   452  0071                     ??_goToLPmode:	
   453                           ; 1 bytes @ 0x1
   454                           
   455  0071                     ?___lmul:	
   456                           ; 1 bytes @ 0x1
   457                           
   458  0071                     blockingDelay@mSecs:	
   459                           ; 4 bytes @ 0x1
   460                           
   461  0071                     ___lmul@multiplier:	
   462                           ; 2 bytes @ 0x1
   463                           
   464                           
   465                           ; 4 bytes @ 0x1
   466  0071                     	ds	2
   467  0073                     ??_blockingDelay:
   468  0073                     ?_playNote:	
   469                           ; 1 bytes @ 0x3
   470                           
   471  0073                     playNote@duration:	
   472                           ; 1 bytes @ 0x3
   473                           
   474                           
   475                           ; 2 bytes @ 0x3
   476  0073                     	ds	2
   477  0075                     ??_playNote:
   478  0075                     playNote@note:	
   479                           ; 1 bytes @ 0x5
   480                           
   481  0075                     ___lmul@multiplicand:	
   482                           ; 1 bytes @ 0x5
   483                           
   484                           
   485                           ; 4 bytes @ 0x5
   486  0075                     	ds	1
   487  0076                     ??_doTheArc:
   488  0076                     ??_imperialMarch:	
   489                           ; 1 bytes @ 0x6
   490                           
   491  0076                     ??_gargoyles:	
   492                           ; 1 bytes @ 0x6
   493                           
   494  0076                     ??_sheRa:	
   495                           ; 1 bytes @ 0x6
   496                           
   497                           
   498                           ; 1 bytes @ 0x6
   499  0076                     	ds	3
   500  0079                     ??___lmul:
   501  0079                     ??___lldiv:	
   502                           ; 1 bytes @ 0x9
   503                           
   504                           
   505                           ; 1 bytes @ 0x9
   506  0079                     	ds	1
   507  007A                     ??_chargeIndicator:
   508                           
   509                           ; 1 bytes @ 0xA
   510  007A                     	ds	1
   511  007B                     ??_main:
   512                           
   513                           	psect	cstackBANK0
   514  003B                     __pcstackBANK0:	
   515                           ; 1 bytes @ 0xB
   516                           
   517  003B                     ___lmul@product:
   518                           
   519                           ; 4 bytes @ 0x0
   520  003B                     	ds	4
   521  003F                     ?___lldiv:
   522  003F                     ___lldiv@divisor:	
   523                           ; 4 bytes @ 0x4
   524                           
   525                           
   526                           ; 4 bytes @ 0x4
   527  003F                     	ds	4
   528  0043                     ___lldiv@dividend:
   529                           
   530                           ; 4 bytes @ 0x8
   531  0043                     	ds	4
   532  0047                     ___lldiv@quotient:
   533                           
   534                           ; 4 bytes @ 0xC
   535  0047                     	ds	4
   536  004B                     ___lldiv@counter:
   537                           
   538                           ; 1 bytes @ 0x10
   539  004B                     	ds	1
   540  004C                     _chargeIndicator$1040:
   541                           
   542                           ; 4 bytes @ 0x11
   543  004C                     	ds	4
   544  0050                     ?_main:
   545  0050                     main@argc:	
   546                           ; 2 bytes @ 0x15
   547                           
   548                           
   549                           ; 2 bytes @ 0x15
   550  0050                     	ds	2
   551  0052                     main@argv:
   552                           
   553                           ; 2 bytes @ 0x17
   554  0052                     	ds	2
   555                           
   556                           	psect	maintext
   557  0E36                     __pmaintext:	
   558 ;;
   559 ;;Main: autosize = 0, tempsize = 0, incstack = 0, save=0
   560 ;;
   561 ;; *************** function _main *****************
   562 ;; Defined at:
   563 ;;		line 219 in file "main.c"
   564 ;; Parameters:    Size  Location     Type
   565 ;;  argc            2   21[BANK0 ] int 
   566 ;;  argv            2   23[BANK0 ] PTR PTR unsigned char 
   567 ;; Auto vars:     Size  Location     Type
   568 ;;		None
   569 ;; Return value:  Size  Location     Type
   570 ;;                  2   21[BANK0 ] int 
   571 ;; Registers used:
   572 ;;		wreg, fsr0l, fsr0h, status,2, status,0, pclath, cstack
   573 ;; Tracked objects:
   574 ;;		On entry : B3F/0
   575 ;;		On exit  : 0/0
   576 ;;		Unchanged: 0/0
   577 ;; Data sizes:     COMMON   BANK0   BANK1   BANK2   BANK3   BANK4   BANK5   BANK6
   578 ;;      Params:         0       4       0       0       0       0       0       0
   579 ;;      Locals:         0       0       0       0       0       0       0       0
   580 ;;      Temps:          0       0       0       0       0       0       0       0
   581 ;;      Totals:         0       4       0       0       0       0       0       0
   582 ;;Total ram usage:        4 bytes
   583 ;; Hardware stack levels required when called: 5
   584 ;; This function calls:
   585 ;;		_blockingDelay
   586 ;;		_chargeIndicator
   587 ;;		_doTheArc
   588 ;;		_goToLPmode
   589 ;; This function is called by:
   590 ;;		Startup code after reset
   591 ;; This function uses a non-reentrant model
   592 ;;
   593                           
   594                           
   595                           ;psect for function _main
   596  0E36                     _main:
   597  0E36                     l1805:	
   598                           ;incstack = 0
   599                           ; Regs used in _main: [wreg-fsr0h+status,2+status,0+pclath+cstack]
   600                           
   601                           
   602                           ;main.c: 223:     ANSELAbits.ANSA0 = 0;
   603  0E36  017E               	movlb	62	; select bank62
   604  0E37  1038               	bcf	56,0	;volatile
   605                           
   606                           ;main.c: 224:     ANSELAbits.ANSA1 = 0;
   607  0E38  10B8               	bcf	56,1	;volatile
   608                           
   609                           ;main.c: 225:     ANSELAbits.ANSA2 = 0;
   610  0E39  1138               	bcf	56,2	;volatile
   611                           
   612                           ;main.c: 227:     ANSELAbits.ANSA4 = 1;
   613  0E3A  1638               	bsf	56,4	;volatile
   614                           
   615                           ;main.c: 228:     ANSELAbits.ANSA5 = 0;
   616  0E3B  12B8               	bcf	56,5	;volatile
   617  0E3C                     l1807:
   618                           
   619                           ;main.c: 234:     ANSELC = 0x0;
   620  0E3C  01CE               	clrf	78	;volatile
   621  0E3D                     l1809:
   622                           
   623                           ;main.c: 237:     TRISA0 = 1;
   624  0E3D  0140               	movlb	0	; select bank0
   625  0E3E  1412               	bsf	18,0	;volatile
   626  0E3F                     l1811:
   627                           
   628                           ;main.c: 238:     WPUA0 = 1;
   629  0E3F  017E               	movlb	62	; select bank62
   630  0E40  1439               	bsf	57,0	;volatile
   631  0E41                     l1813:
   632                           
   633                           ;main.c: 239:     TRISA1 = 0;
   634  0E41  0140               	movlb	0	; select bank0
   635  0E42  1092               	bcf	18,1	;volatile
   636  0E43                     l1815:
   637                           
   638                           ;main.c: 240:     TRISA2 = 0;
   639  0E43  1112               	bcf	18,2	;volatile
   640  0E44                     l1817:
   641                           
   642                           ;main.c: 241:     TRISA3 = 1;
   643  0E44  1592               	bsf	18,3	;volatile
   644  0E45                     l1819:
   645                           
   646                           ;main.c: 242:     WPUA3 = 1;
   647  0E45  017E               	movlb	62	; select bank62
   648  0E46  15B9               	bsf	57,3	;volatile
   649  0E47                     l1821:
   650                           
   651                           ;main.c: 243:     TRISA4 = 1;
   652  0E47  0140               	movlb	0	; select bank0
   653  0E48  1612               	bsf	18,4	;volatile
   654  0E49                     l1823:
   655                           
   656                           ;main.c: 244:     TRISA5 = 1;
   657  0E49  1692               	bsf	18,5	;volatile
   658  0E4A                     l1825:
   659                           
   660                           ;main.c: 245:     TRISC0 = 0;
   661  0E4A  1014               	bcf	20,0	;volatile
   662  0E4B                     l1827:
   663                           
   664                           ;main.c: 246:     TRISC1 = 0;
   665  0E4B  1094               	bcf	20,1	;volatile
   666  0E4C                     l1829:
   667                           
   668                           ;main.c: 247:     TRISC2 = 0;
   669  0E4C  1114               	bcf	20,2	;volatile
   670  0E4D                     l1831:
   671                           
   672                           ;main.c: 248:     TRISC3 = 0;
   673  0E4D  1194               	bcf	20,3	;volatile
   674  0E4E                     l1833:
   675                           
   676                           ;main.c: 249:     TRISC4 = 0;
   677  0E4E  1214               	bcf	20,4	;volatile
   678  0E4F                     l1835:
   679                           
   680                           ;main.c: 250:     TRISC5 = 0;
   681  0E4F  1294               	bcf	20,5	;volatile
   682  0E50                     l1837:
   683                           
   684                           ;main.c: 253:     LATA1 = 1;
   685  0E50  1498               	bsf	24,1	;volatile
   686  0E51                     l1839:
   687                           
   688                           ;main.c: 254:     LATA2 = 1;
   689  0E51  1518               	bsf	24,2	;volatile
   690  0E52                     l1841:
   691                           
   692                           ;main.c: 255:     LATC0 = 1;
   693  0E52  141A               	bsf	26,0	;volatile
   694  0E53                     l1843:
   695                           
   696                           ;main.c: 256:     LATC1 = 1;
   697  0E53  149A               	bsf	26,1	;volatile
   698  0E54                     l1845:
   699                           
   700                           ;main.c: 257:     LATC2 = 1;
   701  0E54  151A               	bsf	26,2	;volatile
   702  0E55                     l1847:
   703                           
   704                           ;main.c: 258:     LATC3 = 0;
   705  0E55  119A               	bcf	26,3	;volatile
   706  0E56                     l1849:
   707                           
   708                           ;main.c: 259:     LATC4 = 0;
   709  0E56  121A               	bcf	26,4	;volatile
   710  0E57                     l1851:
   711                           
   712                           ;main.c: 260:     LATC5 = 0;
   713  0E57  129A               	bcf	26,5	;volatile
   714  0E58                     l1853:
   715                           
   716                           ;main.c: 267:     OSCENbits.HFOEN = 1;
   717  0E58  0151               	movlb	17	; select bank17
   718  0E59  1711               	bsf	17,6	;volatile
   719  0E5A                     l1855:
   720                           
   721                           ;main.c: 268:     OSCFRQbits.FRQ = 0b101;
   722  0E5A  0813               	movf	19,w	;volatile
   723  0E5B  39F8               	andlw	-8
   724  0E5C  3805               	iorlw	5
   725  0E5D  0093               	movwf	19	;volatile
   726  0E5E                     l1857:
   727                           
   728                           ;main.c: 272:     T0CON0bits.MD16 = 0;
   729  0E5E  014B               	movlb	11	; select bank11
   730  0E5F  121E               	bcf	30,4	;volatile
   731  0E60                     l1859:
   732                           
   733                           ;main.c: 273:     T0CON0bits.OUTPS = 0b0000;
   734  0E60  30F0               	movlw	-16
   735  0E61  059E               	andwf	30,f	;volatile
   736  0E62                     l1861:
   737                           
   738                           ;main.c: 274:     T0CON1bits.CS = 0b010;
   739  0E62  081F               	movf	31,w	;volatile
   740  0E63  391F               	andlw	-225
   741  0E64  3840               	iorlw	64
   742  0E65  009F               	movwf	31	;volatile
   743  0E66                     l1863:
   744                           
   745                           ;main.c: 275:     T0CON1bits.ASYNC = 0;
   746  0E66  121F               	bcf	31,4	;volatile
   747  0E67                     l1865:
   748                           
   749                           ;main.c: 276:     T0CON0bits.EN = 1;
   750  0E67  179E               	bsf	30,7	;volatile
   751  0E68                     l1867:
   752                           
   753                           ;main.c: 279:     PR2 = 0x1E;
   754  0E68  301E               	movlw	30
   755  0E69  0145               	movlb	5	; select bank5
   756  0E6A  008D               	movwf	13	;volatile
   757  0E6B                     l1869:
   758                           
   759                           ;main.c: 280:     T2CLKCON = 0b001;
   760  0E6B  3001               	movlw	1
   761  0E6C  0090               	movwf	16	;volatile
   762  0E6D                     l1871:
   763                           
   764                           ;main.c: 281:     T2CONbits.T2CKPS = 0b111;
   765  0E6D  3070               	movlw	112
   766  0E6E  048E               	iorwf	14,f	;volatile
   767  0E6F                     l1873:
   768                           
   769                           ;main.c: 282:     T2HLTbits.PSYNC = 1;
   770  0E6F  178F               	bsf	15,7	;volatile
   771  0E70                     l1875:
   772                           
   773                           ;main.c: 283:     T2CONbits.TMR2ON = 1;
   774  0E70  178E               	bsf	14,7	;volatile
   775  0E71                     l1877:
   776                           
   777                           ;main.c: 286:     TMR0IE = 1;
   778  0E71  014E               	movlb	14	; select bank14
   779  0E72  1696               	bsf	22,5	;volatile
   780  0E73                     l1879:
   781                           
   782                           ;main.c: 287:     TMR2IE = 1;
   783  0E73  1717               	bsf	23,6	;volatile
   784  0E74                     l1881:
   785                           
   786                           ;main.c: 290:     FVRCONbits.ADFVR = 0b01;
   787  0E74  0152               	movlb	18	; select bank18
   788  0E75  080C               	movf	12,w	;volatile
   789  0E76  39FC               	andlw	-4
   790  0E77  3801               	iorlw	1
   791  0E78  008C               	movwf	12	;volatile
   792  0E79                     l1883:
   793                           
   794                           ;main.c: 291:     FVRCONbits.FVREN = 1;
   795  0E79  178C               	bsf	12,7	;volatile
   796  0E7A                     l1885:
   797                           
   798                           ;main.c: 295:     if (!debugging) NVMCON1bits.NVMREGS = 1;
   799  0E7A  0140               	movlb	0	; select bank0
   800  0E7B  0839               	movf	_debugging,w
   801  0E7C  1D03               	btfss	3,2
   802  0E7D  2E7F               	goto	u1701
   803  0E7E  2E80               	goto	u1700
   804  0E7F                     u1701:
   805  0E7F  2E82               	goto	l173
   806  0E80                     u1700:
   807  0E80                     l1887:
   808  0E80  0150               	movlb	16	; select bank16
   809  0E81  171E               	bsf	30,6	;volsfr
   810  0E82                     l173:
   811                           
   812                           ;main.c: 296:     NVMADR = 0x8118;
   813  0E82  3081               	movlw	129
   814  0E83  0150               	movlb	16	; select bank16
   815  0E84  009B               	movwf	27	;volatile
   816  0E85  3018               	movlw	24
   817  0E86  009A               	movwf	26	;volatile
   818                           
   819                           ;main.c: 297:     NVMCON1bits.RD = 1;
   820  0E87  141E               	bsf	30,0	;volsfr
   821  0E88                     l1889:
   822                           
   823                           ;main.c: 298:     calibrationMV = NVMADR;
   824  0E88  081A               	movf	26,w	;volatile
   825  0E89  0140               	movlb	0	; select bank0
   826  0E8A  00A0               	movwf	_calibrationMV
   827  0E8B  0150               	movlb	16	; select bank16
   828  0E8C  081B               	movf	27,w	;volatile
   829  0E8D  0140               	movlb	0	; select bank0
   830  0E8E  00A1               	movwf	_calibrationMV+1
   831  0E8F  01A2               	clrf	_calibrationMV+2
   832  0E90  01A3               	clrf	_calibrationMV+3
   833  0E91                     l1891:
   834                           
   835                           ;main.c: 299:     if (!debugging) NVMCON1bits.NVMREGS = 0;
   836  0E91  0839               	movf	_debugging,w
   837  0E92  1D03               	btfss	3,2
   838  0E93  2E95               	goto	u1711
   839  0E94  2E96               	goto	u1710
   840  0E95                     u1711:
   841  0E95  2E98               	goto	l1895
   842  0E96                     u1710:
   843  0E96                     l1893:
   844  0E96  0150               	movlb	16	; select bank16
   845  0E97  131E               	bcf	30,6	;volsfr
   846  0E98                     l1895:
   847                           
   848                           ;main.c: 302:     ADCON1bits.CS = 0b110;
   849  0E98  0141               	movlb	1	; select bank1
   850  0E99  081E               	movf	30,w	;volatile
   851  0E9A  398F               	andlw	-113
   852  0E9B  3860               	iorlw	96
   853  0E9C  009E               	movwf	30	;volatile
   854                           
   855                           ;main.c: 303:     ADCON1bits.PREF = 0b00;
   856  0E9D  30FC               	movlw	-4
   857  0E9E  059E               	andwf	30,f	;volatile
   858                           
   859                           ;main.c: 304:     ADCON0bits.CHS = 0b011110;
   860  0E9F  081D               	movf	29,w	;volatile
   861  0EA0  3903               	andlw	-253
   862  0EA1  3878               	iorlw	120
   863  0EA2  009D               	movwf	29	;volatile
   864  0EA3                     l1897:
   865                           
   866                           ;main.c: 305:     ADCON1bits.FM = 1;
   867  0EA3  179E               	bsf	30,7	;volatile
   868  0EA4                     l1899:
   869                           
   870                           ;main.c: 306:     ADACT = 0x0;
   871  0EA4  019F               	clrf	31	;volatile
   872  0EA5                     l1901:
   873                           
   874                           ;main.c: 309:     if (!debugging) ADCON0bits.ON = 1;
   875  0EA5  0140               	movlb	0	; select bank0
   876  0EA6  0839               	movf	_debugging,w
   877  0EA7  1D03               	btfss	3,2
   878  0EA8  2EAA               	goto	u1721
   879  0EA9  2EAB               	goto	u1720
   880  0EAA                     u1721:
   881  0EAA  2EAD               	goto	l175
   882  0EAB                     u1720:
   883  0EAB                     l1903:
   884  0EAB  0141               	movlb	1	; select bank1
   885  0EAC  141D               	bsf	29,0	;volatile
   886  0EAD                     l175:
   887                           
   888                           ;main.c: 322:     IOCAN0 = 1;
   889  0EAD  017E               	movlb	62	; select bank62
   890  0EAE  143E               	bsf	62,0	;volatile
   891                           
   892                           ;main.c: 323:     IOCAP0 = 1;
   893  0EAF  143D               	bsf	61,0	;volatile
   894                           
   895                           ;main.c: 324:     IOCAN3 = 1;
   896  0EB0  15BE               	bsf	62,3	;volatile
   897                           
   898                           ;main.c: 325:     IOCAP3 = 1;
   899  0EB1  15BD               	bsf	61,3	;volatile
   900                           
   901                           ;main.c: 326:     IOCAN5 = 1;
   902  0EB2  16BE               	bsf	62,5	;volatile
   903                           
   904                           ;main.c: 327:     IOCAP5 = 1;
   905  0EB3  16BD               	bsf	61,5	;volatile
   906                           
   907                           ;main.c: 328:     INTE = 0;
   908  0EB4  014E               	movlb	14	; select bank14
   909  0EB5  1016               	bcf	22,0	;volatile
   910                           
   911                           ;main.c: 330:     PEIE = 1;
   912  0EB6  170B               	bsf	11,6	;volatile
   913                           
   914                           ;main.c: 331:     IOCIE = 1;
   915  0EB7  1616               	bsf	22,4	;volatile
   916                           
   917                           ;main.c: 332:     GIE = 1;
   918  0EB8  178B               	bsf	11,7	;volatile
   919                           
   920                           ;main.c: 335:     LATC2 = 0;
   921  0EB9  0140               	movlb	0	; select bank0
   922  0EBA  111A               	bcf	26,2	;volatile
   923  0EBB                     l1905:
   924                           
   925                           ;main.c: 336:     blockingDelay(100);
   926  0EBB  3064               	movlw	100
   927  0EBC  00F1               	movwf	blockingDelay@mSecs
   928  0EBD  3000               	movlw	0
   929  0EBE  00F2               	movwf	blockingDelay@mSecs+1
   930  0EBF  318D  259D  318E   	fcall	_blockingDelay
   931  0EC2                     l1907:
   932                           
   933                           ;main.c: 337:     LATC2 = 1;
   934  0EC2  0140               	movlb	0	; select bank0
   935  0EC3  151A               	bsf	26,2	;volatile
   936                           
   937                           ;main.c: 338:     blockingDelay(100);
   938  0EC4  3064               	movlw	100
   939  0EC5  00F1               	movwf	blockingDelay@mSecs
   940  0EC6  3000               	movlw	0
   941  0EC7  00F2               	movwf	blockingDelay@mSecs+1
   942  0EC8  318D  259D  318E   	fcall	_blockingDelay
   943  0ECB                     l1909:
   944                           
   945                           ;main.c: 339:     LATC2 = 0;
   946  0ECB  0140               	movlb	0	; select bank0
   947  0ECC  111A               	bcf	26,2	;volatile
   948                           
   949                           ;main.c: 340:     blockingDelay(100);
   950  0ECD  3064               	movlw	100
   951  0ECE  00F1               	movwf	blockingDelay@mSecs
   952  0ECF  3000               	movlw	0
   953  0ED0  00F2               	movwf	blockingDelay@mSecs+1
   954  0ED1  318D  259D  318E   	fcall	_blockingDelay
   955  0ED4                     l1911:
   956                           
   957                           ;main.c: 341:     LATC2 = 1;
   958  0ED4  0140               	movlb	0	; select bank0
   959  0ED5  151A               	bsf	26,2	;volatile
   960                           
   961                           ;main.c: 342:     blockingDelay(100);
   962  0ED6  3064               	movlw	100
   963  0ED7  00F1               	movwf	blockingDelay@mSecs
   964  0ED8  3000               	movlw	0
   965  0ED9  00F2               	movwf	blockingDelay@mSecs+1
   966  0EDA  318D  259D  318E   	fcall	_blockingDelay
   967  0EDD                     l1913:
   968                           
   969                           ;main.c: 343:     LATC2 = 0;
   970  0EDD  0140               	movlb	0	; select bank0
   971  0EDE  111A               	bcf	26,2	;volatile
   972                           
   973                           ;main.c: 344:     blockingDelay(100);
   974  0EDF  3064               	movlw	100
   975  0EE0  00F1               	movwf	blockingDelay@mSecs
   976  0EE1  3000               	movlw	0
   977  0EE2  00F2               	movwf	blockingDelay@mSecs+1
   978  0EE3  318D  259D  318E   	fcall	_blockingDelay
   979  0EE6                     l1915:
   980                           
   981                           ;main.c: 345:     LATC2 = 1;
   982  0EE6  0140               	movlb	0	; select bank0
   983  0EE7  151A               	bsf	26,2	;volatile
   984  0EE8                     l1917:
   985                           
   986                           ;main.c: 347:     if (PORTAbits.RA5) showCharge = 1;
   987  0EE8  1E8C               	btfss	12,5	;volatile
   988  0EE9  2EEB               	goto	u1731
   989  0EEA  2EEC               	goto	u1730
   990  0EEB                     u1731:
   991  0EEB  2EEE               	goto	l1921
   992  0EEC                     u1730:
   993  0EEC                     l1919:
   994  0EEC  01B7               	clrf	_showCharge
   995  0EED  0AB7               	incf	_showCharge,f
   996  0EEE                     l1921:
   997                           
   998                           ;main.c: 351:         if (doingTheArc) doTheArc();
   999  0EEE  0140               	movlb	0	; select bank0
  1000  0EEF  0836               	movf	_doingTheArc,w
  1001  0EF0  1903               	btfsc	3,2
  1002  0EF1  2EF3               	goto	u1741
  1003  0EF2  2EF4               	goto	u1740
  1004  0EF3                     u1741:
  1005  0EF3  2EF7               	goto	l1925
  1006  0EF4                     u1740:
  1007  0EF4                     l1923:
  1008  0EF4  3187  2744  318E   	fcall	_doTheArc
  1009  0EF7                     l1925:
  1010                           
  1011                           ;main.c: 352:         if (showCharge) chargeIndicator();
  1012  0EF7  0140               	movlb	0	; select bank0
  1013  0EF8  0837               	movf	_showCharge,w
  1014  0EF9  1903               	btfsc	3,2
  1015  0EFA  2EFC               	goto	u1751
  1016  0EFB  2EFD               	goto	u1750
  1017  0EFC                     u1751:
  1018  0EFC  2F00               	goto	l1929
  1019  0EFD                     u1750:
  1020  0EFD                     l1927:
  1021  0EFD  3186  264F  318E   	fcall	_chargeIndicator
  1022  0F00                     l1929:
  1023                           
  1024                           ;main.c: 353:         if (poweredOn) {
  1025  0F00  0140               	movlb	0	; select bank0
  1026  0F01  0838               	movf	_poweredOn,w
  1027  0F02  1903               	btfsc	3,2
  1028  0F03  2F05               	goto	u1761
  1029  0F04  2F06               	goto	u1760
  1030  0F05                     u1761:
  1031  0F05  2F09               	goto	l180
  1032  0F06                     u1760:
  1033  0F06                     l1931:
  1034                           
  1035                           ;main.c: 355:             LATC2 = 0;
  1036  0F06  111A               	bcf	26,2	;volatile
  1037                           
  1038                           ;main.c: 357:             LATC3 = 1;
  1039  0F07  159A               	bsf	26,3	;volatile
  1040                           
  1041                           ;main.c: 358:         } else {
  1042  0F08  2F0B               	goto	l1933
  1043  0F09                     l180:
  1044                           
  1045                           ;main.c: 360:             LATC2 = 1;
  1046  0F09  151A               	bsf	26,2	;volatile
  1047                           
  1048                           ;main.c: 362:             LATC3 = 0;
  1049  0F0A  119A               	bcf	26,3	;volatile
  1050  0F0B                     l1933:
  1051                           
  1052                           ;main.c: 364:         if (lowPowerMode) goToLPmode();
  1053  0F0B  0835               	movf	_lowPowerMode,w
  1054  0F0C  1903               	btfsc	3,2
  1055  0F0D  2F0F               	goto	u1771
  1056  0F0E  2F10               	goto	u1770
  1057  0F0F                     u1771:
  1058  0F0F  2F13               	goto	l182
  1059  0F10                     u1770:
  1060  0F10                     l1935:
  1061  0F10  318D  2593  318E   	fcall	_goToLPmode
  1062  0F13                     l182:
  1063  0F13  0063               	sleep	;# 
  1064                           
  1065                           ;main.c: 366:     } while (1);
  1066  0F14  2EEE               	goto	l1921
  1067  0F15  3180  28CE         	ljmp	start
  1068  0F17                     __end_of_main:
  1069                           
  1070                           	psect	text1
  1071  0D93                     __ptext1:	
  1072 ;; *************** function _goToLPmode *****************
  1073 ;; Defined at:
  1074 ;;		line 564 in file "main.c"
  1075 ;; Parameters:    Size  Location     Type
  1076 ;;		None
  1077 ;; Auto vars:     Size  Location     Type
  1078 ;;		None
  1079 ;; Return value:  Size  Location     Type
  1080 ;;                  1    wreg      void 
  1081 ;; Registers used:
  1082 ;;		status,2
  1083 ;; Tracked objects:
  1084 ;;		On entry : 0/0
  1085 ;;		On exit  : 0/0
  1086 ;;		Unchanged: 0/0
  1087 ;; Data sizes:     COMMON   BANK0   BANK1   BANK2   BANK3   BANK4   BANK5   BANK6
  1088 ;;      Params:         0       0       0       0       0       0       0       0
  1089 ;;      Locals:         0       0       0       0       0       0       0       0
  1090 ;;      Temps:          0       0       0       0       0       0       0       0
  1091 ;;      Totals:         0       0       0       0       0       0       0       0
  1092 ;;Total ram usage:        0 bytes
  1093 ;; Hardware stack levels used: 1
  1094 ;; Hardware stack levels required when called: 1
  1095 ;; This function calls:
  1096 ;;		Nothing
  1097 ;; This function is called by:
  1098 ;;		_main
  1099 ;; This function uses a non-reentrant model
  1100 ;;
  1101                           
  1102                           
  1103                           ;psect for function _goToLPmode
  1104  0D93                     _goToLPmode:
  1105  0D93                     l1433:	
  1106                           ;incstack = 0
  1107                           ; Regs used in _goToLPmode: [status,2]
  1108                           
  1109                           
  1110                           ;main.c: 565:     forceArc = 0;
  1111  0D93  0140               	movlb	0	; select bank0
  1112  0D94  01B0               	clrf	_forceArc
  1113  0D95  01B1               	clrf	_forceArc+1
  1114  0D96                     l1435:
  1115                           
  1116                           ;main.c: 577:     LATC3 = 0;
  1117  0D96  119A               	bcf	26,3	;volatile
  1118  0D97                     l1437:
  1119                           
  1120                           ;main.c: 580:     LATA1 = 1;
  1121  0D97  1498               	bsf	24,1	;volatile
  1122  0D98                     l1439:
  1123                           
  1124                           ;main.c: 581:     LATA2 = 1;
  1125  0D98  1518               	bsf	24,2	;volatile
  1126  0D99                     l1441:
  1127                           
  1128                           ;main.c: 582:     LATC0 = 1;
  1129  0D99  141A               	bsf	26,0	;volatile
  1130  0D9A                     l1443:
  1131                           
  1132                           ;main.c: 583:     LATC1 = 1;
  1133  0D9A  149A               	bsf	26,1	;volatile
  1134  0D9B                     l1445:
  1135                           
  1136                           ;main.c: 584:     LATC2 = 1;
  1137  0D9B  151A               	bsf	26,2	;volatile
  1138  0D9C                     l243:
  1139  0D9C  0008               	return
  1140  0D9D                     __end_of_goToLPmode:
  1141                           
  1142                           	psect	text2
  1143  0744                     __ptext2:	
  1144 ;; *************** function _doTheArc *****************
  1145 ;; Defined at:
  1146 ;;		line 477 in file "main.c"
  1147 ;; Parameters:    Size  Location     Type
  1148 ;;		None
  1149 ;; Auto vars:     Size  Location     Type
  1150 ;;		None
  1151 ;; Return value:  Size  Location     Type
  1152 ;;                  1    wreg      void 
  1153 ;; Registers used:
  1154 ;;		wreg, fsr0l, fsr0h, status,2, status,0, pclath, cstack
  1155 ;; Tracked objects:
  1156 ;;		On entry : 0/0
  1157 ;;		On exit  : 0/0
  1158 ;;		Unchanged: 0/0
  1159 ;; Data sizes:     COMMON   BANK0   BANK1   BANK2   BANK3   BANK4   BANK5   BANK6
  1160 ;;      Params:         0       0       0       0       0       0       0       0
  1161 ;;      Locals:         0       0       0       0       0       0       0       0
  1162 ;;      Temps:          2       0       0       0       0       0       0       0
  1163 ;;      Totals:         2       0       0       0       0       0       0       0
  1164 ;;Total ram usage:        2 bytes
  1165 ;; Hardware stack levels used: 1
  1166 ;; Hardware stack levels required when called: 4
  1167 ;; This function calls:
  1168 ;;		_blockingDelay
  1169 ;;		_gargoyles
  1170 ;;		_imperialMarch
  1171 ;;		_sheRa
  1172 ;; This function is called by:
  1173 ;;		_main
  1174 ;; This function uses a non-reentrant model
  1175 ;;
  1176                           
  1177                           
  1178                           ;psect for function _doTheArc
  1179  0744                     _doTheArc:
  1180  0744                     l1321:	
  1181                           ;incstack = 0
  1182                           ; Regs used in _doTheArc: [wreg-fsr0h+status,2+status,0+pclath+cstack]
  1183                           
  1184                           
  1185                           ;main.c: 479:     forceArc = 1;
  1186  0744  3001               	movlw	1
  1187  0745  0140               	movlb	0	; select bank0
  1188  0746  00B0               	movwf	_forceArc
  1189  0747  3000               	movlw	0
  1190  0748  00B1               	movwf	_forceArc+1
  1191  0749                     l1323:
  1192                           
  1193                           ;main.c: 480:     runIndex++;
  1194  0749  3001               	movlw	1
  1195  074A  00F6               	movwf	??_doTheArc
  1196  074B  0876               	movf	??_doTheArc,w
  1197  074C  07B4               	addwf	_runIndex,f
  1198  074D                     l1325:
  1199                           
  1200                           ;main.c: 481:     if (runIndex > 4) runIndex = 1;
  1201  074D  3005               	movlw	5
  1202  074E  0234               	subwf	_runIndex,w
  1203  074F  1C03               	skipc
  1204  0750  2F52               	goto	u861
  1205  0751  2F53               	goto	u860
  1206  0752                     u861:
  1207  0752  2F99               	goto	l1357
  1208  0753                     u860:
  1209  0753                     l1327:
  1210  0753  01B4               	clrf	_runIndex
  1211  0754  0AB4               	incf	_runIndex,f
  1212  0755  2F99               	goto	l1357
  1213  0756                     l216:	
  1214                           ;main.c: 483:         case 1:
  1215                           
  1216                           
  1217                           ;main.c: 485:             LATA1 = 0;
  1218  0756  1098               	bcf	24,1	;volatile
  1219                           
  1220                           ;main.c: 486:             LATA2 = 1;
  1221  0757  1518               	bsf	24,2	;volatile
  1222                           
  1223                           ;main.c: 487:             LATC0 = 1;
  1224  0758  141A               	bsf	26,0	;volatile
  1225                           
  1226                           ;main.c: 488:             LATC1 = 1;
  1227  0759  149A               	bsf	26,1	;volatile
  1228  075A                     l1329:	
  1229                           ;main.c: 489:             while(doingTheArc);
  1230                           
  1231  075A  0836               	movf	_doingTheArc,w
  1232  075B  1D03               	btfss	3,2
  1233  075C  2F5E               	goto	u871
  1234  075D  2F5F               	goto	u870
  1235  075E                     u871:
  1236  075E  2F5A               	goto	l1329
  1237  075F                     u870:
  1238  075F  2FAF               	goto	l225
  1239  0760                     l221:	
  1240                           ;main.c: 493:         case 2:
  1241                           
  1242                           
  1243                           ;main.c: 495:             LATA1 = 1;
  1244  0760  1498               	bsf	24,1	;volatile
  1245                           
  1246                           ;main.c: 496:             LATA2 = 0;
  1247  0761  1118               	bcf	24,2	;volatile
  1248                           
  1249                           ;main.c: 497:             LATC0 = 1;
  1250  0762  141A               	bsf	26,0	;volatile
  1251                           
  1252                           ;main.c: 498:             LATC1 = 1;
  1253  0763  149A               	bsf	26,1	;volatile
  1254  0764                     l1331:
  1255                           
  1256                           ;main.c: 500:             blockingDelay(1000);
  1257  0764  30E8               	movlw	232
  1258  0765  00F1               	movwf	blockingDelay@mSecs
  1259  0766  3003               	movlw	3
  1260  0767  00F2               	movwf	blockingDelay@mSecs+1
  1261  0768  318D  259D  3187   	fcall	_blockingDelay
  1262  076B                     l1333:
  1263                           
  1264                           ;main.c: 501:             forceArc = 0;
  1265  076B  0140               	movlb	0	; select bank0
  1266  076C  01B0               	clrf	_forceArc
  1267  076D  01B1               	clrf	_forceArc+1
  1268  076E                     l1335:
  1269                           
  1270                           ;main.c: 502:             imperialMarch();
  1271  076E  3180  20E5  3187   	fcall	_imperialMarch
  1272  0771                     l1337:
  1273                           
  1274                           ;main.c: 503:             forceArc = 0;
  1275  0771  0140               	movlb	0	; select bank0
  1276  0772  01B0               	clrf	_forceArc
  1277  0773  01B1               	clrf	_forceArc+1
  1278                           
  1279                           ;main.c: 504:             break;
  1280  0774  2FAF               	goto	l225
  1281  0775                     l222:	
  1282                           ;main.c: 506:         case 3:
  1283                           
  1284                           
  1285                           ;main.c: 508:             LATA1 = 1;
  1286  0775  1498               	bsf	24,1	;volatile
  1287                           
  1288                           ;main.c: 509:             LATA2 = 1;
  1289  0776  1518               	bsf	24,2	;volatile
  1290                           
  1291                           ;main.c: 510:             LATC0 = 0;
  1292  0777  101A               	bcf	26,0	;volatile
  1293                           
  1294                           ;main.c: 511:             LATC1 = 1;
  1295  0778  149A               	bsf	26,1	;volatile
  1296  0779                     l1339:
  1297                           
  1298                           ;main.c: 513:             blockingDelay(1000);
  1299  0779  30E8               	movlw	232
  1300  077A  00F1               	movwf	blockingDelay@mSecs
  1301  077B  3003               	movlw	3
  1302  077C  00F2               	movwf	blockingDelay@mSecs+1
  1303  077D  318D  259D  3187   	fcall	_blockingDelay
  1304  0780                     l1341:
  1305                           
  1306                           ;main.c: 514:             forceArc = 0;
  1307  0780  0140               	movlb	0	; select bank0
  1308  0781  01B0               	clrf	_forceArc
  1309  0782  01B1               	clrf	_forceArc+1
  1310  0783                     l1343:
  1311                           
  1312                           ;main.c: 515:             gargoyles();
  1313  0783  318F  2717  3187   	fcall	_gargoyles
  1314  0786  2F71               	goto	l1337
  1315  0787                     l223:	
  1316                           ;main.c: 519:         case 4:
  1317                           
  1318                           
  1319                           ;main.c: 521:             LATA1 = 1;
  1320  0787  1498               	bsf	24,1	;volatile
  1321                           
  1322                           ;main.c: 522:             LATA2 = 1;
  1323  0788  1518               	bsf	24,2	;volatile
  1324                           
  1325                           ;main.c: 523:             LATC0 = 1;
  1326  0789  141A               	bsf	26,0	;volatile
  1327                           
  1328                           ;main.c: 524:             LATC1 = 0;
  1329  078A  109A               	bcf	26,1	;volatile
  1330  078B                     l1347:
  1331                           
  1332                           ;main.c: 526:             blockingDelay(1000);
  1333  078B  30E8               	movlw	232
  1334  078C  00F1               	movwf	blockingDelay@mSecs
  1335  078D  3003               	movlw	3
  1336  078E  00F2               	movwf	blockingDelay@mSecs+1
  1337  078F  318D  259D  3187   	fcall	_blockingDelay
  1338  0792                     l1349:
  1339                           
  1340                           ;main.c: 527:             forceArc = 0;
  1341  0792  0140               	movlb	0	; select bank0
  1342  0793  01B0               	clrf	_forceArc
  1343  0794  01B1               	clrf	_forceArc+1
  1344  0795                     l1351:
  1345                           
  1346                           ;main.c: 528:             sheRa();
  1347  0795  3184  24CE  3187   	fcall	_sheRa
  1348  0798  2F71               	goto	l1337
  1349  0799                     l1357:
  1350  0799  0834               	movf	_runIndex,w
  1351  079A  00F6               	movwf	??_doTheArc
  1352  079B  01F7               	clrf	??_doTheArc+1
  1353                           
  1354                           ; Switch on 2 bytes has been partitioned into a top level switch of size 1, and 1 sub-sw
      +                          itches
  1355                           ; Switch size 1, requested type "simple"
  1356                           ; Number of cases is 1, Range of values is 0 to 0
  1357                           ; switch strategies available:
  1358                           ; Name         Instructions Cycles
  1359                           ; simple_byte            4     3 (average)
  1360                           ; direct_byte            8     6 (fixed)
  1361                           ; jumptable            260     6 (fixed)
  1362                           ;	Chosen strategy is simple_byte
  1363  079C  0877               	movf	??_doTheArc+1,w
  1364  079D  3A00               	xorlw	0	; case 0
  1365  079E  1903               	skipnz
  1366  079F  2FA1               	goto	l1957
  1367  07A0  2FAF               	goto	l225
  1368  07A1                     l1957:
  1369                           
  1370                           ; Switch size 1, requested type "simple"
  1371                           ; Number of cases is 4, Range of values is 1 to 4
  1372                           ; switch strategies available:
  1373                           ; Name         Instructions Cycles
  1374                           ; simple_byte           13     7 (average)
  1375                           ; direct_byte           17     9 (fixed)
  1376                           ; jumptable            263     9 (fixed)
  1377                           ;	Chosen strategy is simple_byte
  1378  07A1  0876               	movf	??_doTheArc,w
  1379  07A2  3A01               	xorlw	1	; case 1
  1380  07A3  1903               	skipnz
  1381  07A4  2F56               	goto	l216
  1382  07A5  3A03               	xorlw	3	; case 2
  1383  07A6  1903               	skipnz
  1384  07A7  2F60               	goto	l221
  1385  07A8  3A01               	xorlw	1	; case 3
  1386  07A9  1903               	skipnz
  1387  07AA  2F75               	goto	l222
  1388  07AB  3A07               	xorlw	7	; case 4
  1389  07AC  1903               	skipnz
  1390  07AD  2F87               	goto	l223
  1391  07AE  2FAF               	goto	l225
  1392  07AF                     l225:
  1393  07AF  0008               	return
  1394  07B0                     __end_of_doTheArc:
  1395                           
  1396                           	psect	text3
  1397  04CE                     __ptext3:	
  1398 ;; *************** function _sheRa *****************
  1399 ;; Defined at:
  1400 ;;		line 1041 in file "main.c"
  1401 ;; Parameters:    Size  Location     Type
  1402 ;;		None
  1403 ;; Auto vars:     Size  Location     Type
  1404 ;;		None
  1405 ;; Return value:  Size  Location     Type
  1406 ;;                  1    wreg      void 
  1407 ;; Registers used:
  1408 ;;		wreg, fsr0l, fsr0h, status,2, status,0, pclath, cstack
  1409 ;; Tracked objects:
  1410 ;;		On entry : 0/0
  1411 ;;		On exit  : 0/0
  1412 ;;		Unchanged: 0/0
  1413 ;; Data sizes:     COMMON   BANK0   BANK1   BANK2   BANK3   BANK4   BANK5   BANK6
  1414 ;;      Params:         0       0       0       0       0       0       0       0
  1415 ;;      Locals:         0       0       0       0       0       0       0       0
  1416 ;;      Temps:          0       0       0       0       0       0       0       0
  1417 ;;      Totals:         0       0       0       0       0       0       0       0
  1418 ;;Total ram usage:        0 bytes
  1419 ;; Hardware stack levels used: 1
  1420 ;; Hardware stack levels required when called: 3
  1421 ;; This function calls:
  1422 ;;		_playNote
  1423 ;; This function is called by:
  1424 ;;		_doTheArc
  1425 ;; This function uses a non-reentrant model
  1426 ;;
  1427                           
  1428                           
  1429                           ;psect for function _sheRa
  1430  04CE                     _sheRa:
  1431  04CE                     l1281:	
  1432                           ;incstack = 0
  1433                           ; Regs used in _sheRa: [wreg-fsr0h+status,2+status,0+pclath+cstack]
  1434                           
  1435                           
  1436                           ;main.c: 1042:     playNote(0x0B, 216);
  1437  04CE  30D8               	movlw	216
  1438  04CF  00F3               	movwf	playNote@duration
  1439  04D0  3000               	movlw	0
  1440  04D1  00F4               	movwf	playNote@duration+1
  1441  04D2  300B               	movlw	11
  1442  04D3  318D  25B3  3184   	fcall	_playNote
  1443                           
  1444                           ;main.c: 1043:     playNote(0x0D, 216);
  1445  04D6  30D8               	movlw	216
  1446  04D7  00F3               	movwf	playNote@duration
  1447  04D8  3000               	movlw	0
  1448  04D9  00F4               	movwf	playNote@duration+1
  1449  04DA  300D               	movlw	13
  1450  04DB  318D  25B3  3184   	fcall	_playNote
  1451                           
  1452                           ;main.c: 1044:     playNote(0x0E, 433);
  1453  04DE  30B1               	movlw	177
  1454  04DF  00F3               	movwf	playNote@duration
  1455  04E0  3001               	movlw	1
  1456  04E1  00F4               	movwf	playNote@duration+1
  1457  04E2  300E               	movlw	14
  1458  04E3  318D  25B3  3184   	fcall	_playNote
  1459                           
  1460                           ;main.c: 1045:     playNote(0x12, 444);
  1461  04E6  30BC               	movlw	188
  1462  04E7  00F3               	movwf	playNote@duration
  1463  04E8  3001               	movlw	1
  1464  04E9  00F4               	movwf	playNote@duration+1
  1465  04EA  3012               	movlw	18
  1466  04EB  318D  25B3  3184   	fcall	_playNote
  1467                           
  1468                           ;main.c: 1046:     playNote(0x13, 651);
  1469  04EE  308B               	movlw	139
  1470  04EF  00F3               	movwf	playNote@duration
  1471  04F0  3002               	movlw	2
  1472  04F1  00F4               	movwf	playNote@duration+1
  1473  04F2  3013               	movlw	19
  1474  04F3  318D  25B3  3184   	fcall	_playNote
  1475                           
  1476                           ;main.c: 1047:     playNote(0x12, 107);
  1477  04F6  306B               	movlw	107
  1478  04F7  00F3               	movwf	playNote@duration
  1479  04F8  3000               	movlw	0
  1480  04F9  00F4               	movwf	playNote@duration+1
  1481  04FA  3012               	movlw	18
  1482  04FB  318D  25B3  3184   	fcall	_playNote
  1483                           
  1484                           ;main.c: 1048:     playNote(0x10, 107);
  1485  04FE  306B               	movlw	107
  1486  04FF  00F3               	movwf	playNote@duration
  1487  0500  3000               	movlw	0
  1488  0501  00F4               	movwf	playNote@duration+1
  1489  0502  3010               	movlw	16
  1490  0503  318D  25B3  3184   	fcall	_playNote
  1491                           
  1492                           ;main.c: 1049:     playNote(0x12, 868);
  1493  0506  3064               	movlw	100
  1494  0507  00F3               	movwf	playNote@duration
  1495  0508  3003               	movlw	3
  1496  0509  00F4               	movwf	playNote@duration+1
  1497  050A  3012               	movlw	18
  1498  050B  318D  25B3  3184   	fcall	_playNote
  1499                           
  1500                           ;main.c: 1050:     playNote(0x00, 433);
  1501  050E  30B1               	movlw	177
  1502  050F  00F3               	movwf	playNote@duration
  1503  0510  3001               	movlw	1
  1504  0511  00F4               	movwf	playNote@duration+1
  1505  0512  3000               	movlw	0
  1506  0513  318D  25B3  3184   	fcall	_playNote
  1507                           
  1508                           ;main.c: 1051:     playNote(0x0B, 216);
  1509  0516  30D8               	movlw	216
  1510  0517  00F3               	movwf	playNote@duration
  1511  0518  3000               	movlw	0
  1512  0519  00F4               	movwf	playNote@duration+1
  1513  051A  300B               	movlw	11
  1514  051B  318D  25B3  3184   	fcall	_playNote
  1515                           
  1516                           ;main.c: 1052:     playNote(0x0D, 216);
  1517  051E  30D8               	movlw	216
  1518  051F  00F3               	movwf	playNote@duration
  1519  0520  3000               	movlw	0
  1520  0521  00F4               	movwf	playNote@duration+1
  1521  0522  300D               	movlw	13
  1522  0523  318D  25B3  3184   	fcall	_playNote
  1523                           
  1524                           ;main.c: 1053:     playNote(0x0E, 433);
  1525  0526  30B1               	movlw	177
  1526  0527  00F3               	movwf	playNote@duration
  1527  0528  3001               	movlw	1
  1528  0529  00F4               	movwf	playNote@duration+1
  1529  052A  300E               	movlw	14
  1530  052B  318D  25B3  3184   	fcall	_playNote
  1531                           
  1532                           ;main.c: 1054:     playNote(0x12, 433);
  1533  052E  30B1               	movlw	177
  1534  052F  00F3               	movwf	playNote@duration
  1535  0530  3001               	movlw	1
  1536  0531  00F4               	movwf	playNote@duration+1
  1537  0532  3012               	movlw	18
  1538  0533  318D  25B3  3184   	fcall	_playNote
  1539                           
  1540                           ;main.c: 1055:     playNote(0x17, 433);
  1541  0536  30B1               	movlw	177
  1542  0537  00F3               	movwf	playNote@duration
  1543  0538  3001               	movlw	1
  1544  0539  00F4               	movwf	playNote@duration+1
  1545  053A  3017               	movlw	23
  1546  053B  318D  25B3  3184   	fcall	_playNote
  1547                           
  1548                           ;main.c: 1056:     playNote(0x15, 433);
  1549  053E  30B1               	movlw	177
  1550  053F  00F3               	movwf	playNote@duration
  1551  0540  3001               	movlw	1
  1552  0541  00F4               	movwf	playNote@duration+1
  1553  0542  3015               	movlw	21
  1554  0543  318D  25B3  3184   	fcall	_playNote
  1555                           
  1556                           ;main.c: 1057:     playNote(0x12, 868);
  1557  0546  3064               	movlw	100
  1558  0547  00F3               	movwf	playNote@duration
  1559  0548  3003               	movlw	3
  1560  0549  00F4               	movwf	playNote@duration+1
  1561  054A  3012               	movlw	18
  1562  054B  318D  25B3  3184   	fcall	_playNote
  1563                           
  1564                           ;main.c: 1058:     playNote(0x00, 433);
  1565  054E  30B1               	movlw	177
  1566  054F  00F3               	movwf	playNote@duration
  1567  0550  3001               	movlw	1
  1568  0551  00F4               	movwf	playNote@duration+1
  1569  0552  3000               	movlw	0
  1570  0553  318D  25B3  3184   	fcall	_playNote
  1571                           
  1572                           ;main.c: 1059:     playNote(0x0B, 216);
  1573  0556  30D8               	movlw	216
  1574  0557  00F3               	movwf	playNote@duration
  1575  0558  3000               	movlw	0
  1576  0559  00F4               	movwf	playNote@duration+1
  1577  055A  300B               	movlw	11
  1578  055B  318D  25B3  3184   	fcall	_playNote
  1579                           
  1580                           ;main.c: 1060:     playNote(0x0D, 216);
  1581  055E  30D8               	movlw	216
  1582  055F  00F3               	movwf	playNote@duration
  1583  0560  3000               	movlw	0
  1584  0561  00F4               	movwf	playNote@duration+1
  1585  0562  300D               	movlw	13
  1586  0563  318D  25B3  3184   	fcall	_playNote
  1587                           
  1588                           ;main.c: 1061:     playNote(0x0E, 433);
  1589  0566  30B1               	movlw	177
  1590  0567  00F3               	movwf	playNote@duration
  1591  0568  3001               	movlw	1
  1592  0569  00F4               	movwf	playNote@duration+1
  1593  056A  300E               	movlw	14
  1594  056B  318D  25B3  3184   	fcall	_playNote
  1595                           
  1596                           ;main.c: 1062:     playNote(0x12, 433);
  1597  056E  30B1               	movlw	177
  1598  056F  00F3               	movwf	playNote@duration
  1599  0570  3001               	movlw	1
  1600  0571  00F4               	movwf	playNote@duration+1
  1601  0572  3012               	movlw	18
  1602  0573  318D  25B3  3184   	fcall	_playNote
  1603                           
  1604                           ;main.c: 1063:     playNote(0x13, 651);
  1605  0576  308B               	movlw	139
  1606  0577  00F3               	movwf	playNote@duration
  1607  0578  3002               	movlw	2
  1608  0579  00F4               	movwf	playNote@duration+1
  1609  057A  3013               	movlw	19
  1610  057B  318D  25B3  3184   	fcall	_playNote
  1611                           
  1612                           ;main.c: 1064:     playNote(0x12, 107);
  1613  057E  306B               	movlw	107
  1614  057F  00F3               	movwf	playNote@duration
  1615  0580  3000               	movlw	0
  1616  0581  00F4               	movwf	playNote@duration+1
  1617  0582  3012               	movlw	18
  1618  0583  318D  25B3  3184   	fcall	_playNote
  1619                           
  1620                           ;main.c: 1065:     playNote(0x10, 107);
  1621  0586  306B               	movlw	107
  1622  0587  00F3               	movwf	playNote@duration
  1623  0588  3000               	movlw	0
  1624  0589  00F4               	movwf	playNote@duration+1
  1625  058A  3010               	movlw	16
  1626  058B  318D  25B3  3184   	fcall	_playNote
  1627                           
  1628                           ;main.c: 1066:     playNote(0x12, 868);
  1629  058E  3064               	movlw	100
  1630  058F  00F3               	movwf	playNote@duration
  1631  0590  3003               	movlw	3
  1632  0591  00F4               	movwf	playNote@duration+1
  1633  0592  3012               	movlw	18
  1634  0593  318D  25B3  3184   	fcall	_playNote
  1635                           
  1636                           ;main.c: 1067:     playNote(0x13, 325);
  1637  0596  3045               	movlw	69
  1638  0597  00F3               	movwf	playNote@duration
  1639  0598  3001               	movlw	1
  1640  0599  00F4               	movwf	playNote@duration+1
  1641  059A  3013               	movlw	19
  1642  059B  318D  25B3  3184   	fcall	_playNote
  1643                           
  1644                           ;main.c: 1068:     playNote(0x12, 325);
  1645  059E  3045               	movlw	69
  1646  059F  00F3               	movwf	playNote@duration
  1647  05A0  3001               	movlw	1
  1648  05A1  00F4               	movwf	playNote@duration+1
  1649  05A2  3012               	movlw	18
  1650  05A3  318D  25B3  3184   	fcall	_playNote
  1651                           
  1652                           ;main.c: 1069:     playNote(0x13, 216);
  1653  05A6  30D8               	movlw	216
  1654  05A7  00F3               	movwf	playNote@duration
  1655  05A8  3000               	movlw	0
  1656  05A9  00F4               	movwf	playNote@duration+1
  1657  05AA  3013               	movlw	19
  1658  05AB  318D  25B3  3184   	fcall	_playNote
  1659                           
  1660                           ;main.c: 1070:     playNote(0x15, 651);
  1661  05AE  308B               	movlw	139
  1662  05AF  00F3               	movwf	playNote@duration
  1663  05B0  3002               	movlw	2
  1664  05B1  00F4               	movwf	playNote@duration+1
  1665  05B2  3015               	movlw	21
  1666  05B3  318D  25B3  3184   	fcall	_playNote
  1667                           
  1668                           ;main.c: 1071:     playNote(0x12, 98);
  1669  05B6  3062               	movlw	98
  1670  05B7  00F3               	movwf	playNote@duration
  1671  05B8  3000               	movlw	0
  1672  05B9  00F4               	movwf	playNote@duration+1
  1673  05BA  3012               	movlw	18
  1674  05BB  318D  25B3  3184   	fcall	_playNote
  1675                           
  1676                           ;main.c: 1072:     playNote(0x10, 107);
  1677  05BE  306B               	movlw	107
  1678  05BF  00F3               	movwf	playNote@duration
  1679  05C0  3000               	movlw	0
  1680  05C1  00F4               	movwf	playNote@duration+1
  1681  05C2  3010               	movlw	16
  1682  05C3  318D  25B3  3184   	fcall	_playNote
  1683                           
  1684                           ;main.c: 1073:     playNote(0x10, 1738);
  1685  05C6  30CA               	movlw	202
  1686  05C7  00F3               	movwf	playNote@duration
  1687  05C8  3006               	movlw	6
  1688  05C9  00F4               	movwf	playNote@duration+1
  1689  05CA  3010               	movlw	16
  1690  05CB  318D  25B3  3184   	fcall	_playNote
  1691                           
  1692                           ;main.c: 1074:     playNote(0x00, 433);
  1693  05CE  30B1               	movlw	177
  1694  05CF  00F3               	movwf	playNote@duration
  1695  05D0  3001               	movlw	1
  1696  05D1  00F4               	movwf	playNote@duration+1
  1697  05D2  3000               	movlw	0
  1698  05D3  318D  25B3  3184   	fcall	_playNote
  1699                           
  1700                           ;main.c: 1075:     playNote(0x14, 216);
  1701  05D6  30D8               	movlw	216
  1702  05D7  00F3               	movwf	playNote@duration
  1703  05D8  3000               	movlw	0
  1704  05D9  00F4               	movwf	playNote@duration+1
  1705  05DA  3014               	movlw	20
  1706  05DB  318D  25B3  3184   	fcall	_playNote
  1707                           
  1708                           ;main.c: 1076:     playNote(0x16, 216);
  1709  05DE  30D8               	movlw	216
  1710  05DF  00F3               	movwf	playNote@duration
  1711  05E0  3000               	movlw	0
  1712  05E1  00F4               	movwf	playNote@duration+1
  1713  05E2  3016               	movlw	22
  1714  05E3  318D  25B3  3184   	fcall	_playNote
  1715                           
  1716                           ;main.c: 1077:     playNote(0x17, 433);
  1717  05E6  30B1               	movlw	177
  1718  05E7  00F3               	movwf	playNote@duration
  1719  05E8  3001               	movlw	1
  1720  05E9  00F4               	movwf	playNote@duration+1
  1721  05EA  3017               	movlw	23
  1722  05EB  318D  25B3  3184   	fcall	_playNote
  1723                           
  1724                           ;main.c: 1078:     playNote(0x1B, 433);
  1725  05EE  30B1               	movlw	177
  1726  05EF  00F3               	movwf	playNote@duration
  1727  05F0  3001               	movlw	1
  1728  05F1  00F4               	movwf	playNote@duration+1
  1729  05F2  301B               	movlw	27
  1730  05F3  318D  25B3  3184   	fcall	_playNote
  1731                           
  1732                           ;main.c: 1079:     playNote(0x1C, 651);
  1733  05F6  308B               	movlw	139
  1734  05F7  00F3               	movwf	playNote@duration
  1735  05F8  3002               	movlw	2
  1736  05F9  00F4               	movwf	playNote@duration+1
  1737  05FA  301C               	movlw	28
  1738  05FB  318D  25B3  3184   	fcall	_playNote
  1739                           
  1740                           ;main.c: 1080:     playNote(0x1B, 107);
  1741  05FE  306B               	movlw	107
  1742  05FF  00F3               	movwf	playNote@duration
  1743  0600  3000               	movlw	0
  1744  0601  00F4               	movwf	playNote@duration+1
  1745  0602  301B               	movlw	27
  1746  0603  318D  25B3  3184   	fcall	_playNote
  1747                           
  1748                           ;main.c: 1081:     playNote(0x19, 107);
  1749  0606  306B               	movlw	107
  1750  0607  00F3               	movwf	playNote@duration
  1751  0608  3000               	movlw	0
  1752  0609  00F4               	movwf	playNote@duration+1
  1753  060A  3019               	movlw	25
  1754  060B  318D  25B3  3184   	fcall	_playNote
  1755                           
  1756                           ;main.c: 1082:     playNote(0x1B, 868);
  1757  060E  3064               	movlw	100
  1758  060F  00F3               	movwf	playNote@duration
  1759  0610  3003               	movlw	3
  1760  0611  00F4               	movwf	playNote@duration+1
  1761  0612  301B               	movlw	27
  1762  0613  318D  25B3  3184   	fcall	_playNote
  1763                           
  1764                           ;main.c: 1083:     playNote(0x1C, 325);
  1765  0616  3045               	movlw	69
  1766  0617  00F3               	movwf	playNote@duration
  1767  0618  3001               	movlw	1
  1768  0619  00F4               	movwf	playNote@duration+1
  1769  061A  301C               	movlw	28
  1770  061B  318D  25B3  3184   	fcall	_playNote
  1771                           
  1772                           ;main.c: 1084:     playNote(0x1B, 325);
  1773  061E  3045               	movlw	69
  1774  061F  00F3               	movwf	playNote@duration
  1775  0620  3001               	movlw	1
  1776  0621  00F4               	movwf	playNote@duration+1
  1777  0622  301B               	movlw	27
  1778  0623  318D  25B3  3184   	fcall	_playNote
  1779                           
  1780                           ;main.c: 1085:     playNote(0x1C, 216);
  1781  0626  30D8               	movlw	216
  1782  0627  00F3               	movwf	playNote@duration
  1783  0628  3000               	movlw	0
  1784  0629  00F4               	movwf	playNote@duration+1
  1785  062A  301C               	movlw	28
  1786  062B  318D  25B3  3184   	fcall	_playNote
  1787                           
  1788                           ;main.c: 1086:     playNote(0x1E, 651);
  1789  062E  308B               	movlw	139
  1790  062F  00F3               	movwf	playNote@duration
  1791  0630  3002               	movlw	2
  1792  0631  00F4               	movwf	playNote@duration+1
  1793  0632  301E               	movlw	30
  1794  0633  318D  25B3  3184   	fcall	_playNote
  1795                           
  1796                           ;main.c: 1087:     playNote(0x20, 107);
  1797  0636  306B               	movlw	107
  1798  0637  00F3               	movwf	playNote@duration
  1799  0638  3000               	movlw	0
  1800  0639  00F4               	movwf	playNote@duration+1
  1801  063A  3020               	movlw	32
  1802  063B  318D  25B3  3184   	fcall	_playNote
  1803                           
  1804                           ;main.c: 1088:     playNote(0x22, 107);
  1805  063E  306B               	movlw	107
  1806  063F  00F3               	movwf	playNote@duration
  1807  0640  3000               	movlw	0
  1808  0641  00F4               	movwf	playNote@duration+1
  1809  0642  3022               	movlw	34
  1810  0643  318D  25B3  3184   	fcall	_playNote
  1811                           
  1812                           ;main.c: 1089:     playNote(0x23, 1738);
  1813  0646  30CA               	movlw	202
  1814  0647  00F3               	movwf	playNote@duration
  1815  0648  3006               	movlw	6
  1816  0649  00F4               	movwf	playNote@duration+1
  1817  064A  3023               	movlw	35
  1818  064B  318D  25B3  3184   	fcall	_playNote
  1819  064E                     l287:
  1820  064E  0008               	return
  1821  064F                     __end_of_sheRa:
  1822                           
  1823                           	psect	text4
  1824  00E5                     __ptext4:	
  1825 ;; *************** function _imperialMarch *****************
  1826 ;; Defined at:
  1827 ;;		line 660 in file "main.c"
  1828 ;; Parameters:    Size  Location     Type
  1829 ;;		None
  1830 ;; Auto vars:     Size  Location     Type
  1831 ;;		None
  1832 ;; Return value:  Size  Location     Type
  1833 ;;                  1    wreg      void 
  1834 ;; Registers used:
  1835 ;;		wreg, fsr0l, fsr0h, status,2, status,0, pclath, cstack
  1836 ;; Tracked objects:
  1837 ;;		On entry : 0/0
  1838 ;;		On exit  : 0/0
  1839 ;;		Unchanged: 0/0
  1840 ;; Data sizes:     COMMON   BANK0   BANK1   BANK2   BANK3   BANK4   BANK5   BANK6
  1841 ;;      Params:         0       0       0       0       0       0       0       0
  1842 ;;      Locals:         0       0       0       0       0       0       0       0
  1843 ;;      Temps:          0       0       0       0       0       0       0       0
  1844 ;;      Totals:         0       0       0       0       0       0       0       0
  1845 ;;Total ram usage:        0 bytes
  1846 ;; Hardware stack levels used: 1
  1847 ;; Hardware stack levels required when called: 3
  1848 ;; This function calls:
  1849 ;;		_playNote
  1850 ;; This function is called by:
  1851 ;;		_doTheArc
  1852 ;; This function uses a non-reentrant model
  1853 ;;
  1854                           
  1855                           
  1856                           ;psect for function _imperialMarch
  1857  00E5                     _imperialMarch:
  1858  00E5                     l1277:	
  1859                           ;incstack = 0
  1860                           ; Regs used in _imperialMarch: [wreg-fsr0h+status,2+status,0+pclath+cstack]
  1861                           
  1862                           
  1863                           ;main.c: 662:     playNote(0x0A, 250);
  1864  00E5  30FA               	movlw	250
  1865  00E6  00F3               	movwf	playNote@duration
  1866  00E7  3000               	movlw	0
  1867  00E8  00F4               	movwf	playNote@duration+1
  1868  00E9  300A               	movlw	10
  1869  00EA  318D  25B3  3180   	fcall	_playNote
  1870                           
  1871                           ;main.c: 664:     playNote(0x00, 750);
  1872  00ED  30EE               	movlw	238
  1873  00EE  00F3               	movwf	playNote@duration
  1874  00EF  3002               	movlw	2
  1875  00F0  00F4               	movwf	playNote@duration+1
  1876  00F1  3000               	movlw	0
  1877  00F2  318D  25B3  3180   	fcall	_playNote
  1878                           
  1879                           ;main.c: 666:     playNote(0x0A, 250);
  1880  00F5  30FA               	movlw	250
  1881  00F6  00F3               	movwf	playNote@duration
  1882  00F7  3000               	movlw	0
  1883  00F8  00F4               	movwf	playNote@duration+1
  1884  00F9  300A               	movlw	10
  1885  00FA  318D  25B3  3180   	fcall	_playNote
  1886                           
  1887                           ;main.c: 668:     playNote(0x00, 750);
  1888  00FD  30EE               	movlw	238
  1889  00FE  00F3               	movwf	playNote@duration
  1890  00FF  3002               	movlw	2
  1891  0100  00F4               	movwf	playNote@duration+1
  1892  0101  3000               	movlw	0
  1893  0102  318D  25B3  3180   	fcall	_playNote
  1894                           
  1895                           ;main.c: 670:     playNote(0x0A, 250);
  1896  0105  30FA               	movlw	250
  1897  0106  00F3               	movwf	playNote@duration
  1898  0107  3000               	movlw	0
  1899  0108  00F4               	movwf	playNote@duration+1
  1900  0109  300A               	movlw	10
  1901  010A  318D  25B3  3180   	fcall	_playNote
  1902                           
  1903                           ;main.c: 672:     playNote(0x00, 750);
  1904  010D  30EE               	movlw	238
  1905  010E  00F3               	movwf	playNote@duration
  1906  010F  3002               	movlw	2
  1907  0110  00F4               	movwf	playNote@duration+1
  1908  0111  3000               	movlw	0
  1909  0112  318D  25B3  3180   	fcall	_playNote
  1910                           
  1911                           ;main.c: 674:     playNote(0x0A, 250);
  1912  0115  30FA               	movlw	250
  1913  0116  00F3               	movwf	playNote@duration
  1914  0117  3000               	movlw	0
  1915  0118  00F4               	movwf	playNote@duration+1
  1916  0119  300A               	movlw	10
  1917  011A  318D  25B3  3180   	fcall	_playNote
  1918                           
  1919                           ;main.c: 675:     playNote(0x00, 75);
  1920  011D  304B               	movlw	75
  1921  011E  00F3               	movwf	playNote@duration
  1922  011F  3000               	movlw	0
  1923  0120  00F4               	movwf	playNote@duration+1
  1924  0121  3000               	movlw	0
  1925  0122  318D  25B3  3180   	fcall	_playNote
  1926                           
  1927                           ;main.c: 677:     playNote(0x0D, 125);
  1928  0125  307D               	movlw	125
  1929  0126  00F3               	movwf	playNote@duration
  1930  0127  3000               	movlw	0
  1931  0128  00F4               	movwf	playNote@duration+1
  1932  0129  300D               	movlw	13
  1933  012A  318D  25B3  3180   	fcall	_playNote
  1934                           
  1935                           ;main.c: 678:     playNote(0x00, 100);
  1936  012D  3064               	movlw	100
  1937  012E  00F3               	movwf	playNote@duration
  1938  012F  3000               	movlw	0
  1939  0130  00F4               	movwf	playNote@duration+1
  1940  0131  3000               	movlw	0
  1941  0132  318D  25B3  3180   	fcall	_playNote
  1942                           
  1943                           ;main.c: 679:     playNote(0x0D, 125);
  1944  0135  307D               	movlw	125
  1945  0136  00F3               	movwf	playNote@duration
  1946  0137  3000               	movlw	0
  1947  0138  00F4               	movwf	playNote@duration+1
  1948  0139  300D               	movlw	13
  1949  013A  318D  25B3  3180   	fcall	_playNote
  1950                           
  1951                           ;main.c: 680:     playNote(0x00, 100);
  1952  013D  3064               	movlw	100
  1953  013E  00F3               	movwf	playNote@duration
  1954  013F  3000               	movlw	0
  1955  0140  00F4               	movwf	playNote@duration+1
  1956  0141  3000               	movlw	0
  1957  0142  318D  25B3  3180   	fcall	_playNote
  1958                           
  1959                           ;main.c: 681:     playNote(0x0D, 125);
  1960  0145  307D               	movlw	125
  1961  0146  00F3               	movwf	playNote@duration
  1962  0147  3000               	movlw	0
  1963  0148  00F4               	movwf	playNote@duration+1
  1964  0149  300D               	movlw	13
  1965  014A  318D  25B3  3180   	fcall	_playNote
  1966                           
  1967                           ;main.c: 682:     playNote(0x00, 100);
  1968  014D  3064               	movlw	100
  1969  014E  00F3               	movwf	playNote@duration
  1970  014F  3000               	movlw	0
  1971  0150  00F4               	movwf	playNote@duration+1
  1972  0151  3000               	movlw	0
  1973  0152  318D  25B3  3180   	fcall	_playNote
  1974                           
  1975                           ;main.c: 684:     playNote(0x0A, 250);
  1976  0155  30FA               	movlw	250
  1977  0156  00F3               	movwf	playNote@duration
  1978  0157  3000               	movlw	0
  1979  0158  00F4               	movwf	playNote@duration+1
  1980  0159  300A               	movlw	10
  1981  015A  318D  25B3  3180   	fcall	_playNote
  1982                           
  1983                           ;main.c: 686:     playNote(0x00, 750);
  1984  015D  30EE               	movlw	238
  1985  015E  00F3               	movwf	playNote@duration
  1986  015F  3002               	movlw	2
  1987  0160  00F4               	movwf	playNote@duration+1
  1988  0161  3000               	movlw	0
  1989  0162  318D  25B3  3180   	fcall	_playNote
  1990                           
  1991                           ;main.c: 688:     playNote(0x0A, 250);
  1992  0165  30FA               	movlw	250
  1993  0166  00F3               	movwf	playNote@duration
  1994  0167  3000               	movlw	0
  1995  0168  00F4               	movwf	playNote@duration+1
  1996  0169  300A               	movlw	10
  1997  016A  318D  25B3  3180   	fcall	_playNote
  1998                           
  1999                           ;main.c: 690:     playNote(0x00, 750);
  2000  016D  30EE               	movlw	238
  2001  016E  00F3               	movwf	playNote@duration
  2002  016F  3002               	movlw	2
  2003  0170  00F4               	movwf	playNote@duration+1
  2004  0171  3000               	movlw	0
  2005  0172  318D  25B3  3180   	fcall	_playNote
  2006                           
  2007                           ;main.c: 692:     playNote(0x0A, 250);
  2008  0175  30FA               	movlw	250
  2009  0176  00F3               	movwf	playNote@duration
  2010  0177  3000               	movlw	0
  2011  0178  00F4               	movwf	playNote@duration+1
  2012  0179  300A               	movlw	10
  2013  017A  318D  25B3  3180   	fcall	_playNote
  2014                           
  2015                           ;main.c: 694:     playNote(0x00, 750);
  2016  017D  30EE               	movlw	238
  2017  017E  00F3               	movwf	playNote@duration
  2018  017F  3002               	movlw	2
  2019  0180  00F4               	movwf	playNote@duration+1
  2020  0181  3000               	movlw	0
  2021  0182  318D  25B3  3180   	fcall	_playNote
  2022                           
  2023                           ;main.c: 696:     playNote(0x0A, 250);
  2024  0185  30FA               	movlw	250
  2025  0186  00F3               	movwf	playNote@duration
  2026  0187  3000               	movlw	0
  2027  0188  00F4               	movwf	playNote@duration+1
  2028  0189  300A               	movlw	10
  2029  018A  318D  25B3  3180   	fcall	_playNote
  2030                           
  2031                           ;main.c: 697:     playNote(0x00, 75);
  2032  018D  304B               	movlw	75
  2033  018E  00F3               	movwf	playNote@duration
  2034  018F  3000               	movlw	0
  2035  0190  00F4               	movwf	playNote@duration+1
  2036  0191  3000               	movlw	0
  2037  0192  318D  25B3  3180   	fcall	_playNote
  2038                           
  2039                           ;main.c: 699:     playNote(0x0D, 125);
  2040  0195  307D               	movlw	125
  2041  0196  00F3               	movwf	playNote@duration
  2042  0197  3000               	movlw	0
  2043  0198  00F4               	movwf	playNote@duration+1
  2044  0199  300D               	movlw	13
  2045  019A  318D  25B3  3180   	fcall	_playNote
  2046                           
  2047                           ;main.c: 700:     playNote(0x00, 100);
  2048  019D  3064               	movlw	100
  2049  019E  00F3               	movwf	playNote@duration
  2050  019F  3000               	movlw	0
  2051  01A0  00F4               	movwf	playNote@duration+1
  2052  01A1  3000               	movlw	0
  2053  01A2  318D  25B3  3180   	fcall	_playNote
  2054                           
  2055                           ;main.c: 701:     playNote(0x0D, 125);
  2056  01A5  307D               	movlw	125
  2057  01A6  00F3               	movwf	playNote@duration
  2058  01A7  3000               	movlw	0
  2059  01A8  00F4               	movwf	playNote@duration+1
  2060  01A9  300D               	movlw	13
  2061  01AA  318D  25B3  3180   	fcall	_playNote
  2062                           
  2063                           ;main.c: 702:     playNote(0x00, 100);
  2064  01AD  3064               	movlw	100
  2065  01AE  00F3               	movwf	playNote@duration
  2066  01AF  3000               	movlw	0
  2067  01B0  00F4               	movwf	playNote@duration+1
  2068  01B1  3000               	movlw	0
  2069  01B2  318D  25B3  3180   	fcall	_playNote
  2070                           
  2071                           ;main.c: 703:     playNote(0x0D, 125);
  2072  01B5  307D               	movlw	125
  2073  01B6  00F3               	movwf	playNote@duration
  2074  01B7  3000               	movlw	0
  2075  01B8  00F4               	movwf	playNote@duration+1
  2076  01B9  300D               	movlw	13
  2077  01BA  318D  25B3  3180   	fcall	_playNote
  2078                           
  2079                           ;main.c: 704:     playNote(0x00, 100);
  2080  01BD  3064               	movlw	100
  2081  01BE  00F3               	movwf	playNote@duration
  2082  01BF  3000               	movlw	0
  2083  01C0  00F4               	movwf	playNote@duration+1
  2084  01C1  3000               	movlw	0
  2085  01C2  318D  25B3  3180   	fcall	_playNote
  2086                           
  2087                           ;main.c: 707:     playNote(0x0A, 250);
  2088  01C5  30FA               	movlw	250
  2089  01C6  00F3               	movwf	playNote@duration
  2090  01C7  3000               	movlw	0
  2091  01C8  00F4               	movwf	playNote@duration+1
  2092  01C9  300A               	movlw	10
  2093  01CA  318D  25B3  3180   	fcall	_playNote
  2094                           
  2095                           ;main.c: 709:     playNote(0x00, 750);
  2096  01CD  30EE               	movlw	238
  2097  01CE  00F3               	movwf	playNote@duration
  2098  01CF  3002               	movlw	2
  2099  01D0  00F4               	movwf	playNote@duration+1
  2100  01D1  3000               	movlw	0
  2101  01D2  318D  25B3  3180   	fcall	_playNote
  2102                           
  2103                           ;main.c: 711:     playNote(0x0A, 250);
  2104  01D5  30FA               	movlw	250
  2105  01D6  00F3               	movwf	playNote@duration
  2106  01D7  3000               	movlw	0
  2107  01D8  00F4               	movwf	playNote@duration+1
  2108  01D9  300A               	movlw	10
  2109  01DA  318D  25B3  3180   	fcall	_playNote
  2110                           
  2111                           ;main.c: 713:     playNote(0x00, 750);
  2112  01DD  30EE               	movlw	238
  2113  01DE  00F3               	movwf	playNote@duration
  2114  01DF  3002               	movlw	2
  2115  01E0  00F4               	movwf	playNote@duration+1
  2116  01E1  3000               	movlw	0
  2117  01E2  318D  25B3  3180   	fcall	_playNote
  2118                           
  2119                           ;main.c: 715:     playNote(0x0A, 250);
  2120  01E5  30FA               	movlw	250
  2121  01E6  00F3               	movwf	playNote@duration
  2122  01E7  3000               	movlw	0
  2123  01E8  00F4               	movwf	playNote@duration+1
  2124  01E9  300A               	movlw	10
  2125  01EA  318D  25B3  3180   	fcall	_playNote
  2126                           
  2127                           ;main.c: 717:     playNote(0x00, 750);
  2128  01ED  30EE               	movlw	238
  2129  01EE  00F3               	movwf	playNote@duration
  2130  01EF  3002               	movlw	2
  2131  01F0  00F4               	movwf	playNote@duration+1
  2132  01F1  3000               	movlw	0
  2133  01F2  318D  25B3  3180   	fcall	_playNote
  2134                           
  2135                           ;main.c: 719:     playNote(0x0A, 250);
  2136  01F5  30FA               	movlw	250
  2137  01F6  00F3               	movwf	playNote@duration
  2138  01F7  3000               	movlw	0
  2139  01F8  00F4               	movwf	playNote@duration+1
  2140  01F9  300A               	movlw	10
  2141  01FA  318D  25B3  3180   	fcall	_playNote
  2142                           
  2143                           ;main.c: 720:     playNote(0x00, 75);
  2144  01FD  304B               	movlw	75
  2145  01FE  00F3               	movwf	playNote@duration
  2146  01FF  3000               	movlw	0
  2147  0200  00F4               	movwf	playNote@duration+1
  2148  0201  3000               	movlw	0
  2149  0202  318D  25B3  3180   	fcall	_playNote
  2150                           
  2151                           ;main.c: 722:     playNote(0x0D, 125);
  2152  0205  307D               	movlw	125
  2153  0206  00F3               	movwf	playNote@duration
  2154  0207  3000               	movlw	0
  2155  0208  00F4               	movwf	playNote@duration+1
  2156  0209  300D               	movlw	13
  2157  020A  318D  25B3  3180   	fcall	_playNote
  2158                           
  2159                           ;main.c: 723:     playNote(0x00, 100);
  2160  020D  3064               	movlw	100
  2161  020E  00F3               	movwf	playNote@duration
  2162  020F  3000               	movlw	0
  2163  0210  00F4               	movwf	playNote@duration+1
  2164  0211  3000               	movlw	0
  2165  0212  318D  25B3  3180   	fcall	_playNote
  2166                           
  2167                           ;main.c: 724:     playNote(0x0D, 125);
  2168  0215  307D               	movlw	125
  2169  0216  00F3               	movwf	playNote@duration
  2170  0217  3000               	movlw	0
  2171  0218  00F4               	movwf	playNote@duration+1
  2172  0219  300D               	movlw	13
  2173  021A  318D  25B3  3180   	fcall	_playNote
  2174                           
  2175                           ;main.c: 725:     playNote(0x00, 100);
  2176  021D  3064               	movlw	100
  2177  021E  00F3               	movwf	playNote@duration
  2178  021F  3000               	movlw	0
  2179  0220  00F4               	movwf	playNote@duration+1
  2180  0221  3000               	movlw	0
  2181  0222  318D  25B3  3180   	fcall	_playNote
  2182                           
  2183                           ;main.c: 726:     playNote(0x0D, 125);
  2184  0225  307D               	movlw	125
  2185  0226  00F3               	movwf	playNote@duration
  2186  0227  3000               	movlw	0
  2187  0228  00F4               	movwf	playNote@duration+1
  2188  0229  300D               	movlw	13
  2189  022A  318D  25B3  3180   	fcall	_playNote
  2190                           
  2191                           ;main.c: 727:     playNote(0x00, 100);
  2192  022D  3064               	movlw	100
  2193  022E  00F3               	movwf	playNote@duration
  2194  022F  3000               	movlw	0
  2195  0230  00F4               	movwf	playNote@duration+1
  2196  0231  3000               	movlw	0
  2197  0232  318D  25B3  3180   	fcall	_playNote
  2198                           
  2199                           ;main.c: 729:     playNote(0x0A, 250);
  2200  0235  30FA               	movlw	250
  2201  0236  00F3               	movwf	playNote@duration
  2202  0237  3000               	movlw	0
  2203  0238  00F4               	movwf	playNote@duration+1
  2204  0239  300A               	movlw	10
  2205  023A  318D  25B3  3180   	fcall	_playNote
  2206                           
  2207                           ;main.c: 731:     playNote(0x00, 750);
  2208  023D  30EE               	movlw	238
  2209  023E  00F3               	movwf	playNote@duration
  2210  023F  3002               	movlw	2
  2211  0240  00F4               	movwf	playNote@duration+1
  2212  0241  3000               	movlw	0
  2213  0242  318D  25B3  3180   	fcall	_playNote
  2214                           
  2215                           ;main.c: 733:     playNote(0x0A, 250);
  2216  0245  30FA               	movlw	250
  2217  0246  00F3               	movwf	playNote@duration
  2218  0247  3000               	movlw	0
  2219  0248  00F4               	movwf	playNote@duration+1
  2220  0249  300A               	movlw	10
  2221  024A  318D  25B3  3180   	fcall	_playNote
  2222                           
  2223                           ;main.c: 735:     playNote(0x00, 750);
  2224  024D  30EE               	movlw	238
  2225  024E  00F3               	movwf	playNote@duration
  2226  024F  3002               	movlw	2
  2227  0250  00F4               	movwf	playNote@duration+1
  2228  0251  3000               	movlw	0
  2229  0252  318D  25B3  3180   	fcall	_playNote
  2230                           
  2231                           ;main.c: 737:     playNote(0x0A, 250);
  2232  0255  30FA               	movlw	250
  2233  0256  00F3               	movwf	playNote@duration
  2234  0257  3000               	movlw	0
  2235  0258  00F4               	movwf	playNote@duration+1
  2236  0259  300A               	movlw	10
  2237  025A  318D  25B3  3180   	fcall	_playNote
  2238                           
  2239                           ;main.c: 739:     playNote(0x00, 750);
  2240  025D  30EE               	movlw	238
  2241  025E  00F3               	movwf	playNote@duration
  2242  025F  3002               	movlw	2
  2243  0260  00F4               	movwf	playNote@duration+1
  2244  0261  3000               	movlw	0
  2245  0262  318D  25B3  3180   	fcall	_playNote
  2246                           
  2247                           ;main.c: 741:     playNote(0x0A, 250);
  2248  0265  30FA               	movlw	250
  2249  0266  00F3               	movwf	playNote@duration
  2250  0267  3000               	movlw	0
  2251  0268  00F4               	movwf	playNote@duration+1
  2252  0269  300A               	movlw	10
  2253  026A  318D  25B3  3180   	fcall	_playNote
  2254                           
  2255                           ;main.c: 742:     playNote(0x00, 75);
  2256  026D  304B               	movlw	75
  2257  026E  00F3               	movwf	playNote@duration
  2258  026F  3000               	movlw	0
  2259  0270  00F4               	movwf	playNote@duration+1
  2260  0271  3000               	movlw	0
  2261  0272  318D  25B3  3180   	fcall	_playNote
  2262                           
  2263                           ;main.c: 744:     playNote(0x09, 125);
  2264  0275  307D               	movlw	125
  2265  0276  00F3               	movwf	playNote@duration
  2266  0277  3000               	movlw	0
  2267  0278  00F4               	movwf	playNote@duration+1
  2268  0279  3009               	movlw	9
  2269  027A  318D  25B3  3180   	fcall	_playNote
  2270                           
  2271                           ;main.c: 745:     playNote(0x00, 100);
  2272  027D  3064               	movlw	100
  2273  027E  00F3               	movwf	playNote@duration
  2274  027F  3000               	movlw	0
  2275  0280  00F4               	movwf	playNote@duration+1
  2276  0281  3000               	movlw	0
  2277  0282  318D  25B3  3180   	fcall	_playNote
  2278                           
  2279                           ;main.c: 746:     playNote(0x09, 125);
  2280  0285  307D               	movlw	125
  2281  0286  00F3               	movwf	playNote@duration
  2282  0287  3000               	movlw	0
  2283  0288  00F4               	movwf	playNote@duration+1
  2284  0289  3009               	movlw	9
  2285  028A  318D  25B3  3180   	fcall	_playNote
  2286                           
  2287                           ;main.c: 747:     playNote(0x00, 100);
  2288  028D  3064               	movlw	100
  2289  028E  00F3               	movwf	playNote@duration
  2290  028F  3000               	movlw	0
  2291  0290  00F4               	movwf	playNote@duration+1
  2292  0291  3000               	movlw	0
  2293  0292  318D  25B3  3180   	fcall	_playNote
  2294                           
  2295                           ;main.c: 748:     playNote(0x09, 125);
  2296  0295  307D               	movlw	125
  2297  0296  00F3               	movwf	playNote@duration
  2298  0297  3000               	movlw	0
  2299  0298  00F4               	movwf	playNote@duration+1
  2300  0299  3009               	movlw	9
  2301  029A  318D  25B3  3180   	fcall	_playNote
  2302                           
  2303                           ;main.c: 749:     playNote(0x00, 100);
  2304  029D  3064               	movlw	100
  2305  029E  00F3               	movwf	playNote@duration
  2306  029F  3000               	movlw	0
  2307  02A0  00F4               	movwf	playNote@duration+1
  2308  02A1  3000               	movlw	0
  2309  02A2  318D  25B3  3180   	fcall	_playNote
  2310                           
  2311                           ;main.c: 751:     playNote(0x16, 500);
  2312  02A5  30F4               	movlw	244
  2313  02A6  00F3               	movwf	playNote@duration
  2314  02A7  3001               	movlw	1
  2315  02A8  00F4               	movwf	playNote@duration+1
  2316  02A9  3016               	movlw	22
  2317  02AA  318D  25B3  3180   	fcall	_playNote
  2318                           
  2319                           ;main.c: 752:     playNote(0x00, 500);
  2320  02AD  30F4               	movlw	244
  2321  02AE  00F3               	movwf	playNote@duration
  2322  02AF  3001               	movlw	1
  2323  02B0  00F4               	movwf	playNote@duration+1
  2324  02B1  3000               	movlw	0
  2325  02B2  318D  25B3  3180   	fcall	_playNote
  2326                           
  2327                           ;main.c: 754:     playNote(0x16, 500);
  2328  02B5  30F4               	movlw	244
  2329  02B6  00F3               	movwf	playNote@duration
  2330  02B7  3001               	movlw	1
  2331  02B8  00F4               	movwf	playNote@duration+1
  2332  02B9  3016               	movlw	22
  2333  02BA  318D  25B3  3180   	fcall	_playNote
  2334                           
  2335                           ;main.c: 755:     playNote(0x00, 500);
  2336  02BD  30F4               	movlw	244
  2337  02BE  00F3               	movwf	playNote@duration
  2338  02BF  3001               	movlw	1
  2339  02C0  00F4               	movwf	playNote@duration+1
  2340  02C1  3000               	movlw	0
  2341  02C2  318D  25B3  3180   	fcall	_playNote
  2342                           
  2343                           ;main.c: 757:     playNote(0x16, 500);
  2344  02C5  30F4               	movlw	244
  2345  02C6  00F3               	movwf	playNote@duration
  2346  02C7  3001               	movlw	1
  2347  02C8  00F4               	movwf	playNote@duration+1
  2348  02C9  3016               	movlw	22
  2349  02CA  318D  25B3  3180   	fcall	_playNote
  2350                           
  2351                           ;main.c: 758:     playNote(0x00, 500);
  2352  02CD  30F4               	movlw	244
  2353  02CE  00F3               	movwf	playNote@duration
  2354  02CF  3001               	movlw	1
  2355  02D0  00F4               	movwf	playNote@duration+1
  2356  02D1  3000               	movlw	0
  2357  02D2  318D  25B3  3180   	fcall	_playNote
  2358                           
  2359                           ;main.c: 760:     playNote(0x12, 500);
  2360  02D5  30F4               	movlw	244
  2361  02D6  00F3               	movwf	playNote@duration
  2362  02D7  3001               	movlw	1
  2363  02D8  00F4               	movwf	playNote@duration+1
  2364  02D9  3012               	movlw	18
  2365  02DA  318D  25B3  3180   	fcall	_playNote
  2366                           
  2367                           ;main.c: 761:     playNote(0x00, 250);
  2368  02DD  30FA               	movlw	250
  2369  02DE  00F3               	movwf	playNote@duration
  2370  02DF  3000               	movlw	0
  2371  02E0  00F4               	movwf	playNote@duration+1
  2372  02E1  3000               	movlw	0
  2373  02E2  318D  25B3  3180   	fcall	_playNote
  2374                           
  2375                           ;main.c: 763:     playNote(0x19, 250);
  2376  02E5  30FA               	movlw	250
  2377  02E6  00F3               	movwf	playNote@duration
  2378  02E7  3000               	movlw	0
  2379  02E8  00F4               	movwf	playNote@duration+1
  2380  02E9  3019               	movlw	25
  2381  02EA  318D  25B3  3180   	fcall	_playNote
  2382                           
  2383                           ;main.c: 764:     playNote(0x16, 500);
  2384  02ED  30F4               	movlw	244
  2385  02EE  00F3               	movwf	playNote@duration
  2386  02EF  3001               	movlw	1
  2387  02F0  00F4               	movwf	playNote@duration+1
  2388  02F1  3016               	movlw	22
  2389  02F2  318D  25B3  3180   	fcall	_playNote
  2390                           
  2391                           ;main.c: 765:     playNote(0x00, 500);
  2392  02F5  30F4               	movlw	244
  2393  02F6  00F3               	movwf	playNote@duration
  2394  02F7  3001               	movlw	1
  2395  02F8  00F4               	movwf	playNote@duration+1
  2396  02F9  3000               	movlw	0
  2397  02FA  318D  25B3  3180   	fcall	_playNote
  2398                           
  2399                           ;main.c: 767:     playNote(0x12, 500);
  2400  02FD  30F4               	movlw	244
  2401  02FE  00F3               	movwf	playNote@duration
  2402  02FF  3001               	movlw	1
  2403  0300  00F4               	movwf	playNote@duration+1
  2404  0301  3012               	movlw	18
  2405  0302  318D  25B3  3180   	fcall	_playNote
  2406                           
  2407                           ;main.c: 768:     playNote(0x00, 250);
  2408  0305  30FA               	movlw	250
  2409  0306  00F3               	movwf	playNote@duration
  2410  0307  3000               	movlw	0
  2411  0308  00F4               	movwf	playNote@duration+1
  2412  0309  3000               	movlw	0
  2413  030A  318D  25B3  3180   	fcall	_playNote
  2414                           
  2415                           ;main.c: 770:     playNote(0x19, 250);
  2416  030D  30FA               	movlw	250
  2417  030E  00F3               	movwf	playNote@duration
  2418  030F  3000               	movlw	0
  2419  0310  00F4               	movwf	playNote@duration+1
  2420  0311  3019               	movlw	25
  2421  0312  318D  25B3  3180   	fcall	_playNote
  2422                           
  2423                           ;main.c: 771:     playNote(0x16, 750);
  2424  0315  30EE               	movlw	238
  2425  0316  00F3               	movwf	playNote@duration
  2426  0317  3002               	movlw	2
  2427  0318  00F4               	movwf	playNote@duration+1
  2428  0319  3016               	movlw	22
  2429  031A  318D  25B3  3180   	fcall	_playNote
  2430                           
  2431                           ;main.c: 772:     playNote(0x00, 1250);
  2432  031D  30E2               	movlw	226
  2433  031E  00F3               	movwf	playNote@duration
  2434  031F  3004               	movlw	4
  2435  0320  00F4               	movwf	playNote@duration+1
  2436  0321  3000               	movlw	0
  2437  0322  318D  25B3  3180   	fcall	_playNote
  2438                           
  2439                           ;main.c: 774:     playNote(0x1D, 500);
  2440  0325  30F4               	movlw	244
  2441  0326  00F3               	movwf	playNote@duration
  2442  0327  3001               	movlw	1
  2443  0328  00F4               	movwf	playNote@duration+1
  2444  0329  301D               	movlw	29
  2445  032A  318D  25B3  3180   	fcall	_playNote
  2446                           
  2447                           ;main.c: 775:     playNote(0x00, 500);
  2448  032D  30F4               	movlw	244
  2449  032E  00F3               	movwf	playNote@duration
  2450  032F  3001               	movlw	1
  2451  0330  00F4               	movwf	playNote@duration+1
  2452  0331  3000               	movlw	0
  2453  0332  318D  25B3  3180   	fcall	_playNote
  2454                           
  2455                           ;main.c: 777:     playNote(0x1D, 500);
  2456  0335  30F4               	movlw	244
  2457  0336  00F3               	movwf	playNote@duration
  2458  0337  3001               	movlw	1
  2459  0338  00F4               	movwf	playNote@duration+1
  2460  0339  301D               	movlw	29
  2461  033A  318D  25B3  3180   	fcall	_playNote
  2462                           
  2463                           ;main.c: 778:     playNote(0x00, 500);
  2464  033D  30F4               	movlw	244
  2465  033E  00F3               	movwf	playNote@duration
  2466  033F  3001               	movlw	1
  2467  0340  00F4               	movwf	playNote@duration+1
  2468  0341  3000               	movlw	0
  2469  0342  318D  25B3  3180   	fcall	_playNote
  2470                           
  2471                           ;main.c: 780:     playNote(0x1D, 500);
  2472  0345  30F4               	movlw	244
  2473  0346  00F3               	movwf	playNote@duration
  2474  0347  3001               	movlw	1
  2475  0348  00F4               	movwf	playNote@duration+1
  2476  0349  301D               	movlw	29
  2477  034A  318D  25B3  3180   	fcall	_playNote
  2478                           
  2479                           ;main.c: 781:     playNote(0x00, 500);
  2480  034D  30F4               	movlw	244
  2481  034E  00F3               	movwf	playNote@duration
  2482  034F  3001               	movlw	1
  2483  0350  00F4               	movwf	playNote@duration+1
  2484  0351  3000               	movlw	0
  2485  0352  318D  25B3  3180   	fcall	_playNote
  2486                           
  2487                           ;main.c: 783:     playNote(0x1E, 500);
  2488  0355  30F4               	movlw	244
  2489  0356  00F3               	movwf	playNote@duration
  2490  0357  3001               	movlw	1
  2491  0358  00F4               	movwf	playNote@duration+1
  2492  0359  301E               	movlw	30
  2493  035A  318D  25B3  3180   	fcall	_playNote
  2494                           
  2495                           ;main.c: 784:     playNote(0x00, 250);
  2496  035D  30FA               	movlw	250
  2497  035E  00F3               	movwf	playNote@duration
  2498  035F  3000               	movlw	0
  2499  0360  00F4               	movwf	playNote@duration+1
  2500  0361  3000               	movlw	0
  2501  0362  318D  25B3  3180   	fcall	_playNote
  2502                           
  2503                           ;main.c: 786:     playNote(0x19, 250);
  2504  0365  30FA               	movlw	250
  2505  0366  00F3               	movwf	playNote@duration
  2506  0367  3000               	movlw	0
  2507  0368  00F4               	movwf	playNote@duration+1
  2508  0369  3019               	movlw	25
  2509  036A  318D  25B3  3180   	fcall	_playNote
  2510                           
  2511                           ;main.c: 787:     playNote(0x15, 500);
  2512  036D  30F4               	movlw	244
  2513  036E  00F3               	movwf	playNote@duration
  2514  036F  3001               	movlw	1
  2515  0370  00F4               	movwf	playNote@duration+1
  2516  0371  3015               	movlw	21
  2517  0372  318D  25B3  3180   	fcall	_playNote
  2518                           
  2519                           ;main.c: 788:     playNote(0x00, 500);
  2520  0375  30F4               	movlw	244
  2521  0376  00F3               	movwf	playNote@duration
  2522  0377  3001               	movlw	1
  2523  0378  00F4               	movwf	playNote@duration+1
  2524  0379  3000               	movlw	0
  2525  037A  318D  25B3  3180   	fcall	_playNote
  2526                           
  2527                           ;main.c: 790:     playNote(0x12, 500);
  2528  037D  30F4               	movlw	244
  2529  037E  00F3               	movwf	playNote@duration
  2530  037F  3001               	movlw	1
  2531  0380  00F4               	movwf	playNote@duration+1
  2532  0381  3012               	movlw	18
  2533  0382  318D  25B3  3180   	fcall	_playNote
  2534                           
  2535                           ;main.c: 791:     playNote(0x00, 250);
  2536  0385  30FA               	movlw	250
  2537  0386  00F3               	movwf	playNote@duration
  2538  0387  3000               	movlw	0
  2539  0388  00F4               	movwf	playNote@duration+1
  2540  0389  3000               	movlw	0
  2541  038A  318D  25B3  3180   	fcall	_playNote
  2542                           
  2543                           ;main.c: 793:     playNote(0x19, 250);
  2544  038D  30FA               	movlw	250
  2545  038E  00F3               	movwf	playNote@duration
  2546  038F  3000               	movlw	0
  2547  0390  00F4               	movwf	playNote@duration+1
  2548  0391  3019               	movlw	25
  2549  0392  318D  25B3  3180   	fcall	_playNote
  2550                           
  2551                           ;main.c: 794:     playNote(0x16, 750);
  2552  0395  30EE               	movlw	238
  2553  0396  00F3               	movwf	playNote@duration
  2554  0397  3002               	movlw	2
  2555  0398  00F4               	movwf	playNote@duration+1
  2556  0399  3016               	movlw	22
  2557  039A  318D  25B3  3180   	fcall	_playNote
  2558                           
  2559                           ;main.c: 795:     playNote(0x00, 1000);
  2560  039D  30E8               	movlw	232
  2561  039E  00F3               	movwf	playNote@duration
  2562  039F  3003               	movlw	3
  2563  03A0  00F4               	movwf	playNote@duration+1
  2564  03A1  3000               	movlw	0
  2565  03A2  318D  25B3  3180   	fcall	_playNote
  2566                           
  2567                           ;main.c: 797:     playNote(0x22, 500);
  2568  03A5  30F4               	movlw	244
  2569  03A6  00F3               	movwf	playNote@duration
  2570  03A7  3001               	movlw	1
  2571  03A8  00F4               	movwf	playNote@duration+1
  2572  03A9  3022               	movlw	34
  2573  03AA  318D  25B3  3180   	fcall	_playNote
  2574                           
  2575                           ;main.c: 798:     playNote(0x00, 500);
  2576  03AD  30F4               	movlw	244
  2577  03AE  00F3               	movwf	playNote@duration
  2578  03AF  3001               	movlw	1
  2579  03B0  00F4               	movwf	playNote@duration+1
  2580  03B1  3000               	movlw	0
  2581  03B2  318D  25B3  3180   	fcall	_playNote
  2582                           
  2583                           ;main.c: 800:     playNote(0x16, 500);
  2584  03B5  30F4               	movlw	244
  2585  03B6  00F3               	movwf	playNote@duration
  2586  03B7  3001               	movlw	1
  2587  03B8  00F4               	movwf	playNote@duration+1
  2588  03B9  3016               	movlw	22
  2589  03BA  318D  25B3  3180   	fcall	_playNote
  2590                           
  2591                           ;main.c: 801:     playNote(0x00, 250);
  2592  03BD  30FA               	movlw	250
  2593  03BE  00F3               	movwf	playNote@duration
  2594  03BF  3000               	movlw	0
  2595  03C0  00F4               	movwf	playNote@duration+1
  2596  03C1  3000               	movlw	0
  2597  03C2  318D  25B3  3180   	fcall	_playNote
  2598                           
  2599                           ;main.c: 803:     playNote(0x16, 250);
  2600  03C5  30FA               	movlw	250
  2601  03C6  00F3               	movwf	playNote@duration
  2602  03C7  3000               	movlw	0
  2603  03C8  00F4               	movwf	playNote@duration+1
  2604  03C9  3016               	movlw	22
  2605  03CA  318D  25B3  3180   	fcall	_playNote
  2606                           
  2607                           ;main.c: 804:     playNote(0x22, 500);
  2608  03CD  30F4               	movlw	244
  2609  03CE  00F3               	movwf	playNote@duration
  2610  03CF  3001               	movlw	1
  2611  03D0  00F4               	movwf	playNote@duration+1
  2612  03D1  3022               	movlw	34
  2613  03D2  318D  25B3  3180   	fcall	_playNote
  2614                           
  2615                           ;main.c: 805:     playNote(0x00, 500);
  2616  03D5  30F4               	movlw	244
  2617  03D6  00F3               	movwf	playNote@duration
  2618  03D7  3001               	movlw	1
  2619  03D8  00F4               	movwf	playNote@duration+1
  2620  03D9  3000               	movlw	0
  2621  03DA  318D  25B3  3180   	fcall	_playNote
  2622                           
  2623                           ;main.c: 807:     playNote(0x21, 500);
  2624  03DD  30F4               	movlw	244
  2625  03DE  00F3               	movwf	playNote@duration
  2626  03DF  3001               	movlw	1
  2627  03E0  00F4               	movwf	playNote@duration+1
  2628  03E1  3021               	movlw	33
  2629  03E2  318D  25B3  3180   	fcall	_playNote
  2630                           
  2631                           ;main.c: 808:     playNote(0x00, 250);
  2632  03E5  30FA               	movlw	250
  2633  03E6  00F3               	movwf	playNote@duration
  2634  03E7  3000               	movlw	0
  2635  03E8  00F4               	movwf	playNote@duration+1
  2636  03E9  3000               	movlw	0
  2637  03EA  318D  25B3  3180   	fcall	_playNote
  2638                           
  2639                           ;main.c: 810:     playNote(0x20, 250);
  2640  03ED  30FA               	movlw	250
  2641  03EE  00F3               	movwf	playNote@duration
  2642  03EF  3000               	movlw	0
  2643  03F0  00F4               	movwf	playNote@duration+1
  2644  03F1  3020               	movlw	32
  2645  03F2  318D  25B3  3180   	fcall	_playNote
  2646                           
  2647                           ;main.c: 811:     playNote(0x1F, 250);
  2648  03F5  30FA               	movlw	250
  2649  03F6  00F3               	movwf	playNote@duration
  2650  03F7  3000               	movlw	0
  2651  03F8  00F4               	movwf	playNote@duration+1
  2652  03F9  301F               	movlw	31
  2653  03FA  318D  25B3  3180   	fcall	_playNote
  2654                           
  2655                           ;main.c: 812:     playNote(0x1E, 250);
  2656  03FD  30FA               	movlw	250
  2657  03FE  00F3               	movwf	playNote@duration
  2658  03FF  3000               	movlw	0
  2659  0400  00F4               	movwf	playNote@duration+1
  2660  0401  301E               	movlw	30
  2661  0402  318D  25B3  3180   	fcall	_playNote
  2662                           
  2663                           ;main.c: 813:     playNote(0x1F, 500);
  2664  0405  30F4               	movlw	244
  2665  0406  00F3               	movwf	playNote@duration
  2666  0407  3001               	movlw	1
  2667  0408  00F4               	movwf	playNote@duration+1
  2668  0409  301F               	movlw	31
  2669  040A  318D  25B3  3180   	fcall	_playNote
  2670                           
  2671                           ;main.c: 814:     playNote(0x00, 500);
  2672  040D  30F4               	movlw	244
  2673  040E  00F3               	movwf	playNote@duration
  2674  040F  3001               	movlw	1
  2675  0410  00F4               	movwf	playNote@duration+1
  2676  0411  3000               	movlw	0
  2677  0412  318D  25B3  3180   	fcall	_playNote
  2678                           
  2679                           ;main.c: 816:     playNote(0x1A, 500);
  2680  0415  30F4               	movlw	244
  2681  0416  00F3               	movwf	playNote@duration
  2682  0417  3001               	movlw	1
  2683  0418  00F4               	movwf	playNote@duration+1
  2684  0419  301A               	movlw	26
  2685  041A  318D  25B3  3180   	fcall	_playNote
  2686                           
  2687                           ;main.c: 817:     playNote(0x1E, 750);
  2688  041D  30EE               	movlw	238
  2689  041E  00F3               	movwf	playNote@duration
  2690  041F  3002               	movlw	2
  2691  0420  00F4               	movwf	playNote@duration+1
  2692  0421  301E               	movlw	30
  2693  0422  318D  25B3  3180   	fcall	_playNote
  2694                           
  2695                           ;main.c: 818:     playNote(0x00, 250);
  2696  0425  30FA               	movlw	250
  2697  0426  00F3               	movwf	playNote@duration
  2698  0427  3000               	movlw	0
  2699  0428  00F4               	movwf	playNote@duration+1
  2700  0429  3000               	movlw	0
  2701  042A  318D  25B3  3180   	fcall	_playNote
  2702                           
  2703                           ;main.c: 820:     playNote(0x1D, 500);
  2704  042D  30F4               	movlw	244
  2705  042E  00F3               	movwf	playNote@duration
  2706  042F  3001               	movlw	1
  2707  0430  00F4               	movwf	playNote@duration+1
  2708  0431  301D               	movlw	29
  2709  0432  318D  25B3  3180   	fcall	_playNote
  2710                           
  2711                           ;main.c: 821:     playNote(0x00, 250);
  2712  0435  30FA               	movlw	250
  2713  0436  00F3               	movwf	playNote@duration
  2714  0437  3000               	movlw	0
  2715  0438  00F4               	movwf	playNote@duration+1
  2716  0439  3000               	movlw	0
  2717  043A  318D  25B3  3180   	fcall	_playNote
  2718                           
  2719                           ;main.c: 823:     playNote(0x1C, 250);
  2720  043D  30FA               	movlw	250
  2721  043E  00F3               	movwf	playNote@duration
  2722  043F  3000               	movlw	0
  2723  0440  00F4               	movwf	playNote@duration+1
  2724  0441  301C               	movlw	28
  2725  0442  318D  25B3  3180   	fcall	_playNote
  2726                           
  2727                           ;main.c: 824:     playNote(0x1B, 250);
  2728  0445  30FA               	movlw	250
  2729  0446  00F3               	movwf	playNote@duration
  2730  0447  3000               	movlw	0
  2731  0448  00F4               	movwf	playNote@duration+1
  2732  0449  301B               	movlw	27
  2733  044A  318D  25B3  3180   	fcall	_playNote
  2734                           
  2735                           ;main.c: 825:     playNote(0x1A, 250);
  2736  044D  30FA               	movlw	250
  2737  044E  00F3               	movwf	playNote@duration
  2738  044F  3000               	movlw	0
  2739  0450  00F4               	movwf	playNote@duration+1
  2740  0451  301A               	movlw	26
  2741  0452  318D  25B3  3180   	fcall	_playNote
  2742                           
  2743                           ;main.c: 826:     playNote(0x1B, 500);
  2744  0455  30F4               	movlw	244
  2745  0456  00F3               	movwf	playNote@duration
  2746  0457  3001               	movlw	1
  2747  0458  00F4               	movwf	playNote@duration+1
  2748  0459  301B               	movlw	27
  2749  045A  318D  25B3  3180   	fcall	_playNote
  2750                           
  2751                           ;main.c: 827:     playNote(0x00, 500);
  2752  045D  30F4               	movlw	244
  2753  045E  00F3               	movwf	playNote@duration
  2754  045F  3001               	movlw	1
  2755  0460  00F4               	movwf	playNote@duration+1
  2756  0461  3000               	movlw	0
  2757  0462  318D  25B3  3180   	fcall	_playNote
  2758                           
  2759                           ;main.c: 829:     playNote(0x16, 500);
  2760  0465  30F4               	movlw	244
  2761  0466  00F3               	movwf	playNote@duration
  2762  0467  3001               	movlw	1
  2763  0468  00F4               	movwf	playNote@duration+1
  2764  0469  3016               	movlw	22
  2765  046A  318D  25B3  3180   	fcall	_playNote
  2766                           
  2767                           ;main.c: 830:     playNote(0x19, 500);
  2768  046D  30F4               	movlw	244
  2769  046E  00F3               	movwf	playNote@duration
  2770  046F  3001               	movlw	1
  2771  0470  00F4               	movwf	playNote@duration+1
  2772  0471  3019               	movlw	25
  2773  0472  318D  25B3  3180   	fcall	_playNote
  2774                           
  2775                           ;main.c: 831:     playNote(0x00, 500);
  2776  0475  30F4               	movlw	244
  2777  0476  00F3               	movwf	playNote@duration
  2778  0477  3001               	movlw	1
  2779  0478  00F4               	movwf	playNote@duration+1
  2780  0479  3000               	movlw	0
  2781  047A  318D  25B3  3180   	fcall	_playNote
  2782                           
  2783                           ;main.c: 833:     playNote(0x12, 500);
  2784  047D  30F4               	movlw	244
  2785  047E  00F3               	movwf	playNote@duration
  2786  047F  3001               	movlw	1
  2787  0480  00F4               	movwf	playNote@duration+1
  2788  0481  3012               	movlw	18
  2789  0482  318D  25B3  3180   	fcall	_playNote
  2790                           
  2791                           ;main.c: 834:     playNote(0x00, 250);
  2792  0485  30FA               	movlw	250
  2793  0486  00F3               	movwf	playNote@duration
  2794  0487  3000               	movlw	0
  2795  0488  00F4               	movwf	playNote@duration+1
  2796  0489  3000               	movlw	0
  2797  048A  318D  25B3  3180   	fcall	_playNote
  2798                           
  2799                           ;main.c: 836:     playNote(0x19, 250);
  2800  048D  30FA               	movlw	250
  2801  048E  00F3               	movwf	playNote@duration
  2802  048F  3000               	movlw	0
  2803  0490  00F4               	movwf	playNote@duration+1
  2804  0491  3019               	movlw	25
  2805  0492  318D  25B3  3180   	fcall	_playNote
  2806                           
  2807                           ;main.c: 837:     playNote(0x16, 500);
  2808  0495  30F4               	movlw	244
  2809  0496  00F3               	movwf	playNote@duration
  2810  0497  3001               	movlw	1
  2811  0498  00F4               	movwf	playNote@duration+1
  2812  0499  3016               	movlw	22
  2813  049A  318D  25B3  3180   	fcall	_playNote
  2814                           
  2815                           ;main.c: 838:     playNote(0x00, 500);
  2816  049D  30F4               	movlw	244
  2817  049E  00F3               	movwf	playNote@duration
  2818  049F  3001               	movlw	1
  2819  04A0  00F4               	movwf	playNote@duration+1
  2820  04A1  3000               	movlw	0
  2821  04A2  318D  25B3  3180   	fcall	_playNote
  2822                           
  2823                           ;main.c: 840:     playNote(0x12, 500);
  2824  04A5  30F4               	movlw	244
  2825  04A6  00F3               	movwf	playNote@duration
  2826  04A7  3001               	movlw	1
  2827  04A8  00F4               	movwf	playNote@duration+1
  2828  04A9  3012               	movlw	18
  2829  04AA  318D  25B3  3180   	fcall	_playNote
  2830                           
  2831                           ;main.c: 841:     playNote(0x00, 250);
  2832  04AD  30FA               	movlw	250
  2833  04AE  00F3               	movwf	playNote@duration
  2834  04AF  3000               	movlw	0
  2835  04B0  00F4               	movwf	playNote@duration+1
  2836  04B1  3000               	movlw	0
  2837  04B2  318D  25B3  3180   	fcall	_playNote
  2838                           
  2839                           ;main.c: 843:     playNote(0x19, 250);
  2840  04B5  30FA               	movlw	250
  2841  04B6  00F3               	movwf	playNote@duration
  2842  04B7  3000               	movlw	0
  2843  04B8  00F4               	movwf	playNote@duration+1
  2844  04B9  3019               	movlw	25
  2845  04BA  318D  25B3  3180   	fcall	_playNote
  2846                           
  2847                           ;main.c: 844:     playNote(0x16, 750);
  2848  04BD  30EE               	movlw	238
  2849  04BE  00F3               	movwf	playNote@duration
  2850  04BF  3002               	movlw	2
  2851  04C0  00F4               	movwf	playNote@duration+1
  2852  04C1  3016               	movlw	22
  2853  04C2  318D  25B3  3180   	fcall	_playNote
  2854                           
  2855                           ;main.c: 845:     playNote(0x00, 1250);
  2856  04C5  30E2               	movlw	226
  2857  04C6  00F3               	movwf	playNote@duration
  2858  04C7  3004               	movlw	4
  2859  04C8  00F4               	movwf	playNote@duration+1
  2860  04C9  3000               	movlw	0
  2861  04CA  318D  25B3  3180   	fcall	_playNote
  2862  04CD                     l278:
  2863  04CD  0008               	return
  2864  04CE                     __end_of_imperialMarch:
  2865                           
  2866                           	psect	text5
  2867  0F17                     __ptext5:	
  2868 ;; *************** function _gargoyles *****************
  2869 ;; Defined at:
  2870 ;;		line 1007 in file "main.c"
  2871 ;; Parameters:    Size  Location     Type
  2872 ;;		None
  2873 ;; Auto vars:     Size  Location     Type
  2874 ;;		None
  2875 ;; Return value:  Size  Location     Type
  2876 ;;                  1    wreg      void 
  2877 ;; Registers used:
  2878 ;;		wreg, fsr0l, fsr0h, status,2, status,0, pclath, cstack
  2879 ;; Tracked objects:
  2880 ;;		On entry : 0/0
  2881 ;;		On exit  : 0/0
  2882 ;;		Unchanged: 0/0
  2883 ;; Data sizes:     COMMON   BANK0   BANK1   BANK2   BANK3   BANK4   BANK5   BANK6
  2884 ;;      Params:         0       0       0       0       0       0       0       0
  2885 ;;      Locals:         0       0       0       0       0       0       0       0
  2886 ;;      Temps:          0       0       0       0       0       0       0       0
  2887 ;;      Totals:         0       0       0       0       0       0       0       0
  2888 ;;Total ram usage:        0 bytes
  2889 ;; Hardware stack levels used: 1
  2890 ;; Hardware stack levels required when called: 3
  2891 ;; This function calls:
  2892 ;;		_playNote
  2893 ;; This function is called by:
  2894 ;;		_doTheArc
  2895 ;; This function uses a non-reentrant model
  2896 ;;
  2897                           
  2898                           
  2899                           ;psect for function _gargoyles
  2900  0F17                     _gargoyles:
  2901  0F17                     l1279:	
  2902                           ;incstack = 0
  2903                           ; Regs used in _gargoyles: [wreg-fsr0h+status,2+status,0+pclath+cstack]
  2904                           
  2905                           
  2906                           ;main.c: 1008:     playNote(0x12, 1598);
  2907  0F17  303E               	movlw	62
  2908  0F18  00F3               	movwf	playNote@duration
  2909  0F19  3006               	movlw	6
  2910  0F1A  00F4               	movwf	playNote@duration+1
  2911  0F1B  3012               	movlw	18
  2912  0F1C  318D  25B3  318F   	fcall	_playNote
  2913                           
  2914                           ;main.c: 1009:     playNote(0x10, 398);
  2915  0F1F  308E               	movlw	142
  2916  0F20  00F3               	movwf	playNote@duration
  2917  0F21  3001               	movlw	1
  2918  0F22  00F4               	movwf	playNote@duration+1
  2919  0F23  3010               	movlw	16
  2920  0F24  318D  25B3  318F   	fcall	_playNote
  2921                           
  2922                           ;main.c: 1010:     playNote(0x0E, 398);
  2923  0F27  308E               	movlw	142
  2924  0F28  00F3               	movwf	playNote@duration
  2925  0F29  3001               	movlw	1
  2926  0F2A  00F4               	movwf	playNote@duration+1
  2927  0F2B  300E               	movlw	14
  2928  0F2C  318D  25B3  318F   	fcall	_playNote
  2929                           
  2930                           ;main.c: 1011:     playNote(0x0D, 398);
  2931  0F2F  308E               	movlw	142
  2932  0F30  00F3               	movwf	playNote@duration
  2933  0F31  3001               	movlw	1
  2934  0F32  00F4               	movwf	playNote@duration+1
  2935  0F33  300D               	movlw	13
  2936  0F34  318D  25B3  318F   	fcall	_playNote
  2937                           
  2938                           ;main.c: 1012:     playNote(0x0B, 398);
  2939  0F37  308E               	movlw	142
  2940  0F38  00F3               	movwf	playNote@duration
  2941  0F39  3001               	movlw	1
  2942  0F3A  00F4               	movwf	playNote@duration+1
  2943  0F3B  300B               	movlw	11
  2944  0F3C  318D  25B3  318F   	fcall	_playNote
  2945                           
  2946                           ;main.c: 1013:     playNote(0x13, 1988);
  2947  0F3F  30C4               	movlw	196
  2948  0F40  00F3               	movwf	playNote@duration
  2949  0F41  3007               	movlw	7
  2950  0F42  00F4               	movwf	playNote@duration+1
  2951  0F43  3013               	movlw	19
  2952  0F44  318D  25B3  318F   	fcall	_playNote
  2953                           
  2954                           ;main.c: 1014:     playNote(0x12, 198);
  2955  0F47  30C6               	movlw	198
  2956  0F48  00F3               	movwf	playNote@duration
  2957  0F49  3000               	movlw	0
  2958  0F4A  00F4               	movwf	playNote@duration+1
  2959  0F4B  3012               	movlw	18
  2960  0F4C  318D  25B3  318F   	fcall	_playNote
  2961                           
  2962                           ;main.c: 1015:     playNote(0x10, 198);
  2963  0F4F  30C6               	movlw	198
  2964  0F50  00F3               	movwf	playNote@duration
  2965  0F51  3000               	movlw	0
  2966  0F52  00F4               	movwf	playNote@duration+1
  2967  0F53  3010               	movlw	16
  2968  0F54  318D  25B3  318F   	fcall	_playNote
  2969                           
  2970                           ;main.c: 1016:     playNote(0x0D, 1465);
  2971  0F57  30B9               	movlw	185
  2972  0F58  00F3               	movwf	playNote@duration
  2973  0F59  3005               	movlw	5
  2974  0F5A  00F4               	movwf	playNote@duration+1
  2975  0F5B  300D               	movlw	13
  2976  0F5C  318D  25B3  318F   	fcall	_playNote
  2977                           
  2978                           ;main.c: 1017:     playNote(0x00, 133);
  2979  0F5F  3085               	movlw	133
  2980  0F60  00F3               	movwf	playNote@duration
  2981  0F61  3000               	movlw	0
  2982  0F62  00F4               	movwf	playNote@duration+1
  2983  0F63  3000               	movlw	0
  2984  0F64  318D  25B3  318F   	fcall	_playNote
  2985                           
  2986                           ;main.c: 1018:     playNote(0x12, 1598);
  2987  0F67  303E               	movlw	62
  2988  0F68  00F3               	movwf	playNote@duration
  2989  0F69  3006               	movlw	6
  2990  0F6A  00F4               	movwf	playNote@duration+1
  2991  0F6B  3012               	movlw	18
  2992  0F6C  318D  25B3  318F   	fcall	_playNote
  2993                           
  2994                           ;main.c: 1019:     playNote(0x0E, 398);
  2995  0F6F  308E               	movlw	142
  2996  0F70  00F3               	movwf	playNote@duration
  2997  0F71  3001               	movlw	1
  2998  0F72  00F4               	movwf	playNote@duration+1
  2999  0F73  300E               	movlw	14
  3000  0F74  318D  25B3  318F   	fcall	_playNote
  3001                           
  3002                           ;main.c: 1020:     playNote(0x10, 398);
  3003  0F77  308E               	movlw	142
  3004  0F78  00F3               	movwf	playNote@duration
  3005  0F79  3001               	movlw	1
  3006  0F7A  00F4               	movwf	playNote@duration+1
  3007  0F7B  3010               	movlw	16
  3008  0F7C  318D  25B3  318F   	fcall	_playNote
  3009                           
  3010                           ;main.c: 1021:     playNote(0x12, 398);
  3011  0F7F  308E               	movlw	142
  3012  0F80  00F3               	movwf	playNote@duration
  3013  0F81  3001               	movlw	1
  3014  0F82  00F4               	movwf	playNote@duration+1
  3015  0F83  3012               	movlw	18
  3016  0F84  318D  25B3  318F   	fcall	_playNote
  3017                           
  3018                           ;main.c: 1022:     playNote(0x10, 398);
  3019  0F87  308E               	movlw	142
  3020  0F88  00F3               	movwf	playNote@duration
  3021  0F89  3001               	movlw	1
  3022  0F8A  00F4               	movwf	playNote@duration+1
  3023  0F8B  3010               	movlw	16
  3024  0F8C  318D  25B3  318F   	fcall	_playNote
  3025                           
  3026                           ;main.c: 1023:     playNote(0x10, 798);
  3027  0F8F  301E               	movlw	30
  3028  0F90  00F3               	movwf	playNote@duration
  3029  0F91  3003               	movlw	3
  3030  0F92  00F4               	movwf	playNote@duration+1
  3031  0F93  3010               	movlw	16
  3032  0F94  318D  25B3  318F   	fcall	_playNote
  3033                           
  3034                           ;main.c: 1024:     playNote(0x13, 798);
  3035  0F97  301E               	movlw	30
  3036  0F98  00F3               	movwf	playNote@duration
  3037  0F99  3003               	movlw	3
  3038  0F9A  00F4               	movwf	playNote@duration+1
  3039  0F9B  3013               	movlw	19
  3040  0F9C  318D  25B3  318F   	fcall	_playNote
  3041                           
  3042                           ;main.c: 1025:     playNote(0x16, 1465);
  3043  0F9F  30B9               	movlw	185
  3044  0FA0  00F3               	movwf	playNote@duration
  3045  0FA1  3005               	movlw	5
  3046  0FA2  00F4               	movwf	playNote@duration+1
  3047  0FA3  3016               	movlw	22
  3048  0FA4  318D  25B3  318F   	fcall	_playNote
  3049                           
  3050                           ;main.c: 1026:     playNote(0x00, 133);
  3051  0FA7  3085               	movlw	133
  3052  0FA8  00F3               	movwf	playNote@duration
  3053  0FA9  3000               	movlw	0
  3054  0FAA  00F4               	movwf	playNote@duration+1
  3055  0FAB  3000               	movlw	0
  3056  0FAC  318D  25B3  318F   	fcall	_playNote
  3057                           
  3058                           ;main.c: 1027:     playNote(0x0B, 1598);
  3059  0FAF  303E               	movlw	62
  3060  0FB0  00F3               	movwf	playNote@duration
  3061  0FB1  3006               	movlw	6
  3062  0FB2  00F4               	movwf	playNote@duration+1
  3063  0FB3  300B               	movlw	11
  3064  0FB4  318D  25B3  318F   	fcall	_playNote
  3065                           
  3066                           ;main.c: 1028:     playNote(0x0B, 398);
  3067  0FB7  308E               	movlw	142
  3068  0FB8  00F3               	movwf	playNote@duration
  3069  0FB9  3001               	movlw	1
  3070  0FBA  00F4               	movwf	playNote@duration+1
  3071  0FBB  300B               	movlw	11
  3072  0FBC  318D  25B3  318F   	fcall	_playNote
  3073                           
  3074                           ;main.c: 1029:     playNote(0x0D, 398);
  3075  0FBF  308E               	movlw	142
  3076  0FC0  00F3               	movwf	playNote@duration
  3077  0FC1  3001               	movlw	1
  3078  0FC2  00F4               	movwf	playNote@duration+1
  3079  0FC3  300D               	movlw	13
  3080  0FC4  318D  25B3  318F   	fcall	_playNote
  3081                           
  3082                           ;main.c: 1030:     playNote(0x0E, 398);
  3083  0FC7  308E               	movlw	142
  3084  0FC8  00F3               	movwf	playNote@duration
  3085  0FC9  3001               	movlw	1
  3086  0FCA  00F4               	movwf	playNote@duration+1
  3087  0FCB  300E               	movlw	14
  3088  0FCC  318D  25B3  318F   	fcall	_playNote
  3089                           
  3090                           ;main.c: 1031:     playNote(0x0B, 398);
  3091  0FCF  308E               	movlw	142
  3092  0FD0  00F3               	movwf	playNote@duration
  3093  0FD1  3001               	movlw	1
  3094  0FD2  00F4               	movwf	playNote@duration+1
  3095  0FD3  300B               	movlw	11
  3096  0FD4  318D  25B3  318F   	fcall	_playNote
  3097                           
  3098                           ;main.c: 1032:     playNote(0x10, 798);
  3099  0FD7  301E               	movlw	30
  3100  0FD8  00F3               	movwf	playNote@duration
  3101  0FD9  3003               	movlw	3
  3102  0FDA  00F4               	movwf	playNote@duration+1
  3103  0FDB  3010               	movlw	16
  3104  0FDC  318D  25B3  318F   	fcall	_playNote
  3105                           
  3106                           ;main.c: 1033:     playNote(0x13, 798);
  3107  0FDF  301E               	movlw	30
  3108  0FE0  00F3               	movwf	playNote@duration
  3109  0FE1  3003               	movlw	3
  3110  0FE2  00F4               	movwf	playNote@duration+1
  3111  0FE3  3013               	movlw	19
  3112  0FE4  318D  25B3  318F   	fcall	_playNote
  3113                           
  3114                           ;main.c: 1034:     playNote(0x12, 798);
  3115  0FE7  301E               	movlw	30
  3116  0FE8  00F3               	movwf	playNote@duration
  3117  0FE9  3003               	movlw	3
  3118  0FEA  00F4               	movwf	playNote@duration+1
  3119  0FEB  3012               	movlw	18
  3120  0FEC  318D  25B3  318F   	fcall	_playNote
  3121                           
  3122                           ;main.c: 1035:     playNote(0x16, 798);
  3123  0FEF  301E               	movlw	30
  3124  0FF0  00F3               	movwf	playNote@duration
  3125  0FF1  3003               	movlw	3
  3126  0FF2  00F4               	movwf	playNote@duration+1
  3127  0FF3  3016               	movlw	22
  3128  0FF4  318D  25B3  318F   	fcall	_playNote
  3129                           
  3130                           ;main.c: 1036:     playNote(0x17, 1598);
  3131  0FF7  303E               	movlw	62
  3132  0FF8  00F3               	movwf	playNote@duration
  3133  0FF9  3006               	movlw	6
  3134  0FFA  00F4               	movwf	playNote@duration+1
  3135  0FFB  3017               	movlw	23
  3136  0FFC  318D  25B3  318F   	fcall	_playNote
  3137  0FFF                     l284:
  3138  0FFF  0008               	return
  3139  1000                     __end_of_gargoyles:
  3140                           
  3141                           	psect	text6
  3142  0DB3                     __ptext6:	
  3143 ;; *************** function _playNote *****************
  3144 ;; Defined at:
  3145 ;;		line 548 in file "main.c"
  3146 ;; Parameters:    Size  Location     Type
  3147 ;;  note            1    wreg     unsigned char 
  3148 ;;  duration        2    3[COMMON] unsigned int 
  3149 ;; Auto vars:     Size  Location     Type
  3150 ;;  note            1    5[COMMON] unsigned char 
  3151 ;; Return value:  Size  Location     Type
  3152 ;;                  1    wreg      void 
  3153 ;; Registers used:
  3154 ;;		wreg, fsr0l, fsr0h, status,2, status,0, pclath, cstack
  3155 ;; Tracked objects:
  3156 ;;		On entry : 0/0
  3157 ;;		On exit  : 0/0
  3158 ;;		Unchanged: 0/0
  3159 ;; Data sizes:     COMMON   BANK0   BANK1   BANK2   BANK3   BANK4   BANK5   BANK6
  3160 ;;      Params:         2       0       0       0       0       0       0       0
  3161 ;;      Locals:         1       0       0       0       0       0       0       0
  3162 ;;      Temps:          0       0       0       0       0       0       0       0
  3163 ;;      Totals:         3       0       0       0       0       0       0       0
  3164 ;;Total ram usage:        3 bytes
  3165 ;; Hardware stack levels used: 1
  3166 ;; Hardware stack levels required when called: 2
  3167 ;; This function calls:
  3168 ;;		_blockingDelay
  3169 ;; This function is called by:
  3170 ;;		_imperialMarch
  3171 ;;		_gargoyles
  3172 ;;		_sheRa
  3173 ;;		_cantinaBand
  3174 ;; This function uses a non-reentrant model
  3175 ;;
  3176                           
  3177                           
  3178                           ;psect for function _playNote
  3179  0DB3                     _playNote:
  3180                           
  3181                           ;incstack = 0
  3182                           ; Regs used in _playNote: [wreg-fsr0h+status,2+status,0+pclath+cstack]
  3183                           ;playNote@note stored from wreg
  3184  0DB3  00F5               	movwf	playNote@note
  3185  0DB4                     l1263:
  3186                           
  3187                           ;main.c: 549:     if (doingTheArc) {
  3188  0DB4  0140               	movlb	0	; select bank0
  3189  0DB5  0836               	movf	_doingTheArc,w
  3190  0DB6  1903               	btfsc	3,2
  3191  0DB7  2DB9               	goto	u731
  3192  0DB8  2DBA               	goto	u730
  3193  0DB9                     u731:
  3194  0DB9  2DD8               	goto	l1275
  3195  0DBA                     u730:
  3196  0DBA                     l1265:
  3197                           
  3198                           ;main.c: 550:         if (note > 0) {
  3199  0DBA  0875               	movf	playNote@note,w
  3200  0DBB  1903               	btfsc	3,2
  3201  0DBC  2DBE               	goto	u741
  3202  0DBD  2DBF               	goto	u740
  3203  0DBE                     u741:
  3204  0DBE  2DCC               	goto	l1271
  3205  0DBF                     u740:
  3206  0DBF                     l1267:
  3207                           
  3208                           ;main.c: 551:             noGate = 0;
  3209  0DBF  01D4               	clrf	_noGate
  3210  0DC0  01D5               	clrf	_noGate+1
  3211  0DC1                     l1269:
  3212                           
  3213                           ;main.c: 552:             PR2 = notes[note];
  3214  0DC1  0875               	movf	playNote@note,w
  3215  0DC2  3EE6               	addlw	low (_notes| (0+32768))
  3216  0DC3  0084               	movwf	4
  3217  0DC4  3087               	movlw	high (_notes| (0+32768))
  3218  0DC5  1803               	skipnc
  3219  0DC6  3E01               	addlw	1
  3220  0DC7  0085               	movwf	5
  3221  0DC8  0800               	movf	0,w	;code access
  3222  0DC9  0145               	movlb	5	; select bank5
  3223  0DCA  008D               	movwf	13	;volatile
  3224                           
  3225                           ;main.c: 553:         } else {
  3226  0DCB  2DD0               	goto	l1273
  3227  0DCC                     l1271:
  3228                           
  3229                           ;main.c: 554:             noGate = 1;
  3230  0DCC  3001               	movlw	1
  3231  0DCD  00D4               	movwf	_noGate
  3232  0DCE  3000               	movlw	0
  3233  0DCF  00D5               	movwf	_noGate+1
  3234  0DD0                     l1273:
  3235                           
  3236                           ;main.c: 556:         blockingDelay(duration);
  3237  0DD0  0874               	movf	playNote@duration+1,w
  3238  0DD1  00F2               	movwf	blockingDelay@mSecs+1
  3239  0DD2  0873               	movf	playNote@duration,w
  3240  0DD3  00F1               	movwf	blockingDelay@mSecs
  3241  0DD4  318D  259D  318D   	fcall	_blockingDelay
  3242                           
  3243                           ;main.c: 557:     } else {
  3244  0DD7  2DDA               	goto	l240
  3245  0DD8                     l1275:
  3246                           
  3247                           ;main.c: 558:         forceArc = 0;
  3248  0DD8  01B0               	clrf	_forceArc
  3249  0DD9  01B1               	clrf	_forceArc+1
  3250  0DDA                     l240:
  3251  0DDA  0008               	return
  3252  0DDB                     __end_of_playNote:
  3253                           
  3254                           	psect	text7
  3255  064F                     __ptext7:	
  3256 ;; *************** function _chargeIndicator *****************
  3257 ;; Defined at:
  3258 ;;		line 587 in file "main.c"
  3259 ;; Parameters:    Size  Location     Type
  3260 ;;		None
  3261 ;; Auto vars:     Size  Location     Type
  3262 ;;		None
  3263 ;; Return value:  Size  Location     Type
  3264 ;;                  1    wreg      void 
  3265 ;; Registers used:
  3266 ;;		wreg, status,2, status,0, pclath, cstack
  3267 ;; Tracked objects:
  3268 ;;		On entry : 0/0
  3269 ;;		On exit  : 0/0
  3270 ;;		Unchanged: 0/0
  3271 ;; Data sizes:     COMMON   BANK0   BANK1   BANK2   BANK3   BANK4   BANK5   BANK6
  3272 ;;      Params:         0       0       0       0       0       0       0       0
  3273 ;;      Locals:         0       4       0       0       0       0       0       0
  3274 ;;      Temps:          1       0       0       0       0       0       0       0
  3275 ;;      Totals:         1       4       0       0       0       0       0       0
  3276 ;;Total ram usage:        5 bytes
  3277 ;; Hardware stack levels used: 1
  3278 ;; Hardware stack levels required when called: 2
  3279 ;; This function calls:
  3280 ;;		___lldiv
  3281 ;;		___lmul
  3282 ;;		_blockingDelay
  3283 ;; This function is called by:
  3284 ;;		_main
  3285 ;; This function uses a non-reentrant model
  3286 ;;
  3287                           
  3288                           
  3289                           ;psect for function _chargeIndicator
  3290  064F                     _chargeIndicator:
  3291  064F                     l1735:	
  3292                           ;incstack = 0
  3293                           ; Regs used in _chargeIndicator: [wreg+status,2+status,0+pclath+cstack]
  3294                           
  3295                           
  3296                           ;main.c: 589:     if (!debugging) ADCON0bits.ON = 1;
  3297  064F  0140               	movlb	0	; select bank0
  3298  0650  0839               	movf	_debugging,w
  3299  0651  1D03               	btfss	3,2
  3300  0652  2E54               	goto	u1521
  3301  0653  2E55               	goto	u1520
  3302  0654                     u1521:
  3303  0654  2E57               	goto	l1739
  3304  0655                     u1520:
  3305  0655                     l1737:
  3306  0655  0141               	movlb	1	; select bank1
  3307  0656  141D               	bsf	29,0	;volatile
  3308  0657                     l1739:
  3309                           
  3310                           ;main.c: 590:     charging = PORTAbits.RA5;
  3311  0657  3000               	movlw	0
  3312  0658  0140               	movlb	0	; select bank0
  3313  0659  1A8C               	btfsc	12,5	;volatile
  3314  065A  3001               	movlw	1
  3315  065B  00B2               	movwf	_charging
  3316  065C                     l1741:
  3317                           
  3318                           ;main.c: 596:         ADCON0bits.GO = 1;
  3319  065C  0141               	movlb	1	; select bank1
  3320  065D  149D               	bsf	29,1	;volatile
  3321  065E                     l1743:
  3322                           
  3323                           ;main.c: 597:         if (!debugging) while (ADCON0bits.GO == 1);
  3324  065E  0140               	movlb	0	; select bank0
  3325  065F  0839               	movf	_debugging,w
  3326  0660  1D03               	btfss	3,2
  3327  0661  2E63               	goto	u1531
  3328  0662  2E64               	goto	u1530
  3329  0663                     u1531:
  3330  0663  2E69               	goto	l1747
  3331  0664                     u1530:
  3332  0664                     l249:
  3333  0664  0141               	movlb	1	; select bank1
  3334  0665  189D               	btfsc	29,1	;volatile
  3335  0666  2E68               	goto	u1541
  3336  0667  2E69               	goto	u1540
  3337  0668                     u1541:
  3338  0668  2E64               	goto	l249
  3339  0669                     u1540:
  3340  0669                     l1747:
  3341                           
  3342                           ;main.c: 598:         adcVolts = ADRES;
  3343  0669  0141               	movlb	1	; select bank1
  3344  066A  081C               	movf	28,w	;volatile
  3345  066B  0140               	movlb	0	; select bank0
  3346  066C  00A5               	movwf	_adcVolts+1
  3347  066D  0141               	movlb	1	; select bank1
  3348  066E  081B               	movf	27,w	;volatile
  3349  066F  0140               	movlb	0	; select bank0
  3350  0670  00A4               	movwf	_adcVolts
  3351  0671                     l1749:
  3352                           
  3353                           ;main.c: 599:         if (!debugging) battVolts = ((calibrationMV * 1204) / adcVolts) / 
      +                          10;
  3354  0671  0839               	movf	_debugging,w
  3355  0672  1D03               	btfss	3,2
  3356  0673  2E75               	goto	u1551
  3357  0674  2E76               	goto	u1550
  3358  0675                     u1551:
  3359  0675  2EBC               	goto	l1753
  3360  0676                     u1550:
  3361  0676                     l1751:
  3362  0676  0824               	movf	_adcVolts,w
  3363  0677  00BF               	movwf	___lldiv@divisor
  3364  0678  0825               	movf	_adcVolts+1,w
  3365  0679  00C0               	movwf	___lldiv@divisor+1
  3366  067A  01C1               	clrf	___lldiv@divisor+2
  3367  067B  01C2               	clrf	___lldiv@divisor+3
  3368  067C  0823               	movf	_calibrationMV+3,w
  3369  067D  00F4               	movwf	___lmul@multiplier+3
  3370  067E  0822               	movf	_calibrationMV+2,w
  3371  067F  00F3               	movwf	___lmul@multiplier+2
  3372  0680  0821               	movf	_calibrationMV+1,w
  3373  0681  00F2               	movwf	___lmul@multiplier+1
  3374  0682  0820               	movf	_calibrationMV,w
  3375  0683  00F1               	movwf	___lmul@multiplier
  3376  0684  3000               	movlw	0
  3377  0685  00F8               	movwf	___lmul@multiplicand+3
  3378  0686  3000               	movlw	0
  3379  0687  00F7               	movwf	___lmul@multiplicand+2
  3380  0688  3004               	movlw	4
  3381  0689  00F6               	movwf	___lmul@multiplicand+1
  3382  068A  30B4               	movlw	180
  3383  068B  00F5               	movwf	___lmul@multiplicand
  3384  068C  3187  27B0  3186   	fcall	___lmul
  3385  068F  0874               	movf	?___lmul+3,w
  3386  0690  0140               	movlb	0	; select bank0
  3387  0691  00C6               	movwf	___lldiv@dividend+3
  3388  0692  0873               	movf	?___lmul+2,w
  3389  0693  00C5               	movwf	___lldiv@dividend+2
  3390  0694  0872               	movf	?___lmul+1,w
  3391  0695  00C4               	movwf	___lldiv@dividend+1
  3392  0696  0871               	movf	?___lmul,w
  3393  0697  00C3               	movwf	___lldiv@dividend
  3394  0698  318D  25DB  3186   	fcall	___lldiv
  3395  069B  0140               	movlb	0	; select bank0
  3396  069C  0842               	movf	?___lldiv+3,w
  3397  069D  00CF               	movwf	_chargeIndicator$1040+3
  3398  069E  0841               	movf	?___lldiv+2,w
  3399  069F  00CE               	movwf	_chargeIndicator$1040+2
  3400  06A0  0840               	movf	?___lldiv+1,w
  3401  06A1  00CD               	movwf	_chargeIndicator$1040+1
  3402  06A2  083F               	movf	?___lldiv,w
  3403  06A3  00CC               	movwf	_chargeIndicator$1040
  3404  06A4  3000               	movlw	0
  3405  06A5  00C2               	movwf	___lldiv@divisor+3
  3406  06A6  3000               	movlw	0
  3407  06A7  00C1               	movwf	___lldiv@divisor+2
  3408  06A8  3000               	movlw	0
  3409  06A9  00C0               	movwf	___lldiv@divisor+1
  3410  06AA  300A               	movlw	10
  3411  06AB  00BF               	movwf	___lldiv@divisor
  3412  06AC  084F               	movf	_chargeIndicator$1040+3,w
  3413  06AD  00C6               	movwf	___lldiv@dividend+3
  3414  06AE  084E               	movf	_chargeIndicator$1040+2,w
  3415  06AF  00C5               	movwf	___lldiv@dividend+2
  3416  06B0  084D               	movf	_chargeIndicator$1040+1,w
  3417  06B1  00C4               	movwf	___lldiv@dividend+1
  3418  06B2  084C               	movf	_chargeIndicator$1040,w
  3419  06B3  00C3               	movwf	___lldiv@dividend
  3420  06B4  318D  25DB  3186   	fcall	___lldiv
  3421  06B7  0140               	movlb	0	; select bank0
  3422  06B8  0840               	movf	?___lldiv+1,w
  3423  06B9  00A7               	movwf	_battVolts+1
  3424  06BA  083F               	movf	?___lldiv,w
  3425  06BB  00A6               	movwf	_battVolts
  3426  06BC                     l1753:
  3427                           
  3428                           ;main.c: 601:         if (battVolts > 415) {
  3429  06BC  3001               	movlw	1
  3430  06BD  0227               	subwf	_battVolts+1,w
  3431  06BE  30A0               	movlw	160
  3432  06BF  1903               	skipnz
  3433  06C0  0226               	subwf	_battVolts,w
  3434  06C1  1C03               	skipc
  3435  06C2  2EC4               	goto	u1561
  3436  06C3  2EC5               	goto	u1560
  3437  06C4                     u1561:
  3438  06C4  2ED1               	goto	l1761
  3439  06C5                     u1560:
  3440  06C5                     l1755:
  3441                           
  3442                           ;main.c: 604:             LATA1 = 0;
  3443  06C5  1098               	bcf	24,1	;volatile
  3444                           
  3445                           ;main.c: 605:             LATA2 = 0;
  3446  06C6  1118               	bcf	24,2	;volatile
  3447                           
  3448                           ;main.c: 606:             LATC0 = 0;
  3449  06C7  101A               	bcf	26,0	;volatile
  3450                           
  3451                           ;main.c: 607:             LATC1 = 0;
  3452  06C8  109A               	bcf	26,1	;volatile
  3453  06C9                     l1757:
  3454                           
  3455                           ;main.c: 608:             if (charging) lowPowerMode = 1;
  3456  06C9  0832               	movf	_charging,w
  3457  06CA  1903               	btfsc	3,2
  3458  06CB  2ECD               	goto	u1571
  3459  06CC  2ECE               	goto	u1570
  3460  06CD                     u1571:
  3461  06CD  2F29               	goto	l1795
  3462  06CE                     u1570:
  3463  06CE                     l1759:
  3464  06CE  01B5               	clrf	_lowPowerMode
  3465  06CF  0AB5               	incf	_lowPowerMode,f
  3466  06D0  2F29               	goto	l1795
  3467  06D1                     l1761:
  3468  06D1  3001               	movlw	1
  3469  06D2  0227               	subwf	_battVolts+1,w
  3470  06D3  308F               	movlw	143
  3471  06D4  1903               	skipnz
  3472  06D5  0226               	subwf	_battVolts,w
  3473  06D6  1C03               	skipc
  3474  06D7  2ED9               	goto	u1581
  3475  06D8  2EDA               	goto	u1580
  3476  06D9                     u1581:
  3477  06D9  2EEB               	goto	l1771
  3478  06DA                     u1580:
  3479  06DA                     l1763:
  3480                           
  3481                           ;main.c: 612:             LATA1 = 0;
  3482  06DA  1098               	bcf	24,1	;volatile
  3483                           
  3484                           ;main.c: 613:             LATA2 = 0;
  3485  06DB  1118               	bcf	24,2	;volatile
  3486                           
  3487                           ;main.c: 614:             LATC0 = 0;
  3488  06DC  101A               	bcf	26,0	;volatile
  3489  06DD                     l1765:
  3490                           
  3491                           ;main.c: 615:             if (charging) {
  3492  06DD  0832               	movf	_charging,w
  3493  06DE  1903               	btfsc	3,2
  3494  06DF  2EE1               	goto	u1591
  3495  06E0  2EE2               	goto	u1590
  3496  06E1                     u1591:
  3497  06E1  2F29               	goto	l1795
  3498  06E2                     u1590:
  3499  06E2                     l1767:
  3500                           
  3501                           ;main.c: 616:                 if (chargeCycle) LATC1 = 0;
  3502  06E2  0833               	movf	_chargeCycle,w
  3503  06E3  1903               	btfsc	3,2
  3504  06E4  2EE6               	goto	u1601
  3505  06E5  2EE7               	goto	u1600
  3506  06E6                     u1601:
  3507  06E6  2EE9               	goto	l258
  3508  06E7                     u1600:
  3509  06E7                     l1769:
  3510  06E7  109A               	bcf	26,1	;volatile
  3511  06E8  2F29               	goto	l1795
  3512  06E9                     l258:	
  3513                           ;main.c: 617:                 else LATC1 = 1;
  3514                           
  3515  06E9  149A               	bsf	26,1	;volatile
  3516  06EA  2F29               	goto	l1795
  3517  06EB                     l1771:
  3518  06EB  3001               	movlw	1
  3519  06EC  0227               	subwf	_battVolts+1,w
  3520  06ED  3081               	movlw	129
  3521  06EE  1903               	skipnz
  3522  06EF  0226               	subwf	_battVolts,w
  3523  06F0  1C03               	skipc
  3524  06F1  2EF3               	goto	u1611
  3525  06F2  2EF4               	goto	u1610
  3526  06F3                     u1611:
  3527  06F3  2F04               	goto	l1781
  3528  06F4                     u1610:
  3529  06F4                     l1773:
  3530                           
  3531                           ;main.c: 622:             LATA1 = 0;
  3532  06F4  1098               	bcf	24,1	;volatile
  3533                           
  3534                           ;main.c: 623:             LATA2 = 0;
  3535  06F5  1118               	bcf	24,2	;volatile
  3536  06F6                     l1775:
  3537                           
  3538                           ;main.c: 624:             if (charging) {
  3539  06F6  0832               	movf	_charging,w
  3540  06F7  1903               	btfsc	3,2
  3541  06F8  2EFA               	goto	u1621
  3542  06F9  2EFB               	goto	u1620
  3543  06FA                     u1621:
  3544  06FA  2EE9               	goto	l258
  3545  06FB                     u1620:
  3546  06FB                     l1777:
  3547                           
  3548                           ;main.c: 625:                 if (chargeCycle) LATC0 = 0;
  3549  06FB  0833               	movf	_chargeCycle,w
  3550  06FC  1903               	btfsc	3,2
  3551  06FD  2EFF               	goto	u1631
  3552  06FE  2F00               	goto	u1630
  3553  06FF                     u1631:
  3554  06FF  2F02               	goto	l263
  3555  0700                     u1630:
  3556  0700                     l1779:
  3557  0700  101A               	bcf	26,0	;volatile
  3558  0701  2EE9               	goto	l258
  3559  0702                     l263:	
  3560                           ;main.c: 626:                 else LATC0 = 1;
  3561                           
  3562  0702  141A               	bsf	26,0	;volatile
  3563  0703  2EE9               	goto	l258
  3564  0704                     l1781:
  3565  0704  3001               	movlw	1
  3566  0705  0227               	subwf	_battVolts+1,w
  3567  0706  3078               	movlw	120
  3568  0707  1903               	skipnz
  3569  0708  0226               	subwf	_battVolts,w
  3570  0709  1C03               	skipc
  3571  070A  2F0C               	goto	u1641
  3572  070B  2F0D               	goto	u1640
  3573  070C                     u1641:
  3574  070C  2F1E               	goto	l1791
  3575  070D                     u1640:
  3576  070D                     l1783:
  3577                           
  3578                           ;main.c: 632:             LATA1 = 0;
  3579  070D  1098               	bcf	24,1	;volatile
  3580  070E                     l1785:
  3581                           
  3582                           ;main.c: 633:             if (charging) {
  3583  070E  0832               	movf	_charging,w
  3584  070F  1903               	btfsc	3,2
  3585  0710  2F12               	goto	u1651
  3586  0711  2F13               	goto	u1650
  3587  0712                     u1651:
  3588  0712  2F1B               	goto	l267
  3589  0713                     u1650:
  3590  0713                     l1787:
  3591                           
  3592                           ;main.c: 634:                 if (chargeCycle) LATA2 = 0;
  3593  0713  0833               	movf	_chargeCycle,w
  3594  0714  1903               	btfsc	3,2
  3595  0715  2F17               	goto	u1661
  3596  0716  2F18               	goto	u1660
  3597  0717                     u1661:
  3598  0717  2F1A               	goto	l268
  3599  0718                     u1660:
  3600  0718                     l1789:
  3601  0718  1118               	bcf	24,2	;volatile
  3602  0719  2F1B               	goto	l267
  3603  071A                     l268:	
  3604                           ;main.c: 635:                 else LATA2 = 1;
  3605                           
  3606  071A  1518               	bsf	24,2	;volatile
  3607  071B                     l267:	
  3608                           ;main.c: 636:             }
  3609                           
  3610                           
  3611                           ;main.c: 637:             LATC0 = 1;
  3612  071B  141A               	bsf	26,0	;volatile
  3613                           
  3614                           ;main.c: 638:             LATC1 = 1;
  3615  071C  149A               	bsf	26,1	;volatile
  3616                           
  3617                           ;main.c: 639:         } else {
  3618  071D  2F29               	goto	l1795
  3619  071E                     l1791:
  3620                           
  3621                           ;main.c: 641:             if (chargeCycle) LATA1 = 0;
  3622  071E  0833               	movf	_chargeCycle,w
  3623  071F  1903               	btfsc	3,2
  3624  0720  2F22               	goto	u1671
  3625  0721  2F23               	goto	u1670
  3626  0722                     u1671:
  3627  0722  2F25               	goto	l271
  3628  0723                     u1670:
  3629  0723                     l1793:
  3630  0723  1098               	bcf	24,1	;volatile
  3631  0724  2F26               	goto	l272
  3632  0725                     l271:	
  3633                           ;main.c: 642:             else LATA1 = 1;
  3634                           
  3635  0725  1498               	bsf	24,1	;volatile
  3636  0726                     l272:
  3637                           
  3638                           ;main.c: 643:             LATA2 = 1;
  3639  0726  1518               	bsf	24,2	;volatile
  3640                           
  3641                           ;main.c: 644:             LATC0 = 1;
  3642  0727  141A               	bsf	26,0	;volatile
  3643                           
  3644                           ;main.c: 645:             LATC1 = 1;
  3645  0728  149A               	bsf	26,1	;volatile
  3646  0729                     l1795:
  3647                           
  3648                           ;main.c: 647:         if (charging) {
  3649  0729  0832               	movf	_charging,w
  3650  072A  1903               	btfsc	3,2
  3651  072B  2F2D               	goto	u1681
  3652  072C  2F2E               	goto	u1680
  3653  072D                     u1681:
  3654  072D  2F3E               	goto	l1803
  3655  072E                     u1680:
  3656  072E                     l1797:
  3657                           
  3658                           ;main.c: 648:             chargeCycle ^= 1;
  3659  072E  3001               	movlw	1
  3660  072F  00FA               	movwf	??_chargeIndicator
  3661  0730  087A               	movf	??_chargeIndicator,w
  3662  0731  06B3               	xorwf	_chargeCycle,f
  3663  0732                     l1799:
  3664                           
  3665                           ;main.c: 650:             blockingDelay(500);
  3666  0732  30F4               	movlw	244
  3667  0733  00F1               	movwf	blockingDelay@mSecs
  3668  0734  3001               	movlw	1
  3669  0735  00F2               	movwf	blockingDelay@mSecs+1
  3670  0736  318D  259D  3186   	fcall	_blockingDelay
  3671  0739                     l1801:
  3672                           
  3673                           ;main.c: 652:             charging = PORTAbits.RA5;
  3674  0739  3000               	movlw	0
  3675  073A  0140               	movlb	0	; select bank0
  3676  073B  1A8C               	btfsc	12,5	;volatile
  3677  073C  3001               	movlw	1
  3678  073D  00B2               	movwf	_charging
  3679  073E                     l1803:
  3680                           
  3681                           ;main.c: 654:     } while (charging);
  3682  073E  0832               	movf	_charging,w
  3683  073F  1D03               	btfss	3,2
  3684  0740  2F42               	goto	u1691
  3685  0741  2F43               	goto	u1690
  3686  0742                     u1691:
  3687  0742  2E5C               	goto	l1741
  3688  0743                     u1690:
  3689  0743                     l275:
  3690  0743  0008               	return
  3691  0744                     __end_of_chargeIndicator:
  3692                           
  3693                           	psect	text8
  3694  0D9D                     __ptext8:	
  3695 ;; *************** function _blockingDelay *****************
  3696 ;; Defined at:
  3697 ;;		line 539 in file "main.c"
  3698 ;; Parameters:    Size  Location     Type
  3699 ;;  mSecs           2    1[COMMON] unsigned int 
  3700 ;; Auto vars:     Size  Location     Type
  3701 ;;		None
  3702 ;; Return value:  Size  Location     Type
  3703 ;;                  1    wreg      void 
  3704 ;; Registers used:
  3705 ;;		wreg, status,2, status,0
  3706 ;; Tracked objects:
  3707 ;;		On entry : 0/0
  3708 ;;		On exit  : 0/0
  3709 ;;		Unchanged: 0/0
  3710 ;; Data sizes:     COMMON   BANK0   BANK1   BANK2   BANK3   BANK4   BANK5   BANK6
  3711 ;;      Params:         2       0       0       0       0       0       0       0
  3712 ;;      Locals:         0       0       0       0       0       0       0       0
  3713 ;;      Temps:          0       0       0       0       0       0       0       0
  3714 ;;      Totals:         2       0       0       0       0       0       0       0
  3715 ;;Total ram usage:        2 bytes
  3716 ;; Hardware stack levels used: 1
  3717 ;; Hardware stack levels required when called: 1
  3718 ;; This function calls:
  3719 ;;		Nothing
  3720 ;; This function is called by:
  3721 ;;		_main
  3722 ;;		_doTheArc
  3723 ;;		_playNote
  3724 ;;		_chargeIndicator
  3725 ;; This function uses a non-reentrant model
  3726 ;;
  3727                           
  3728                           
  3729                           ;psect for function _blockingDelay
  3730  0D9D                     _blockingDelay:
  3731  0D9D                     l1255:	
  3732                           ;incstack = 0
  3733                           ; Regs used in _blockingDelay: [wreg+status,2+status,0]
  3734                           
  3735                           
  3736                           ;main.c: 541:     if (debugging) genericDelay = 1;
  3737  0D9D  0140               	movlb	0	; select bank0
  3738  0D9E  0839               	movf	_debugging,w
  3739  0D9F  1903               	btfsc	3,2
  3740  0DA0  2DA2               	goto	u711
  3741  0DA1  2DA3               	goto	u710
  3742  0DA2                     u711:
  3743  0DA2  2DA8               	goto	l1259
  3744  0DA3                     u710:
  3745  0DA3                     l1257:
  3746  0DA3  3001               	movlw	1
  3747  0DA4  00A8               	movwf	_genericDelay
  3748  0DA5  3000               	movlw	0
  3749  0DA6  00A9               	movwf	_genericDelay+1
  3750  0DA7  2DAC               	goto	l1261
  3751  0DA8                     l1259:
  3752  0DA8  0872               	movf	blockingDelay@mSecs+1,w
  3753  0DA9  00A9               	movwf	_genericDelay+1
  3754  0DAA  0871               	movf	blockingDelay@mSecs,w
  3755  0DAB  00A8               	movwf	_genericDelay
  3756  0DAC                     l1261:
  3757  0DAC  0828               	movf	_genericDelay,w
  3758  0DAD  0429               	iorwf	_genericDelay+1,w
  3759  0DAE  1D03               	btfss	3,2
  3760  0DAF  2DB1               	goto	u721
  3761  0DB0  2DB2               	goto	u720
  3762  0DB1                     u721:
  3763  0DB1  2DAC               	goto	l1261
  3764  0DB2                     u720:
  3765  0DB2                     l233:
  3766  0DB2  0008               	return
  3767  0DB3                     __end_of_blockingDelay:
  3768                           
  3769                           	psect	text9
  3770  07B0                     __ptext9:	
  3771 ;; *************** function ___lmul *****************
  3772 ;; Defined at:
  3773 ;;		line 15 in file "C:\Program Files\Microchip\xc8\v2.32\pic\sources\c99\common\Umul32.c"
  3774 ;; Parameters:    Size  Location     Type
  3775 ;;  multiplier      4    1[COMMON] unsigned long 
  3776 ;;  multiplicand    4    5[COMMON] unsigned long 
  3777 ;; Auto vars:     Size  Location     Type
  3778 ;;  product         4    0[BANK0 ] unsigned long 
  3779 ;; Return value:  Size  Location     Type
  3780 ;;                  4    1[COMMON] unsigned long 
  3781 ;; Registers used:
  3782 ;;		wreg, status,2, status,0
  3783 ;; Tracked objects:
  3784 ;;		On entry : 0/0
  3785 ;;		On exit  : 0/0
  3786 ;;		Unchanged: 0/0
  3787 ;; Data sizes:     COMMON   BANK0   BANK1   BANK2   BANK3   BANK4   BANK5   BANK6
  3788 ;;      Params:         8       0       0       0       0       0       0       0
  3789 ;;      Locals:         0       4       0       0       0       0       0       0
  3790 ;;      Temps:          0       0       0       0       0       0       0       0
  3791 ;;      Totals:         8       4       0       0       0       0       0       0
  3792 ;;Total ram usage:       12 bytes
  3793 ;; Hardware stack levels used: 1
  3794 ;; Hardware stack levels required when called: 1
  3795 ;; This function calls:
  3796 ;;		Nothing
  3797 ;; This function is called by:
  3798 ;;		_chargeIndicator
  3799 ;; This function uses a non-reentrant model
  3800 ;;
  3801                           
  3802                           
  3803                           ;psect for function ___lmul
  3804  07B0                     ___lmul:
  3805  07B0                     l1697:	
  3806                           ;incstack = 0
  3807                           ; Regs used in ___lmul: [wreg+status,2+status,0]
  3808                           
  3809  07B0  3000               	movlw	0
  3810  07B1  0140               	movlb	0	; select bank0
  3811  07B2  00BE               	movwf	___lmul@product+3
  3812  07B3  3000               	movlw	0
  3813  07B4  00BD               	movwf	___lmul@product+2
  3814  07B5  3000               	movlw	0
  3815  07B6  00BC               	movwf	___lmul@product+1
  3816  07B7  3000               	movlw	0
  3817  07B8  00BB               	movwf	___lmul@product
  3818  07B9                     l1699:
  3819  07B9  1C71               	btfss	___lmul@multiplier,0
  3820  07BA  2FBC               	goto	u1411
  3821  07BB  2FBD               	goto	u1410
  3822  07BC                     u1411:
  3823  07BC  2FC6               	goto	l1703
  3824  07BD                     u1410:
  3825  07BD                     l1701:
  3826  07BD  0875               	movf	___lmul@multiplicand,w
  3827  07BE  0140               	movlb	0	; select bank0
  3828  07BF  07BB               	addwf	___lmul@product,f
  3829  07C0  0876               	movf	___lmul@multiplicand+1,w
  3830  07C1  3DBC               	addwfc	___lmul@product+1,f
  3831  07C2  0877               	movf	___lmul@multiplicand+2,w
  3832  07C3  3DBD               	addwfc	___lmul@product+2,f
  3833  07C4  0878               	movf	___lmul@multiplicand+3,w
  3834  07C5  3DBE               	addwfc	___lmul@product+3,f
  3835  07C6                     l1703:
  3836  07C6  3001               	movlw	1
  3837  07C7                     u1425:
  3838  07C7  35F5               	lslf	___lmul@multiplicand,f
  3839  07C8  0DF6               	rlf	___lmul@multiplicand+1,f
  3840  07C9  0DF7               	rlf	___lmul@multiplicand+2,f
  3841  07CA  0DF8               	rlf	___lmul@multiplicand+3,f
  3842  07CB  0B89               	decfsz	9,f
  3843  07CC  2FC7               	goto	u1425
  3844  07CD                     l1705:
  3845  07CD  3001               	movlw	1
  3846  07CE                     u1435:
  3847  07CE  36F4               	lsrf	___lmul@multiplier+3,f
  3848  07CF  0CF3               	rrf	___lmul@multiplier+2,f
  3849  07D0  0CF2               	rrf	___lmul@multiplier+1,f
  3850  07D1  0CF1               	rrf	___lmul@multiplier,f
  3851  07D2  0B89               	decfsz	9,f
  3852  07D3  2FCE               	goto	u1435
  3853  07D4  0874               	movf	___lmul@multiplier+3,w
  3854  07D5  0473               	iorwf	___lmul@multiplier+2,w
  3855  07D6  0472               	iorwf	___lmul@multiplier+1,w
  3856  07D7  0471               	iorwf	___lmul@multiplier,w
  3857  07D8  1D03               	skipz
  3858  07D9  2FDB               	goto	u1441
  3859  07DA  2FDC               	goto	u1440
  3860  07DB                     u1441:
  3861  07DB  2FB9               	goto	l1699
  3862  07DC                     u1440:
  3863  07DC                     l1707:
  3864  07DC  0140               	movlb	0	; select bank0
  3865  07DD  083E               	movf	___lmul@product+3,w
  3866  07DE  00F4               	movwf	?___lmul+3
  3867  07DF  083D               	movf	___lmul@product+2,w
  3868  07E0  00F3               	movwf	?___lmul+2
  3869  07E1  083C               	movf	___lmul@product+1,w
  3870  07E2  00F2               	movwf	?___lmul+1
  3871  07E3  083B               	movf	___lmul@product,w
  3872  07E4  00F1               	movwf	?___lmul
  3873  07E5                     l369:
  3874  07E5  0008               	return
  3875  07E6                     __end_of___lmul:
  3876                           
  3877                           	psect	text10
  3878  0DDB                     __ptext10:	
  3879 ;; *************** function ___lldiv *****************
  3880 ;; Defined at:
  3881 ;;		line 5 in file "C:\Program Files\Microchip\xc8\v2.32\pic\sources\c99\common\__lldiv.c"
  3882 ;; Parameters:    Size  Location     Type
  3883 ;;  divisor         4    4[BANK0 ] unsigned long 
  3884 ;;  dividend        4    8[BANK0 ] unsigned long 
  3885 ;; Auto vars:     Size  Location     Type
  3886 ;;  quotient        4   12[BANK0 ] unsigned long 
  3887 ;;  counter         1   16[BANK0 ] unsigned char 
  3888 ;; Return value:  Size  Location     Type
  3889 ;;                  4    4[BANK0 ] unsigned long 
  3890 ;; Registers used:
  3891 ;;		wreg, status,2, status,0
  3892 ;; Tracked objects:
  3893 ;;		On entry : 0/0
  3894 ;;		On exit  : 0/0
  3895 ;;		Unchanged: 0/0
  3896 ;; Data sizes:     COMMON   BANK0   BANK1   BANK2   BANK3   BANK4   BANK5   BANK6
  3897 ;;      Params:         0       8       0       0       0       0       0       0
  3898 ;;      Locals:         0       5       0       0       0       0       0       0
  3899 ;;      Temps:          1       0       0       0       0       0       0       0
  3900 ;;      Totals:         1      13       0       0       0       0       0       0
  3901 ;;Total ram usage:       14 bytes
  3902 ;; Hardware stack levels used: 1
  3903 ;; Hardware stack levels required when called: 1
  3904 ;; This function calls:
  3905 ;;		Nothing
  3906 ;; This function is called by:
  3907 ;;		_chargeIndicator
  3908 ;; This function uses a non-reentrant model
  3909 ;;
  3910                           
  3911                           
  3912                           ;psect for function ___lldiv
  3913  0DDB                     ___lldiv:
  3914  0DDB                     l1711:	
  3915                           ;incstack = 0
  3916                           ; Regs used in ___lldiv: [wreg+status,2+status,0]
  3917                           
  3918  0DDB  3000               	movlw	0
  3919  0DDC  0140               	movlb	0	; select bank0
  3920  0DDD  00CA               	movwf	___lldiv@quotient+3
  3921  0DDE  3000               	movlw	0
  3922  0DDF  00C9               	movwf	___lldiv@quotient+2
  3923  0DE0  3000               	movlw	0
  3924  0DE1  00C8               	movwf	___lldiv@quotient+1
  3925  0DE2  3000               	movlw	0
  3926  0DE3  00C7               	movwf	___lldiv@quotient
  3927  0DE4  0842               	movf	___lldiv@divisor+3,w
  3928  0DE5  0441               	iorwf	___lldiv@divisor+2,w
  3929  0DE6  0440               	iorwf	___lldiv@divisor+1,w
  3930  0DE7  043F               	iorwf	___lldiv@divisor,w
  3931  0DE8  1903               	skipnz
  3932  0DE9  2DEB               	goto	u1451
  3933  0DEA  2DEC               	goto	u1450
  3934  0DEB                     u1451:
  3935  0DEB  2E2D               	goto	l1731
  3936  0DEC                     u1450:
  3937  0DEC                     l1713:
  3938  0DEC  01CB               	clrf	___lldiv@counter
  3939  0DED  0ACB               	incf	___lldiv@counter,f
  3940  0DEE  2DFA               	goto	l1717
  3941  0DEF                     l1715:
  3942  0DEF  3001               	movlw	1
  3943  0DF0                     u1465:
  3944  0DF0  35BF               	lslf	___lldiv@divisor,f
  3945  0DF1  0DC0               	rlf	___lldiv@divisor+1,f
  3946  0DF2  0DC1               	rlf	___lldiv@divisor+2,f
  3947  0DF3  0DC2               	rlf	___lldiv@divisor+3,f
  3948  0DF4  0B89               	decfsz	9,f
  3949  0DF5  2DF0               	goto	u1465
  3950  0DF6  3001               	movlw	1
  3951  0DF7  00F9               	movwf	??___lldiv
  3952  0DF8  0879               	movf	??___lldiv,w
  3953  0DF9  07CB               	addwf	___lldiv@counter,f
  3954  0DFA                     l1717:
  3955  0DFA  1FC2               	btfss	___lldiv@divisor+3,7
  3956  0DFB  2DFD               	goto	u1471
  3957  0DFC  2DFE               	goto	u1470
  3958  0DFD                     u1471:
  3959  0DFD  2DEF               	goto	l1715
  3960  0DFE                     u1470:
  3961  0DFE                     l1719:
  3962  0DFE  3001               	movlw	1
  3963  0DFF                     u1485:
  3964  0DFF  35C7               	lslf	___lldiv@quotient,f
  3965  0E00  0DC8               	rlf	___lldiv@quotient+1,f
  3966  0E01  0DC9               	rlf	___lldiv@quotient+2,f
  3967  0E02  0DCA               	rlf	___lldiv@quotient+3,f
  3968  0E03  0B89               	decfsz	9,f
  3969  0E04  2DFF               	goto	u1485
  3970  0E05                     l1721:
  3971  0E05  0842               	movf	___lldiv@divisor+3,w
  3972  0E06  0246               	subwf	___lldiv@dividend+3,w
  3973  0E07  1D03               	skipz
  3974  0E08  2E13               	goto	u1495
  3975  0E09  0841               	movf	___lldiv@divisor+2,w
  3976  0E0A  0245               	subwf	___lldiv@dividend+2,w
  3977  0E0B  1D03               	skipz
  3978  0E0C  2E13               	goto	u1495
  3979  0E0D  0840               	movf	___lldiv@divisor+1,w
  3980  0E0E  0244               	subwf	___lldiv@dividend+1,w
  3981  0E0F  1D03               	skipz
  3982  0E10  2E13               	goto	u1495
  3983  0E11  083F               	movf	___lldiv@divisor,w
  3984  0E12  0243               	subwf	___lldiv@dividend,w
  3985  0E13                     u1495:
  3986  0E13  1C03               	skipc
  3987  0E14  2E16               	goto	u1491
  3988  0E15  2E17               	goto	u1490
  3989  0E16                     u1491:
  3990  0E16  2E20               	goto	l1727
  3991  0E17                     u1490:
  3992  0E17                     l1723:
  3993  0E17  083F               	movf	___lldiv@divisor,w
  3994  0E18  02C3               	subwf	___lldiv@dividend,f
  3995  0E19  0840               	movf	___lldiv@divisor+1,w
  3996  0E1A  3BC4               	subwfb	___lldiv@dividend+1,f
  3997  0E1B  0841               	movf	___lldiv@divisor+2,w
  3998  0E1C  3BC5               	subwfb	___lldiv@dividend+2,f
  3999  0E1D  0842               	movf	___lldiv@divisor+3,w
  4000  0E1E  3BC6               	subwfb	___lldiv@dividend+3,f
  4001  0E1F                     l1725:
  4002  0E1F  1447               	bsf	___lldiv@quotient,0
  4003  0E20                     l1727:
  4004  0E20  3001               	movlw	1
  4005  0E21                     u1505:
  4006  0E21  36C2               	lsrf	___lldiv@divisor+3,f
  4007  0E22  0CC1               	rrf	___lldiv@divisor+2,f
  4008  0E23  0CC0               	rrf	___lldiv@divisor+1,f
  4009  0E24  0CBF               	rrf	___lldiv@divisor,f
  4010  0E25  0B89               	decfsz	9,f
  4011  0E26  2E21               	goto	u1505
  4012  0E27                     l1729:
  4013  0E27  3001               	movlw	1
  4014  0E28  02CB               	subwf	___lldiv@counter,f
  4015  0E29  1D03               	btfss	3,2
  4016  0E2A  2E2C               	goto	u1511
  4017  0E2B  2E2D               	goto	u1510
  4018  0E2C                     u1511:
  4019  0E2C  2DFE               	goto	l1719
  4020  0E2D                     u1510:
  4021  0E2D                     l1731:
  4022  0E2D  084A               	movf	___lldiv@quotient+3,w
  4023  0E2E  00C2               	movwf	?___lldiv+3
  4024  0E2F  0849               	movf	___lldiv@quotient+2,w
  4025  0E30  00C1               	movwf	?___lldiv+2
  4026  0E31  0848               	movf	___lldiv@quotient+1,w
  4027  0E32  00C0               	movwf	?___lldiv+1
  4028  0E33  0847               	movf	___lldiv@quotient,w
  4029  0E34  00BF               	movwf	?___lldiv
  4030  0E35                     l391:
  4031  0E35  0008               	return
  4032  0E36                     __end_of___lldiv:
  4033                           
  4034                           	psect	intentry
  4035  0004                     __pintentry:	
  4036 ;; *************** function _isr *****************
  4037 ;; Defined at:
  4038 ;;		line 372 in file "main.c"
  4039 ;; Parameters:    Size  Location     Type
  4040 ;;		None
  4041 ;; Auto vars:     Size  Location     Type
  4042 ;;		None
  4043 ;; Return value:  Size  Location     Type
  4044 ;;                  1    wreg      void 
  4045 ;; Registers used:
  4046 ;;		wreg, status,2, status,0
  4047 ;; Tracked objects:
  4048 ;;		On entry : 0/0
  4049 ;;		On exit  : 0/0
  4050 ;;		Unchanged: 0/0
  4051 ;; Data sizes:     COMMON   BANK0   BANK1   BANK2   BANK3   BANK4   BANK5   BANK6
  4052 ;;      Params:         0       0       0       0       0       0       0       0
  4053 ;;      Locals:         0       0       0       0       0       0       0       0
  4054 ;;      Temps:          1       0       0       0       0       0       0       0
  4055 ;;      Totals:         1       0       0       0       0       0       0       0
  4056 ;;Total ram usage:        1 bytes
  4057 ;; Hardware stack levels used: 1
  4058 ;; This function calls:
  4059 ;;		Nothing
  4060 ;; This function is called by:
  4061 ;;		Interrupt level 1
  4062 ;; This function uses a non-reentrant model
  4063 ;;
  4064                           
  4065  0004                     _isr:
  4066                           
  4067                           ;incstack = 0
  4068  0004  147E               	bsf	int$flags,0	;set compiler interrupt flag (level 1)
  4069                           
  4070                           ; Regs used in _isr: [wreg+status,2+status,0]
  4071  0005  3180               	pagesel	$
  4072  0006                     i1l1579:
  4073                           
  4074                           ;main.c: 375:     if (PIR0bits.IOCIF) {
  4075  0006  014E               	movlb	14	; select bank14
  4076  0007  1E0C               	btfss	12,4	;volatile
  4077  0008  280A               	goto	u114_21
  4078  0009  280B               	goto	u114_20
  4079  000A                     u114_21:
  4080  000A  2865               	goto	i1l1635
  4081  000B                     u114_20:
  4082  000B                     i1l1581:
  4083                           
  4084                           ;main.c: 378:         if (IOCAF5) {
  4085  000B  017E               	movlb	62	; select bank62
  4086  000C  1EBF               	btfss	63,5	;volatile
  4087  000D  280F               	goto	u115_21
  4088  000E  2810               	goto	u115_20
  4089  000F                     u115_21:
  4090  000F  2820               	goto	i1l1593
  4091  0010                     u115_20:
  4092  0010                     i1l1583:
  4093                           
  4094                           ;main.c: 379:             IOCAF5 = 0;
  4095  0010  12BF               	bcf	63,5	;volatile
  4096                           
  4097                           ;main.c: 380:             if (PORTAbits.RA5) {
  4098  0011  0140               	movlb	0	; select bank0
  4099  0012  1E8C               	btfss	12,5	;volatile
  4100  0013  2815               	goto	u116_21
  4101  0014  2816               	goto	u116_20
  4102  0015                     u116_21:
  4103  0015  281C               	goto	i1l1589
  4104  0016                     u116_20:
  4105  0016                     i1l1585:
  4106                           
  4107                           ;main.c: 382:                 poweredOn = 0;
  4108  0016  01B8               	clrf	_poweredOn
  4109  0017                     i1l1587:
  4110                           
  4111                           ;main.c: 383:                 showCharge = 1;
  4112  0017  01B7               	clrf	_showCharge
  4113  0018  0AB7               	incf	_showCharge,f
  4114                           
  4115                           ;main.c: 384:                 doingTheArc = 0;
  4116  0019  01B6               	clrf	_doingTheArc
  4117                           
  4118                           ;main.c: 385:                 lowPowerMode = 0;
  4119  001A  01B5               	clrf	_lowPowerMode
  4120                           
  4121                           ;main.c: 386:             } else {
  4122  001B  2820               	goto	i1l1593
  4123  001C                     i1l1589:
  4124                           
  4125                           ;main.c: 388:                 poweredOn = 0;
  4126  001C  01B8               	clrf	_poweredOn
  4127  001D                     i1l1591:
  4128                           
  4129                           ;main.c: 389:                 lowPowerMode = 1;
  4130  001D  01B5               	clrf	_lowPowerMode
  4131  001E  0AB5               	incf	_lowPowerMode,f
  4132                           
  4133                           ;main.c: 390:                 showCharge = 0;
  4134  001F  01B7               	clrf	_showCharge
  4135  0020                     i1l1593:
  4136                           
  4137                           ;main.c: 395:         if (IOCAF0) {
  4138  0020  017E               	movlb	62	; select bank62
  4139  0021  1C3F               	btfss	63,0	;volatile
  4140  0022  2824               	goto	u117_21
  4141  0023  2825               	goto	u117_20
  4142  0024                     u117_21:
  4143  0024  2840               	goto	i1l1613
  4144  0025                     u117_20:
  4145  0025                     i1l1595:
  4146                           
  4147                           ;main.c: 396:             IOCAF0 = 0;
  4148  0025  103F               	bcf	63,0	;volatile
  4149                           
  4150                           ;main.c: 398:             if (!PORTAbits.RA0 && !PORTAbits.RA5) {
  4151  0026  0140               	movlb	0	; select bank0
  4152  0027  180C               	btfsc	12,0	;volatile
  4153  0028  282A               	goto	u118_21
  4154  0029  282B               	goto	u118_20
  4155  002A                     u118_21:
  4156  002A  2834               	goto	i1l1605
  4157  002B                     u118_20:
  4158  002B                     i1l1597:
  4159  002B  1A8C               	btfsc	12,5	;volatile
  4160  002C  282E               	goto	u119_21
  4161  002D  282F               	goto	u119_20
  4162  002E                     u119_21:
  4163  002E  2834               	goto	i1l1605
  4164  002F                     u119_20:
  4165  002F                     i1l1599:
  4166                           
  4167                           ;main.c: 399:                 lowPowerMode = 0;
  4168  002F  01B5               	clrf	_lowPowerMode
  4169  0030                     i1l1601:
  4170                           
  4171                           ;main.c: 400:                 poweredOn = 1;
  4172  0030  01B8               	clrf	_poweredOn
  4173  0031  0AB8               	incf	_poweredOn,f
  4174  0032                     i1l1603:
  4175                           
  4176                           ;main.c: 401:                 showCharge = 1;
  4177  0032  01B7               	clrf	_showCharge
  4178  0033  0AB7               	incf	_showCharge,f
  4179  0034                     i1l1605:
  4180                           
  4181                           ;main.c: 404:             if (PORTAbits.RA0 && !PORTAbits.RA5) {
  4182  0034  1C0C               	btfss	12,0	;volatile
  4183  0035  2837               	goto	u120_21
  4184  0036  2838               	goto	u120_20
  4185  0037                     u120_21:
  4186  0037  2840               	goto	i1l1613
  4187  0038                     u120_20:
  4188  0038                     i1l1607:
  4189  0038  1A8C               	btfsc	12,5	;volatile
  4190  0039  283B               	goto	u121_21
  4191  003A  283C               	goto	u121_20
  4192  003B                     u121_21:
  4193  003B  2840               	goto	i1l1613
  4194  003C                     u121_20:
  4195  003C                     i1l1609:
  4196                           
  4197                           ;main.c: 406:                 showCharge = 0;
  4198  003C  01B7               	clrf	_showCharge
  4199                           
  4200                           ;main.c: 407:                 poweredOn = 0;
  4201  003D  01B8               	clrf	_poweredOn
  4202  003E                     i1l1611:
  4203                           
  4204                           ;main.c: 408:                 lowPowerMode = 1;
  4205  003E  01B5               	clrf	_lowPowerMode
  4206  003F  0AB5               	incf	_lowPowerMode,f
  4207  0040                     i1l1613:
  4208                           
  4209                           ;main.c: 413:         if (IOCAF3) {
  4210  0040  017E               	movlb	62	; select bank62
  4211  0041  1DBF               	btfss	63,3	;volatile
  4212  0042  2844               	goto	u122_21
  4213  0043  2845               	goto	u122_20
  4214  0044                     u122_21:
  4215  0044  2865               	goto	i1l1635
  4216  0045                     u122_20:
  4217  0045                     i1l1615:
  4218                           
  4219                           ;main.c: 414:             IOCAF3 = 0;
  4220  0045  11BF               	bcf	63,3	;volatile
  4221                           
  4222                           ;main.c: 416:             if (!PORTAbits.RA3 && !PORTAbits.RA0 && !PORTAbits.RA5) {
  4223  0046  0140               	movlb	0	; select bank0
  4224  0047  198C               	btfsc	12,3	;volatile
  4225  0048  284A               	goto	u123_21
  4226  0049  284B               	goto	u123_20
  4227  004A                     u123_21:
  4228  004A  2857               	goto	i1l1625
  4229  004B                     u123_20:
  4230  004B                     i1l1617:
  4231  004B  180C               	btfsc	12,0	;volatile
  4232  004C  284E               	goto	u124_21
  4233  004D  284F               	goto	u124_20
  4234  004E                     u124_21:
  4235  004E  2857               	goto	i1l1625
  4236  004F                     u124_20:
  4237  004F                     i1l1619:
  4238  004F  1A8C               	btfsc	12,5	;volatile
  4239  0050  2852               	goto	u125_21
  4240  0051  2853               	goto	u125_20
  4241  0052                     u125_21:
  4242  0052  2857               	goto	i1l1625
  4243  0053                     u125_20:
  4244  0053                     i1l1621:
  4245                           
  4246                           ;main.c: 417:                 lowPowerMode = 0;
  4247  0053  01B5               	clrf	_lowPowerMode
  4248                           
  4249                           ;main.c: 418:                 showCharge = 0;
  4250  0054  01B7               	clrf	_showCharge
  4251  0055                     i1l1623:
  4252                           
  4253                           ;main.c: 419:                 doingTheArc = 1;
  4254  0055  01B6               	clrf	_doingTheArc
  4255  0056  0AB6               	incf	_doingTheArc,f
  4256  0057                     i1l1625:
  4257                           
  4258                           ;main.c: 423:             if (PORTAbits.RA3 && !PORTAbits.RA5) {
  4259  0057  1D8C               	btfss	12,3	;volatile
  4260  0058  285A               	goto	u126_21
  4261  0059  285B               	goto	u126_20
  4262  005A                     u126_21:
  4263  005A  2865               	goto	i1l1635
  4264  005B                     u126_20:
  4265  005B                     i1l1627:
  4266  005B  1A8C               	btfsc	12,5	;volatile
  4267  005C  285E               	goto	u127_21
  4268  005D  285F               	goto	u127_20
  4269  005E                     u127_21:
  4270  005E  2865               	goto	i1l1635
  4271  005F                     u127_20:
  4272  005F                     i1l1629:
  4273                           
  4274                           ;main.c: 424:                 lowPowerMode = 0;
  4275  005F  01B5               	clrf	_lowPowerMode
  4276                           
  4277                           ;main.c: 425:                 doingTheArc = 0;
  4278  0060  01B6               	clrf	_doingTheArc
  4279  0061                     i1l1631:
  4280                           
  4281                           ;main.c: 426:                 poweredOn = 1;
  4282  0061  01B8               	clrf	_poweredOn
  4283  0062  0AB8               	incf	_poweredOn,f
  4284  0063                     i1l1633:
  4285                           
  4286                           ;main.c: 427:                 showCharge = 1;
  4287  0063  01B7               	clrf	_showCharge
  4288  0064  0AB7               	incf	_showCharge,f
  4289  0065                     i1l1635:
  4290                           
  4291                           ;main.c: 437:     if (PIR1bits.TMR2IF) {
  4292  0065  014E               	movlb	14	; select bank14
  4293  0066  1F0D               	btfss	13,6	;volatile
  4294  0067  2869               	goto	u128_21
  4295  0068  286A               	goto	u128_20
  4296  0069                     u128_21:
  4297  0069  2884               	goto	i1l1649
  4298  006A                     u128_20:
  4299  006A                     i1l1637:
  4300                           
  4301                           ;main.c: 438:         if (!noGate) {
  4302  006A  0140               	movlb	0	; select bank0
  4303  006B  0854               	movf	_noGate,w
  4304  006C  0455               	iorwf	_noGate+1,w
  4305  006D  1D03               	btfss	3,2
  4306  006E  2870               	goto	u129_21
  4307  006F  2871               	goto	u129_20
  4308  0070                     u129_21:
  4309  0070  2880               	goto	i1l1645
  4310  0071                     u129_20:
  4311  0071                     i1l1639:
  4312                           
  4313                           ;main.c: 439:             postscaler ^= 1;
  4314  0071  3001               	movlw	1
  4315  0072  06AC               	xorwf	_postscaler,f
  4316  0073  3000               	movlw	0
  4317  0074  06AD               	xorwf	_postscaler+1,f
  4318  0075                     i1l1641:
  4319                           
  4320                           ;main.c: 440:             if (postscaler) {
  4321  0075  082C               	movf	_postscaler,w
  4322  0076  042D               	iorwf	_postscaler+1,w
  4323  0077  1903               	btfsc	3,2
  4324  0078  287A               	goto	u130_21
  4325  0079  287B               	goto	u130_20
  4326  007A                     u130_21:
  4327  007A  2882               	goto	i1l1647
  4328  007B                     u130_20:
  4329  007B                     i1l1643:
  4330                           
  4331                           ;main.c: 441:                 gate ^= 1;
  4332  007B  3001               	movlw	1
  4333  007C  06AE               	xorwf	_gate,f
  4334  007D  3000               	movlw	0
  4335  007E  06AF               	xorwf	_gate+1,f
  4336  007F  2882               	goto	i1l1647
  4337  0080                     i1l1645:
  4338                           
  4339                           ;main.c: 444:             gate = 0;
  4340  0080  01AE               	clrf	_gate
  4341  0081  01AF               	clrf	_gate+1
  4342  0082                     i1l1647:
  4343                           
  4344                           ;main.c: 446:         PIR1bits.TMR2IF = 0;
  4345  0082  014E               	movlb	14	; select bank14
  4346  0083  130D               	bcf	13,6	;volatile
  4347  0084                     i1l1649:
  4348                           
  4349                           ;main.c: 451:     if (PIR0bits.TMR0IF) {
  4350  0084  1E8C               	btfss	12,5	;volatile
  4351  0085  2887               	goto	u131_21
  4352  0086  2888               	goto	u131_20
  4353  0087                     u131_21:
  4354  0087  28CC               	goto	i1l211
  4355  0088                     u131_20:
  4356  0088                     i1l1651:
  4357                           
  4358                           ;main.c: 452:         if (clockDivider < 15) {
  4359  0088  300F               	movlw	15
  4360  0089  0140               	movlb	0	; select bank0
  4361  008A  023A               	subwf	_clockDivider,w
  4362  008B  1803               	skipnc
  4363  008C  288E               	goto	u132_21
  4364  008D  288F               	goto	u132_20
  4365  008E                     u132_21:
  4366  008E  2894               	goto	i1l1655
  4367  008F                     u132_20:
  4368  008F                     i1l1653:
  4369                           
  4370                           ;main.c: 453:             clockDivider++;
  4371  008F  3001               	movlw	1
  4372  0090  00F0               	movwf	??_isr
  4373  0091  0870               	movf	??_isr,w
  4374  0092  07BA               	addwf	_clockDivider,f
  4375                           
  4376                           ;main.c: 454:         } else {
  4377  0093  28A9               	goto	i1l1665
  4378  0094                     i1l1655:
  4379                           
  4380                           ;main.c: 455:             if (genericDelay > 0) genericDelay--;
  4381  0094  0828               	movf	_genericDelay,w
  4382  0095  0429               	iorwf	_genericDelay+1,w
  4383  0096  1903               	btfsc	3,2
  4384  0097  2899               	goto	u133_21
  4385  0098  289A               	goto	u133_20
  4386  0099                     u133_21:
  4387  0099  289E               	goto	i1l1659
  4388  009A                     u133_20:
  4389  009A                     i1l1657:
  4390  009A  3001               	movlw	1
  4391  009B  02A8               	subwf	_genericDelay,f
  4392  009C  3000               	movlw	0
  4393  009D  3BA9               	subwfb	_genericDelay+1,f
  4394  009E                     i1l1659:
  4395                           
  4396                           ;main.c: 456:             if (debugging) clockDivider = 15;
  4397  009E  0839               	movf	_debugging,w
  4398  009F  1903               	btfsc	3,2
  4399  00A0  28A2               	goto	u134_21
  4400  00A1  28A3               	goto	u134_20
  4401  00A2                     u134_21:
  4402  00A2  28A8               	goto	i1l1663
  4403  00A3                     u134_20:
  4404  00A3                     i1l1661:
  4405  00A3  300F               	movlw	15
  4406  00A4  00F0               	movwf	??_isr
  4407  00A5  0870               	movf	??_isr,w
  4408  00A6  00BA               	movwf	_clockDivider
  4409  00A7  28A9               	goto	i1l1665
  4410  00A8                     i1l1663:
  4411  00A8  01BA               	clrf	_clockDivider
  4412  00A9                     i1l1665:
  4413                           
  4414                           ;main.c: 463:         if (gate || forceArc) {
  4415  00A9  082E               	movf	_gate,w
  4416  00AA  042F               	iorwf	_gate+1,w
  4417  00AB  1D03               	btfss	3,2
  4418  00AC  28AE               	goto	u135_21
  4419  00AD  28AF               	goto	u135_20
  4420  00AE                     u135_21:
  4421  00AE  28B5               	goto	i1l1669
  4422  00AF                     u135_20:
  4423  00AF                     i1l1667:
  4424  00AF  0830               	movf	_forceArc,w
  4425  00B0  0431               	iorwf	_forceArc+1,w
  4426  00B1  1903               	btfsc	3,2
  4427  00B2  28B4               	goto	u136_21
  4428  00B3  28B5               	goto	u136_20
  4429  00B4                     u136_21:
  4430  00B4  28C8               	goto	i1l207
  4431  00B5                     u136_20:
  4432  00B5                     i1l1669:
  4433                           
  4434                           ;main.c: 464:             pinState ^= 1;
  4435  00B5  3001               	movlw	(0+1) shl (_pinState& (0+7))
  4436  00B6  06FB               	xorwf	_pinState/(0+8),f
  4437  00B7                     i1l1671:
  4438                           
  4439                           ;main.c: 465:             LATC4 = pinState;
  4440  00B7  187B               	btfsc	_pinState/(0+8),_pinState& (0+7)
  4441  00B8  28BA               	goto	u137_21
  4442  00B9  28BD               	goto	u137_20
  4443  00BA                     u137_21:
  4444  00BA  0140               	movlb	0	; select bank0
  4445  00BB  161A               	bsf	26,4	;volatile
  4446  00BC  28BF               	goto	u138_24
  4447  00BD                     u137_20:
  4448  00BD  0140               	movlb	0	; select bank0
  4449  00BE  121A               	bcf	26,4	;volatile
  4450  00BF                     u138_24:
  4451  00BF                     i1l1673:
  4452                           
  4453                           ;main.c: 466:             LATC5 = (pinState^1);
  4454  00BF  1C7B               	btfss	_pinState/(0+8),_pinState& (0+7)
  4455  00C0  28C2               	goto	u139_21
  4456  00C1  28C5               	goto	u139_20
  4457  00C2                     u139_21:
  4458  00C2  0140               	movlb	0	; select bank0
  4459  00C3  169A               	bsf	26,5	;volatile
  4460  00C4  28C7               	goto	u140_24
  4461  00C5                     u139_20:
  4462  00C5  0140               	movlb	0	; select bank0
  4463  00C6  129A               	bcf	26,5	;volatile
  4464  00C7                     u140_24:
  4465                           
  4466                           ;main.c: 467:         } else {
  4467  00C7  28CA               	goto	i1l210
  4468  00C8                     i1l207:
  4469                           
  4470                           ;main.c: 468:             LATC4 = 0;
  4471  00C8  121A               	bcf	26,4	;volatile
  4472                           
  4473                           ;main.c: 469:             LATC5 = 0;
  4474  00C9  129A               	bcf	26,5	;volatile
  4475  00CA                     i1l210:	
  4476                           ;main.c: 470:         }
  4477                           
  4478                           
  4479                           ;main.c: 471:         PIR0bits.TMR0IF = 0;
  4480  00CA  014E               	movlb	14	; select bank14
  4481  00CB  128C               	bcf	12,5	;volatile
  4482  00CC                     i1l211:
  4483  00CC  107E               	bcf	int$flags,0	;clear compiler interrupt flag (level 1)
  4484  00CD  0009               	retfie
  4485  00CE                     __end_of_isr:
  4486  007E                     btemp	set	126	;btemp
  4487  007E                     int$flags	set	126
  4488  007E                     wtemp0	set	126
  4489                           
  4490                           	psect	config
  4491                           
  4492                           ;Config register CONFIG1 @ 0x8007
  4493                           ;	External Oscillator Mode Selection bits
  4494                           ;	FEXTOSC = 0x3, unprogrammed default
  4495                           ;	Power-up Default Value for COSC bits
  4496                           ;	RSTOSC = 0x0, user specified literal
  4497                           ;	Clock Out Enable bit
  4498                           ;	CLKOUTEN = 0x1, user specified literal
  4499                           ;	VDD Range Analog Calibration Selection bit
  4500                           ;	VDDAR = 0x1, unprogrammed default
  4501  8007                     	org	32775
  4502  8007  3FCF               	dw	16335
  4503                           
  4504                           ;Config register CONFIG2 @ 0x8008
  4505                           ;	Master Clear Enable bit
  4506                           ;	MCLRE = 0x0, user specified literal
  4507                           ;	Power-up Timer Selection bits
  4508                           ;	PWRTS = 0x3, unprogrammed default
  4509                           ;	WDT Operating Mode bits
  4510                           ;	WDTE = 0x0, user specified literal
  4511                           ;	Brown-out Reset Enable bits
  4512                           ;	BOREN = 0x0, user specified literal
  4513                           ;	Brown-out Reset Voltage Selection bit
  4514                           ;	BORV = LO, Brown-out Reset Voltage (VBOR) set to 1.9V
  4515                           ;	PPSLOCKED One-Way Set Enable bit
  4516                           ;	PPS1WAY = 0x1, unprogrammed default
  4517                           ;	Stack Overflow/Underflow Reset Enable bit
  4518                           ;	STVREN = ON, Stack Overflow or Underflow will cause a reset
  4519  8008                     	org	32776
  4520  8008  3F26               	dw	16166
  4521                           
  4522                           ;Config register CONFIG4 @ 0x800A
  4523                           ;	Boot Block Size Selection bits
  4524                           ;	BBSIZE = 0x7, unprogrammed default
  4525                           ;	Boot Block Enable bit
  4526                           ;	BBEN = 0x1, unprogrammed default
  4527                           ;	SAF Enable bit
  4528                           ;	SAFEN = 0x1, unprogrammed default
  4529                           ;	Application Block Write Protection bit
  4530                           ;	WRTAPP = 0x1, unprogrammed default
  4531                           ;	Boot Block Write Protection bit
  4532                           ;	WRTB = 0x1, unprogrammed default
  4533                           ;	Configuration Registers Write Protection bit
  4534                           ;	WRTC = 0x1, unprogrammed default
  4535                           ;	Storage Area Flash (SAF) Write Protection bit
  4536                           ;	WRTSAF = OFF, SAF is not write-protected
  4537                           ;	Low Voltage Programming Enable bit
  4538                           ;	LVP = OFF, High Voltage on MCLR/Vpp must be used for programming
  4539  800A                     	org	32778
  4540  800A  1FFF               	dw	8191
  4541                           
  4542                           ;Config register CONFIG5 @ 0x800B
  4543                           ;	User Program Flash Memory Code Protection bit
  4544                           ;	CP = OFF, User Program Flash Memory code protection is disabled
  4545  800B                     	org	32779
  4546  800B  3FFF               	dw	16383

Data Sizes:
    Strings     0
    Constant    36
    Data        2
    BSS         27
    Persistent  32
    Stack       0

Auto Spaces:
    Space          Size  Autos    Used
    COMMON           14     11      12
    BANK0            80     25      54
    BANK1            80      0       0
    BANK2            80      0       0
    BANK3            80      0       0
    BANK4            80      0       0
    BANK5            80      0       0
    BANK6            16      0       0

Pointer List with Targets:

    None.

Critical Paths under _main in COMMON

    _main->_chargeIndicator
    _sheRa->_playNote
    _imperialMarch->_playNote
    _gargoyles->_playNote
    _playNote->_blockingDelay
    _chargeIndicator->___lldiv
    ___lldiv->___lmul

Critical Paths under _isr in COMMON

    None.

Critical Paths under _main in BANK0

    _main->_chargeIndicator
    _chargeIndicator->___lldiv
    ___lldiv->___lmul

Critical Paths under _isr in BANK0

    None.

Critical Paths under _main in BANK1

    None.

Critical Paths under _isr in BANK1

    None.

Critical Paths under _main in BANK2

    None.

Critical Paths under _isr in BANK2

    None.

Critical Paths under _main in BANK3

    None.

Critical Paths under _isr in BANK3

    None.

Critical Paths under _main in BANK4

    None.

Critical Paths under _isr in BANK4

    None.

Critical Paths under _main in BANK5

    None.

Critical Paths under _isr in BANK5

    None.

Critical Paths under _main in BANK6

    None.

Critical Paths under _isr in BANK6

    None.

Call Graph Tables:

 ---------------------------------------------------------------------------------
 (Depth) Function   	        Calls       Base Space   Used Autos Params    Refs
 ---------------------------------------------------------------------------------
 (0) _main                                                 4     0      4   75381
                                             21 BANK0      4     0      4
                      _blockingDelay
                    _chargeIndicator
                           _doTheArc
                         _goToLPmode
 ---------------------------------------------------------------------------------
 (1) _goToLPmode                                           0     0      0       0
 ---------------------------------------------------------------------------------
 (1) _doTheArc                                             2     2      0   72866
                                              6 COMMON     2     2      0
                      _blockingDelay
                          _gargoyles
                      _imperialMarch
                              _sheRa
 ---------------------------------------------------------------------------------
 (2) _sheRa                                                0     0      0   24028
                           _playNote
 ---------------------------------------------------------------------------------
 (2) _imperialMarch                                        0     0      0   24028
                           _playNote
 ---------------------------------------------------------------------------------
 (2) _gargoyles                                            0     0      0   24028
                           _playNote
 ---------------------------------------------------------------------------------
 (3) _playNote                                             3     1      2   24028
                                              3 COMMON     3     1      2
                      _blockingDelay
 ---------------------------------------------------------------------------------
 (1) _chargeIndicator                                      5     5      0    1733
                                             10 COMMON     1     1      0
                                             17 BANK0      4     4      0
                            ___lldiv
                             ___lmul
                      _blockingDelay
 ---------------------------------------------------------------------------------
 (4) _blockingDelay                                        2     0      2     782
                                              1 COMMON     2     0      2
 ---------------------------------------------------------------------------------
 (2) ___lmul                                              12     4      8     316
                                              1 COMMON     8     0      8
                                              0 BANK0      4     4      0
 ---------------------------------------------------------------------------------
 (2) ___lldiv                                             14     6      8     601
                                              9 COMMON     1     1      0
                                              4 BANK0     13     5      8
                             ___lmul (ARG)
 ---------------------------------------------------------------------------------
 Estimated maximum stack depth 4
 ---------------------------------------------------------------------------------
 (Depth) Function   	        Calls       Base Space   Used Autos Params    Refs
 ---------------------------------------------------------------------------------
 (5) _isr                                                  1     1      0       0
                                              0 COMMON     1     1      0
 ---------------------------------------------------------------------------------
 Estimated maximum stack depth 5
 ---------------------------------------------------------------------------------

 Call Graph Graphs:

 _main (ROOT)
   _blockingDelay
   _chargeIndicator
     ___lldiv
       ___lmul (ARG)
     ___lmul
     _blockingDelay
   _doTheArc
     _blockingDelay
     _gargoyles
       _playNote
         _blockingDelay
     _imperialMarch
       _playNote
     _sheRa
       _playNote
   _goToLPmode

 _isr (ROOT)

 Address spaces:
Name               Size   Autos  Total    Cost      Usage
BIGRAM             1F0      0       0       0        0.0%
NULL                 0      0       0       0        0.0%
CODE                 0      0       0       0        0.0%
BITCOMMON            E      0       1       1        7.1%
BITSFR0              0      0       0       1        0.0%
SFR0                 0      0       0       1        0.0%
COMMON               E      B       C       2       85.7%
BITSFR1              0      0       0       2        0.0%
SFR1                 0      0       0       2        0.0%
BITSFR2              0      0       0       3        0.0%
SFR2                 0      0       0       3        0.0%
STACK                0      0       0       3        0.0%
BITSFR3              0      0       0       4        0.0%
SFR3                 0      0       0       4        0.0%
ABS                  0      0      42       4        0.0%
BITBANK0            50      0       0       5        0.0%
BITSFR4              0      0       0       5        0.0%
SFR4                 0      0       0       5        0.0%
BANK0               50     19      36       6       67.5%
BITSFR5              0      0       0       6        0.0%
SFR5                 0      0       0       6        0.0%
BITBANK1            50      0       0       7        0.0%
BITSFR6              0      0       0       7        0.0%
SFR6                 0      0       0       7        0.0%
BANK1               50      0       0       8        0.0%
BITSFR7              0      0       0       8        0.0%
SFR7                 0      0       0       8        0.0%
BITBANK2            50      0       0       9        0.0%
BITSFR8              0      0       0       9        0.0%
SFR8                 0      0       0       9        0.0%
BANK2               50      0       0      10        0.0%
BITSFR9              0      0       0      10        0.0%
SFR9                 0      0       0      10        0.0%
BITBANK3            50      0       0      11        0.0%
BITSFR10             0      0       0      11        0.0%
SFR10                0      0       0      11        0.0%
BANK3               50      0       0      12        0.0%
BITSFR11             0      0       0      12        0.0%
SFR11                0      0       0      12        0.0%
BITBANK4            50      0       0      13        0.0%
BITSFR12             0      0       0      13        0.0%
SFR12                0      0       0      13        0.0%
BANK4               50      0       0      14        0.0%
BITSFR13             0      0       0      14        0.0%
SFR13                0      0       0      14        0.0%
BITBANK5            50      0       0      15        0.0%
BITSFR14             0      0       0      15        0.0%
SFR14                0      0       0      15        0.0%
BANK5               50      0       0      16        0.0%
BITSFR15             0      0       0      16        0.0%
SFR15                0      0       0      16        0.0%
BITBANK6            10      0       0      17        0.0%
BITSFR16             0      0       0      17        0.0%
SFR16                0      0       0      17        0.0%
BANK6               10      0       0      18        0.0%
BITSFR17             0      0       0      18        0.0%
SFR17                0      0       0      18        0.0%
BITSFR18             0      0       0      19        0.0%
SFR18                0      0       0      19        0.0%
DATA                 0      0      42      19        0.0%
BITSFR19             0      0       0      20        0.0%
SFR19                0      0       0      20        0.0%
BITSFR20             0      0       0      21        0.0%
SFR20                0      0       0      21        0.0%
BITSFR21             0      0       0      22        0.0%
SFR21                0      0       0      22        0.0%
BITSFR22             0      0       0      23        0.0%
SFR22                0      0       0      23        0.0%
BITSFR23             0      0       0      24        0.0%
SFR23                0      0       0      24        0.0%
BITSFR24             0      0       0      25        0.0%
SFR24                0      0       0      25        0.0%
BITSFR25             0      0       0      26        0.0%
SFR25                0      0       0      26        0.0%
BITSFR26             0      0       0      27        0.0%
SFR26                0      0       0      27        0.0%
BITSFR27             0      0       0      28        0.0%
SFR27                0      0       0      28        0.0%
BITSFR28             0      0       0      29        0.0%
SFR28                0      0       0      29        0.0%
BITSFR29             0      0       0      30        0.0%
SFR29                0      0       0      30        0.0%
BITSFR30             0      0       0      31        0.0%
SFR30                0      0       0      31        0.0%
BITSFR31             0      0       0      32        0.0%
SFR31                0      0       0      32        0.0%
BITSFR32             0      0       0      33        0.0%
SFR32                0      0       0      33        0.0%
BITSFR33             0      0       0      34        0.0%
SFR33                0      0       0      34        0.0%
BITSFR34             0      0       0      35        0.0%
SFR34                0      0       0      35        0.0%
BITSFR35             0      0       0      36        0.0%
SFR35                0      0       0      36        0.0%
BITSFR36             0      0       0      37        0.0%
SFR36                0      0       0      37        0.0%
BITSFR37             0      0       0      38        0.0%
SFR37                0      0       0      38        0.0%
BITSFR38             0      0       0      39        0.0%
SFR38                0      0       0      39        0.0%
BITSFR39             0      0       0      40        0.0%
SFR39                0      0       0      40        0.0%
BITSFR40             0      0       0      41        0.0%
SFR40                0      0       0      41        0.0%
BITSFR41             0      0       0      42        0.0%
SFR41                0      0       0      42        0.0%
BITSFR42             0      0       0      43        0.0%
SFR42                0      0       0      43        0.0%
BITSFR43             0      0       0      44        0.0%
SFR43                0      0       0      44        0.0%
BITSFR44             0      0       0      45        0.0%
SFR44                0      0       0      45        0.0%
BITSFR45             0      0       0      46        0.0%
SFR45                0      0       0      46        0.0%
BITSFR46             0      0       0      47        0.0%
SFR46                0      0       0      47        0.0%
BITSFR47             0      0       0      48        0.0%
SFR47                0      0       0      48        0.0%
BITSFR48             0      0       0      49        0.0%
SFR48                0      0       0      49        0.0%
BITSFR49             0      0       0      50        0.0%
SFR49                0      0       0      50        0.0%
BITSFR50             0      0       0      51        0.0%
SFR50                0      0       0      51        0.0%
BITSFR51             0      0       0      52        0.0%
SFR51                0      0       0      52        0.0%
BITSFR52             0      0       0      53        0.0%
SFR52                0      0       0      53        0.0%
BITSFR53             0      0       0      54        0.0%
SFR53                0      0       0      54        0.0%
BITSFR54             0      0       0      55        0.0%
SFR54                0      0       0      55        0.0%
BITSFR55             0      0       0      56        0.0%
SFR55                0      0       0      56        0.0%
BITSFR56             0      0       0      57        0.0%
SFR56                0      0       0      57        0.0%
BITSFR57             0      0       0      58        0.0%
SFR57                0      0       0      58        0.0%
BITSFR58             0      0       0      59        0.0%
SFR58                0      0       0      59        0.0%
BITSFR59             0      0       0      60        0.0%
SFR59                0      0       0      60        0.0%
BITSFR60             0      0       0      61        0.0%
SFR60                0      0       0      61        0.0%
BITSFR61             0      0       0      62        0.0%
SFR61                0      0       0      62        0.0%
BITSFR62             0      0       0      63        0.0%
SFR62                0      0       0      63        0.0%
BITSFR63             0      0       0      64        0.0%
SFR63                0      0       0      64        0.0%


Microchip Technology PIC Macro Assembler V2.32 build 20210201212658 
Symbol Table                                                                                   Tue Sep 21 21:29:41 2021

                     l221 0760                       l222 0775                       l223 0787  
                     l240 0DDA                       l216 0756                       l233 0DB2  
                     l225 07AF                       l243 0D9C                       l180 0F09  
                     l173 0E82                       l182 0F13                       l271 0725  
                     l263 0702                       l175 0EAD                       l272 0726  
                     l249 0664                       l258 06E9                       l275 0743  
                     l267 071B                       l268 071A                       l284 0FFF  
                     l278 04CD                       l391 0E35                       l287 064E  
                     l369 07E5                       _GIE 005F                       _PR2 028D  
                     u710 0DA3                       u711 0DA2                       u720 0DB2  
                     u721 0DB1                       u730 0DBA                       u731 0DB9  
                     u740 0DBF                       u741 0DBE                       u860 0753  
                     u861 0752                       u870 075F                       u871 075E  
                     _isr 0004                       wreg 0009                      l1321 0744  
                    l1331 0764                      l1323 0749                      l1261 0DAC  
                    l1341 0780                      l1333 076B                      l1325 074D  
                    l1255 0D9D                      l1271 0DCC                      l1263 0DB4  
                    l1351 0795                      l1343 0783                      l1335 076E  
                    l1327 0753                      l1257 0DA3                      l1273 0DD0  
                    l1265 0DBA                      l1281 04CE                      l1337 0771  
                    l1329 075A                      l1441 0D99                      l1433 0D93  
                    l1259 0DA8                      l1267 0DBF                      l1275 0DD8  
                    l1347 078B                      l1339 0779                      l1443 0D9A  
                    l1435 0D96                      l1701 07BD                      l1269 0DC1  
                    l1277 00E5                      l1349 0792                      l1357 0799  
                    l1445 0D9B                      l1437 0D97                      l1711 0DDB  
                    l1703 07C6                      l1279 0F17                      l1439 0D98  
                    l1721 0E05                      l1713 0DEC                      l1705 07CD  
                    l1801 0739                      l1723 0E17                      l1715 0DEF  
                    l1731 0E2D                      l1707 07DC                      l1803 073E  
                    l1811 0E3F                      l1725 0E1F                      l1717 0DFA  
                    l1741 065C                      l1901 0EA5                      l1821 0E47  
                    l1813 0E41                      l1805 0E36                      l1727 0E20  
                    l1719 0DFE                      l1751 0676                      l1743 065E  
                    l1735 064F                      l1911 0ED4                      l1903 0EAB  
                    l1831 0E4D                      l1823 0E49                      l1815 0E43  
                    l1807 0E3C                      l1729 0E27                      l1761 06D1  
                    l1753 06BC                      l1737 0655                      l1921 0EEE  
                    l1913 0EDD                      l1905 0EBB                      l1841 0E52  
                    l1833 0E4E                      l1825 0E4A                      l1817 0E44  
                    l1809 0E3D                      l1763 06DA                      l1771 06EB  
                    l1755 06C5                      l1747 0669                      l1739 0657  
                    l1931 0F06                      l1923 0EF4                      l1915 0EE6  
                    l1907 0EC2                      l1851 0E57                      l1843 0E53  
                    l1835 0E4F                      l1827 0E4B                      l1819 0E45  
                    l1773 06F4                      l1781 0704                      l1765 06DD  
                    l1757 06C9                      l1749 0671                      l1933 0F0B  
                    l1925 0EF7                      l1917 0EE8                      l1909 0ECB  
                    l1861 0E62                      l1853 0E58                      l1845 0E54  
                    l1837 0E50                      l1829 0E4C                      l1783 070D  
                    l1791 071E                      l1775 06F6                      l1767 06E2  
                    l1759 06CE                      l1935 0F10                      l1927 0EFD  
                    l1919 0EEC                      l1871 0E6D                      l1863 0E66  
                    l1855 0E5A                      l1847 0E55                      l1839 0E51  
                    l1697 07B0                      l1793 0723                      l1785 070E  
                    l1777 06FB                      l1769 06E7                      l1929 0F00  
                    l1881 0E74                      l1873 0E6F                      l1865 0E67  
                    l1857 0E5E                      l1849 0E56                      l1699 07B9  
                    l1787 0713                      l1779 0700                      l1795 0729  
                    l1891 0E91                      l1883 0E79                      l1875 0E70  
                    l1867 0E68                      l1859 0E60                      l1797 072E  
                    l1789 0718                      l1957 07A1                      l1893 0E96  
                    l1885 0E7A                      l1877 0E71                      l1869 0E6B  
                    l1799 0732                      l1895 0E98                      l1887 0E80  
                    l1879 0E73                      l1897 0EA3                      l1889 0E88  
                    l1899 0EA4                      ?_isr 0070                      u1410 07BD  
                    u1411 07BC                      u1510 0E2D                      u1511 0E2C  
                    u1440 07DC                      u1600 06E7                      u1520 0655  
                    u1505 0E21                      u1441 07DB                      u1425 07C7  
                    u1601 06E6                      u1521 0654                      u1450 0DEC  
                    u1610 06F4                      u1530 0664                      u1451 0DEB  
                    u1435 07CE                      u1611 06F3                      u1531 0663  
                    u1620 06FB                      u1540 0669                      u1700 0E80  
                    u1621 06FA                      u1541 0668                      u1701 0E7F  
                    u1470 0DFE                      u1630 0700                      u1550 0676  
                    u1710 0E96                      u1471 0DFD                      u1631 06FF  
                    u1551 0675                      u1711 0E95                      u1640 070D  
                    u1560 06C5                      u1720 0EAB                      u1465 0DF0  
                    u1641 070C                      u1561 06C4                      u1721 0EAA  
                    u1490 0E17                      u1650 0713                      u1570 06CE  
                    u1730 0EEC                      u1491 0E16                      u1651 0712  
                    u1571 06CD                      u1731 0EEB                      u1660 0718  
                    u1580 06DA                      u1740 0EF4                      u1485 0DFF  
                    u1661 0717                      u1581 06D9                      u1741 0EF3  
                    u1670 0723                      u1590 06E2                      u1750 0EFD  
                    u1495 0E13                      u1671 0722                      u1591 06E1  
                    u1751 0EFC                      u1680 072E                      u1760 0F06  
                    u1681 072D                      u1761 0F05                      u1690 0743  
                    u1770 0F10                      u1691 0742                      u1771 0F0F  
                    _PEIE 005E                      _INTE 38B0                      _gate 002E  
                    _main 0E36                      fsr0h 0005                      indf0 0000  
                    fsr0l 0004                      btemp 007E                      start 00CE  
        playNote@duration 0073                     ??_isr 0070                     _ADACT 009F  
                   ?_main 0050                     _ADRES 009B           __end_of___lldiv 0E36  
                   _LATA1 00C1                     _LATA2 00C2                     _LATC0 00D0  
                   _LATC1 00D1                     _LATC2 00D2                     _LATC3 00D3  
                   _LATC4 00D4                     _LATC5 00D5                     _IOCIE 38B4  
                   i1l210 00CA                     i1l211 00CC                     i1l207 00C8  
                   _WPUA0 F9C8                     _WPUA3 F9CB       ___lmul@multiplicand 0075  
                   _sheRa 04CE                     _notes 07E6            __pbitbssCOMMON 03D8  
                   status 0003                     wtemp0 007E           __initialization 00D0  
            __end_of_main 0F17           _chargeIndicator 064F                    ??_main 007B  
                  ?_sheRa 0070                    _ANSELC 1F4E                    _IOCAF0 F9F8  
                  _IOCAF3 F9FB                    _IOCAF5 F9FD                    _IOCAN0 F9F0  
                  _IOCAN3 F9F3                    _IOCAP0 F9E8                    _IOCAN5 F9F5  
                  _IOCAP3 F9EB                    _IOCAP5 F9ED                    u120_20 0038  
                  u120_21 0037                    i1l1601 0030                    i1l1611 003E  
                  i1l1603 0032                    i1l1621 0053                    i1l1605 0034  
                  i1l1613 0040                    i1l1631 0061                    i1l1623 0055  
                  i1l1615 0045                    i1l1607 0038                    u121_20 003C  
                  i1l1641 0075                    i1l1633 0063                    i1l1617 004B  
                  i1l1625 0057                    i1l1609 003C                    u121_21 003B  
                  i1l1651 0088                    i1l1643 007B                    i1l1627 005B  
                  i1l1619 004F                    i1l1635 0065                    i1l1661 00A3  
                  i1l1653 008F                    i1l1645 0080                    i1l1637 006A  
                  i1l1629 005F                    i1l1581 000B                    i1l1671 00B7  
                  i1l1663 00A8                    i1l1655 0094                    i1l1647 0082  
                  i1l1639 0071                    i1l1591 001D                    i1l1583 0010  
                  u130_20 007B                    u122_20 0045                    u114_20 000B  
                  i1l1673 00BF                    i1l1657 009A                    i1l1665 00A9  
                  u130_21 007A                    i1l1649 0084                    u122_21 0044  
                  i1l1585 0016                    i1l1593 0020                    u114_21 000A  
                  i1l1667 00AF                    i1l1659 009E                    i1l1595 0025  
                  i1l1587 0017                    i1l1579 0006                    i1l1669 00B5  
                  i1l1597 002B                    i1l1589 001C                    i1l1599 002F  
                  u131_20 0088                    u123_20 004B                    u115_20 0010  
                  u131_21 0087                    u123_21 004A                    u115_21 000F  
                  u132_20 008F                    u124_20 004F                    u116_20 0016  
                  u132_21 008E                    u124_21 004E                    u116_21 0015  
                  u140_24 00C7                    u133_20 009A                    u125_20 0053  
                  u117_20 0025                    u133_21 0099                    u125_21 0052  
                  u117_21 0024                    u134_20 00A3                    u126_20 005B  
                  u118_20 002B                    u134_21 00A2                    u126_21 005A  
                  u118_21 002A                    u135_20 00AF                    u127_20 005F  
                  u119_20 002F                    u135_21 00AE                    u127_21 005E  
                  u119_21 002E                    u136_20 00B5                    u128_20 006A  
                  u136_21 00B4                    u128_21 0069                    u137_20 00BD  
                  u129_20 0071                    u137_21 00BA                    u129_21 0070  
                  u138_24 00BF                    u139_20 00C5                    u139_21 00C2  
                  _NVMADR 081A                    _TMR0IE 38B5                    _TMR2IE 38BE  
                  _TRISA0 0090                    _TRISA1 0091                    _TRISA2 0092  
                  _TRISA3 0093                    _TRISA4 0094                    _TRISC0 00A0  
                  _TRISA5 0095                    _TRISC1 00A1                    _TRISC2 00A2  
                  _TRISC3 00A3                    _TRISC4 00A4                    _TRISC5 00A5  
        __end_of_doTheArc 07B0                    ___lmul 07B0                 ??___lldiv 0079  
                  _noGate 0054          __end_of_playNote 0DDB    __size_of_imperialMarch 03E9  
 __end_of__initialization 00E1   __end_of_chargeIndicator 0744            __pcstackCOMMON 0070  
            __pidataBANK0 0002             __end_of_sheRa 064F             __end_of_notes 080A  
   __end_of_blockingDelay 0DB3        __size_of_gargoyles 00E9                   ??_sheRa 0076  
              __pbssBANK0 0020             _imperialMarch 00E5                __pmaintext 0E36  
              _goToLPmode 0D93                   ?___lmul 0071                __pintentry 0004  
          ___lmul@product 003B                 ?_doTheArc 0070              _clockDivider 003A  
          ?_imperialMarch 0070          ?_chargeIndicator 0070                 ?_playNote 0073  
       __end_of_gargoyles 1000           __size_of___lmul 0036                   ___lldiv 0DDB  
                 __ptext1 0D93                   __ptext2 0744                   __ptext3 04CE  
                 __ptext4 00E5                   __ptext5 0F17                   __ptext6 0DB3  
                 __ptext7 064F                   __ptext8 0D9D                   __ptext9 07B0  
               _T2CONbits 028E              __size_of_isr 00CA                ??_doTheArc 0076  
               _T2HLTbits 028F      _chargeIndicator$1040 004C              _genericDelay 0028  
                 clrloop0 0D8E      end_of_initialization 00E1             _calibrationMV 0020  
              ??_playNote 0075           ___lldiv@divisor 003F           ___lldiv@counter 004B  
             ?_goToLPmode 0070                 _OSCENbits 0891                _showCharge 0037  
               _PORTAbits 000C                _postscaler 002C           ??_imperialMarch 0076  
          __end_of___lmul 07E6       start_initialization 00D0               __end_of_isr 00CE  
     __size_of_goToLPmode 000A        blockingDelay@mSecs 0071                  ??___lmul 0079  
             __pdataBANK0 0054                 ___latbits 0001             __pcstackBANK0 003B  
             _chargeCycle 0033         __size_of_doTheArc 006C                 _battVolts 0026  
               _debugging 0039    __size_of_blockingDelay 0016         __size_of_playNote 0028  
                ?___lldiv 003F                 _gargoyles 0F17              playNote@note 0075  
                _T2CLKCON 0290            __size_of_sheRa 0181                 _playIndex 002A  
               clear_ram0 0D8D               _doingTheArc 0036                  _PIR0bits 070C  
                _PIR1bits 070D              ??_goToLPmode 0071  __size_of_chargeIndicator 00F5  
              ?_gargoyles 0070                 _poweredOn 0038                _ADCON0bits 009D  
              _ADCON1bits 009E             _blockingDelay 0D9D         ___lmul@multiplier 0071  
      __end_of_goToLPmode 0D9D              _lowPowerMode 0035          __size_of___lldiv 005B  
                _adcVolts 0024                _ANSELAbits 1F38                  _doTheArc 0744  
          ?_blockingDelay 0071                _T0CON0bits 059E                _T0CON1bits 059F  
                _charging 0032                  __ptext10 0DDB                  _forceArc 0030  
           __size_of_main 00E1     __end_of_imperialMarch 04CE                  _pinState 03D8  
                _playNote 0DB3                  _runIndex 0034                  int$flags 007E  
             ??_gargoyles 0076                  main@argc 0050                  main@argv 0052  
       ??_chargeIndicator 007A               _NVMCON1bits 081E                _FVRCONbits 090C  
                intlevel1 0000          ___lldiv@dividend 0043                _OSCFRQbits 0893  
           __pstringtext1 07E6           ??_blockingDelay 0073          ___lldiv@quotient 0047  
