

Microchip MPLAB XC8 Assembler V2.32 build 20210201212658 
                                                                                               Fri Sep 24 16:25:50 2021

Microchip MPLAB XC8 C Compiler v2.32 (Free license) build 20210201212658 Og1 
     1                           	processor	16F15224
     2                           	pagewidth 120
     3                           	opt	flic
     4                           	psect	idataBANK0,global,class=CODE,delta=2,noexec
     5                           	psect	stringtext1,global,class=STRCODE,delta=2,noexec
     6                           	psect	stringtext2,global,class=STRCODE,delta=2,noexec
     7                           	psect	stringtext3,global,class=STRCODE,delta=2,noexec
     8                           	psect	cinit,global,class=CODE,merge=1,delta=2
     9                           	psect	bitbssCOMMON,global,bit,class=COMMON,space=1,delta=1,noexec
    10                           	psect	bssCOMMON,global,class=COMMON,space=1,delta=1,noexec
    11                           	psect	bssBANK0,global,class=BANK0,space=1,delta=1,noexec
    12                           	psect	dataBANK0,global,class=BANK0,space=1,delta=1,noexec
    13                           	psect	clrtext,global,class=CODE,delta=2
    14                           	psect	cstackCOMMON,global,class=COMMON,space=1,delta=1,noexec
    15                           	psect	cstackBANK0,global,class=BANK0,space=1,delta=1,noexec
    16                           	psect	maintext,global,class=CODE,merge=1,split=1,delta=2
    17                           	psect	text1,local,class=CODE,merge=1,delta=2
    18                           	psect	text2,local,class=CODE,merge=1,delta=2
    19                           	psect	text3,local,class=CODE,merge=1,delta=2
    20                           	psect	text4,local,class=CODE,merge=1,delta=2
    21                           	psect	text5,local,class=CODE,merge=1,delta=2
    22                           	psect	text6,local,class=CODE,merge=1,delta=2
    23                           	psect	text7,local,class=CODE,merge=1,delta=2,group=2
    24                           	psect	text8,local,class=CODE,merge=1,delta=2,group=1
    25                           	psect	intentry,global,class=CODE,delta=2
    26                           	psect	config,global,abs,ovrld,class=CONFIG,space=4,delta=2,noexec
    27                           	dabs	1,0x7E,2
    28  0000                     
    29                           ; Version 2.35
    30                           ; Generated 01/06/2021 GMT
    31                           ; 
    32                           ; Copyright © 2021, Microchip Technology Inc. and its subsidiaries ("Microchip")
    33                           ; All rights reserved.
    34                           ; 
    35                           ; This software is developed by Microchip Technology Inc. and its subsidiaries ("Microch
      +                          ip").
    36                           ; 
    37                           ; Redistribution and use in source and binary forms, with or without modification, are
    38                           ; permitted provided that the following conditions are met:
    39                           ; 
    40                           ;     1. Redistributions of source code must retain the above copyright notice, this lis
      +                          t of
    41                           ;        conditions and the following disclaimer.
    42                           ; 
    43                           ;     2. Redistributions in binary form must reproduce the above copyright notice, this 
      +                          list
    44                           ;        of conditions and the following disclaimer in the documentation and/or other
    45                           ;        materials provided with the distribution. Publication is not required when
    46                           ;        this file is used in an embedded application.
    47                           ; 
    48                           ;     3. Microchip's name may not be used to endorse or promote products derived from th
      +                          is
    49                           ;        software without specific prior written permission.
    50                           ; 
    51                           ; THIS SOFTWARE IS PROVIDED BY MICROCHIP "AS IS" AND ANY EXPRESS OR IMPLIED WARRANTIES,
    52                           ; INCLUDING, BUT NOT LIMITED TO, THE IMPLIED WARRANTIES OF MERCHANTABILITY AND FITNESS F
      +                          OR
    53                           ; PURPOSE ARE DISCLAIMED.  IN NO EVENT SHALL MICROCHIP BE LIABLE FOR ANY DIRECT, INDIREC
      +                          T,
    54                           ; INCIDENTAL, SPECIAL, EXEMPLARY, OR CONSEQUENTIAL DAMAGES (INCLUDING BUT NOT LIMITED TO
    55                           ; PROCUREMENT OF SUBSTITUTE GOODS OR SERVICES; LOSS OF USE, DATA OR PROFITS; OR BUSINESS
    56                           ; INTERRUPTION) HOWSOEVER CAUSED AND ON ANY THEORY OF LIABILITY, WHETHER IN CONTRACT, ST
      +                          RICT
    57                           ; LIABILITY, OR TORT (INCLUDING NEGLIGENCE OR OTHERWISE) ARISING IN ANY WAY OUT OF THE U
      +                          SE OF
    58                           ; THIS SOFTWARE, EVEN IF ADVISED OF THE POSSIBILITY OF SUCH DAMAGE.
    59                           ; 
    60                           ; 
    61                           ; Code-generator required, PIC16F15224 Definitions
    62                           ; 
    63                           ; SFR Addresses
    64  0000                     	;# 
    65  0001                     	;# 
    66  0002                     	;# 
    67  0003                     	;# 
    68  0004                     	;# 
    69  0005                     	;# 
    70  0006                     	;# 
    71  0007                     	;# 
    72  0008                     	;# 
    73  0009                     	;# 
    74  000A                     	;# 
    75  000B                     	;# 
    76  000C                     	;# 
    77  000E                     	;# 
    78  0012                     	;# 
    79  0014                     	;# 
    80  0018                     	;# 
    81  001A                     	;# 
    82  009A                     	;# 
    83  009B                     	;# 
    84  009B                     	;# 
    85  009C                     	;# 
    86  009D                     	;# 
    87  009E                     	;# 
    88  009F                     	;# 
    89  010E                     	;# 
    90  010F                     	;# 
    91  0119                     	;# 
    92  011A                     	;# 
    93  011B                     	;# 
    94  011B                     	;# 
    95  011C                     	;# 
    96  011D                     	;# 
    97  011E                     	;# 
    98  011F                     	;# 
    99  018C                     	;# 
   100  018D                     	;# 
   101  018E                     	;# 
   102  018F                     	;# 
   103  0190                     	;# 
   104  0191                     	;# 
   105  0192                     	;# 
   106  020C                     	;# 
   107  020D                     	;# 
   108  020E                     	;# 
   109  020E                     	;# 
   110  020F                     	;# 
   111  020F                     	;# 
   112  0210                     	;# 
   113  0210                     	;# 
   114  0211                     	;# 
   115  0211                     	;# 
   116  028C                     	;# 
   117  028C                     	;# 
   118  028D                     	;# 
   119  028D                     	;# 
   120  028E                     	;# 
   121  028F                     	;# 
   122  0290                     	;# 
   123  0291                     	;# 
   124  030C                     	;# 
   125  030C                     	;# 
   126  030D                     	;# 
   127  030E                     	;# 
   128  030F                     	;# 
   129  0310                     	;# 
   130  0310                     	;# 
   131  0311                     	;# 
   132  0312                     	;# 
   133  0313                     	;# 
   134  0314                     	;# 
   135  0314                     	;# 
   136  0315                     	;# 
   137  0316                     	;# 
   138  0318                     	;# 
   139  0318                     	;# 
   140  0319                     	;# 
   141  031A                     	;# 
   142  059C                     	;# 
   143  059C                     	;# 
   144  059D                     	;# 
   145  059D                     	;# 
   146  059E                     	;# 
   147  059F                     	;# 
   148  070C                     	;# 
   149  070D                     	;# 
   150  070E                     	;# 
   151  0716                     	;# 
   152  0717                     	;# 
   153  0718                     	;# 
   154  080C                     	;# 
   155  0811                     	;# 
   156  0813                     	;# 
   157  0814                     	;# 
   158  081A                     	;# 
   159  081A                     	;# 
   160  081B                     	;# 
   161  081C                     	;# 
   162  081C                     	;# 
   163  081D                     	;# 
   164  081E                     	;# 
   165  081F                     	;# 
   166  088E                     	;# 
   167  0890                     	;# 
   168  0891                     	;# 
   169  0892                     	;# 
   170  0893                     	;# 
   171  090C                     	;# 
   172  1E8F                     	;# 
   173  1E90                     	;# 
   174  1E91                     	;# 
   175  1E92                     	;# 
   176  1E93                     	;# 
   177  1E9C                     	;# 
   178  1EA1                     	;# 
   179  1EA2                     	;# 
   180  1EC3                     	;# 
   181  1EC5                     	;# 
   182  1EC6                     	;# 
   183  1EC7                     	;# 
   184  1ECB                     	;# 
   185  1ECB                     	;# 
   186  1ECB                     	;# 
   187  1ECC                     	;# 
   188  1ECC                     	;# 
   189  1ECC                     	;# 
   190  1F10                     	;# 
   191  1F11                     	;# 
   192  1F12                     	;# 
   193  1F14                     	;# 
   194  1F15                     	;# 
   195  1F20                     	;# 
   196  1F21                     	;# 
   197  1F22                     	;# 
   198  1F23                     	;# 
   199  1F24                     	;# 
   200  1F25                     	;# 
   201  1F38                     	;# 
   202  1F39                     	;# 
   203  1F3A                     	;# 
   204  1F3B                     	;# 
   205  1F3C                     	;# 
   206  1F3D                     	;# 
   207  1F3E                     	;# 
   208  1F3F                     	;# 
   209  1F4E                     	;# 
   210  1F4F                     	;# 
   211  1F50                     	;# 
   212  1F51                     	;# 
   213  1F52                     	;# 
   214  1F53                     	;# 
   215  1F54                     	;# 
   216  1F55                     	;# 
   217  1FE4                     	;# 
   218  1FE5                     	;# 
   219  1FE6                     	;# 
   220  1FE7                     	;# 
   221  1FE8                     	;# 
   222  1FE8                     	;# 
   223  1FE9                     	;# 
   224  1FEA                     	;# 
   225  1FEB                     	;# 
   226  1FED                     	;# 
   227  1FEE                     	;# 
   228  1FEF                     	;# 
   229                           
   230                           	psect	idataBANK0
   231  0002                     __pidataBANK0:
   232                           
   233                           ;initializer for _noGate
   234  0002  3401               	retlw	1
   235  0003  3400               	retlw	0
   236                           
   237                           	psect	stringtext1
   238  0124                     __pstringtext1:
   239  0124                     _gargoyles:
   240  0124  341E               	retlw	30
   241  0125  3400               	retlw	0
   242  0126  343E               	retlw	62
   243  0127  3406               	retlw	6
   244  0128  341C               	retlw	28
   245  0129  3400               	retlw	0
   246  012A  3466               	retlw	102
   247  012B  3401               	retlw	1
   248  012C  3400               	retlw	0
   249  012D  3400               	retlw	0
   250  012E  3428               	retlw	40
   251  012F  3400               	retlw	0
   252  0130  341A               	retlw	26
   253  0131  3400               	retlw	0
   254  0132  3466               	retlw	102
   255  0133  3401               	retlw	1
   256  0134  3400               	retlw	0
   257  0135  3400               	retlw	0
   258  0136  3428               	retlw	40
   259  0137  3400               	retlw	0
   260  0138  3419               	retlw	25
   261  0139  3400               	retlw	0
   262  013A  3466               	retlw	102
   263  013B  3401               	retlw	1
   264  013C  3400               	retlw	0
   265  013D  3400               	retlw	0
   266  013E  3428               	retlw	40
   267  013F  3400               	retlw	0
   268  0140  3417               	retlw	23
   269  0141  3400               	retlw	0
   270  0142  3466               	retlw	102
   271  0143  3401               	retlw	1
   272  0144  3400               	retlw	0
   273  0145  3400               	retlw	0
   274  0146  3428               	retlw	40
   275  0147  3400               	retlw	0
   276  0148  341F               	retlw	31
   277  0149  3400               	retlw	0
   278  014A  34AE               	retlw	174
   279  014B  3404               	retlw	4
   280  014C  341E               	retlw	30
   281  014D  3400               	retlw	0
   282  014E  34C6               	retlw	198
   283  014F  3400               	retlw	0
   284  0150  341C               	retlw	28
   285  0151  3400               	retlw	0
   286  0152  34C6               	retlw	198
   287  0153  3400               	retlw	0
   288  0154  3419               	retlw	25
   289  0155  3400               	retlw	0
   290  0156  3469               	retlw	105
   291  0157  3405               	retlw	5
   292  0158  3400               	retlw	0
   293  0159  3400               	retlw	0
   294  015A  3450               	retlw	80
   295  015B  3400               	retlw	0
   296  015C  341E               	retlw	30
   297  015D  3400               	retlw	0
   298  015E  343E               	retlw	62
   299  015F  3406               	retlw	6
   300  0160  341A               	retlw	26
   301  0161  3400               	retlw	0
   302  0162  347A               	retlw	122
   303  0163  3401               	retlw	1
   304  0164  3400               	retlw	0
   305  0165  3400               	retlw	0
   306  0166  3414               	retlw	20
   307  0167  3400               	retlw	0
   308  0168  341C               	retlw	28
   309  0169  3400               	retlw	0
   310  016A  347A               	retlw	122
   311  016B  3401               	retlw	1
   312  016C  3400               	retlw	0
   313  016D  3400               	retlw	0
   314  016E  3414               	retlw	20
   315  016F  3400               	retlw	0
   316  0170  341E               	retlw	30
   317  0171  3400               	retlw	0
   318  0172  347A               	retlw	122
   319  0173  3401               	retlw	1
   320  0174  3400               	retlw	0
   321  0175  3400               	retlw	0
   322  0176  3414               	retlw	20
   323  0177  3400               	retlw	0
   324  0178  341C               	retlw	28
   325  0179  3400               	retlw	0
   326  017A  347A               	retlw	122
   327  017B  3401               	retlw	1
   328  017C  3400               	retlw	0
   329  017D  3400               	retlw	0
   330  017E  3414               	retlw	20
   331  017F  3400               	retlw	0
   332  0180  341C               	retlw	28
   333  0181  3400               	retlw	0
   334  0182  34F6               	retlw	246
   335  0183  3402               	retlw	2
   336  0184  3400               	retlw	0
   337  0185  3400               	retlw	0
   338  0186  3428               	retlw	40
   339  0187  3400               	retlw	0
   340  0188  341F               	retlw	31
   341  0189  3400               	retlw	0
   342  018A  34F6               	retlw	246
   343  018B  3402               	retlw	2
   344  018C  3400               	retlw	0
   345  018D  3400               	retlw	0
   346  018E  3428               	retlw	40
   347  018F  3400               	retlw	0
   348  0190  3422               	retlw	34
   349  0191  3400               	retlw	0
   350  0192  3469               	retlw	105
   351  0193  3405               	retlw	5
   352  0194  3400               	retlw	0
   353  0195  3400               	retlw	0
   354  0196  3450               	retlw	80
   355  0197  3400               	retlw	0
   356  0198  341A               	retlw	26
   357  0199  3400               	retlw	0
   358  019A  340A               	retlw	10
   359  019B  3403               	retlw	3
   360  019C  3400               	retlw	0
   361  019D  3400               	retlw	0
   362  019E  3414               	retlw	20
   363  019F  3400               	retlw	0
   364  01A0  3419               	retlw	25
   365  01A1  3400               	retlw	0
   366  01A2  347A               	retlw	122
   367  01A3  3401               	retlw	1
   368  01A4  3400               	retlw	0
   369  01A5  3400               	retlw	0
   370  01A6  3414               	retlw	20
   371  01A7  3400               	retlw	0
   372  01A8  3417               	retlw	23
   373  01A9  3400               	retlw	0
   374  01AA  3466               	retlw	102
   375  01AB  3401               	retlw	1
   376  01AC  3400               	retlw	0
   377  01AD  3400               	retlw	0
   378  01AE  3428               	retlw	40
   379  01AF  3400               	retlw	0
   380  01B0  3419               	retlw	25
   381  01B1  3400               	retlw	0
   382  01B2  341E               	retlw	30
   383  01B3  3403               	retlw	3
   384  01B4  341C               	retlw	28
   385  01B5  3400               	retlw	0
   386  01B6  34F6               	retlw	246
   387  01B7  3402               	retlw	2
   388  01B8  3400               	retlw	0
   389  01B9  3400               	retlw	0
   390  01BA  3428               	retlw	40
   391  01BB  3400               	retlw	0
   392  01BC  341C               	retlw	28
   393  01BD  3400               	retlw	0
   394  01BE  34F6               	retlw	246
   395  01BF  3402               	retlw	2
   396  01C0  3400               	retlw	0
   397  01C1  3400               	retlw	0
   398  01C2  3428               	retlw	40
   399  01C3  3400               	retlw	0
   400  01C4  341A               	retlw	26
   401  01C5  3400               	retlw	0
   402  01C6  3466               	retlw	102
   403  01C7  3401               	retlw	1
   404  01C8  3400               	retlw	0
   405  01C9  3400               	retlw	0
   406  01CA  3428               	retlw	40
   407  01CB  3400               	retlw	0
   408  01CC  3419               	retlw	25
   409  01CD  3400               	retlw	0
   410  01CE  3466               	retlw	102
   411  01CF  3401               	retlw	1
   412  01D0  3400               	retlw	0
   413  01D1  3400               	retlw	0
   414  01D2  3428               	retlw	40
   415  01D3  3400               	retlw	0
   416  01D4  341A               	retlw	26
   417  01D5  3400               	retlw	0
   418  01D6  341E               	retlw	30
   419  01D7  3403               	retlw	3
   420  01D8  341E               	retlw	30
   421  01D9  3400               	retlw	0
   422  01DA  34F6               	retlw	246
   423  01DB  3402               	retlw	2
   424  01DC  3400               	retlw	0
   425  01DD  3400               	retlw	0
   426  01DE  3428               	retlw	40
   427  01DF  3400               	retlw	0
   428  01E0  341E               	retlw	30
   429  01E1  3400               	retlw	0
   430  01E2  34F6               	retlw	246
   431  01E3  3402               	retlw	2
   432  01E4  3400               	retlw	0
   433  01E5  3400               	retlw	0
   434  01E6  3428               	retlw	40
   435  01E7  3400               	retlw	0
   436  01E8  341D               	retlw	29
   437  01E9  3400               	retlw	0
   438  01EA  3466               	retlw	102
   439  01EB  3401               	retlw	1
   440  01EC  3400               	retlw	0
   441  01ED  3400               	retlw	0
   442  01EE  3428               	retlw	40
   443  01EF  3400               	retlw	0
   444  01F0  341B               	retlw	27
   445  01F1  3400               	retlw	0
   446  01F2  3466               	retlw	102
   447  01F3  3401               	retlw	1
   448  01F4  3400               	retlw	0
   449  01F5  3400               	retlw	0
   450  01F6  3428               	retlw	40
   451  01F7  3400               	retlw	0
   452  01F8  341D               	retlw	29
   453  01F9  3400               	retlw	0
   454  01FA  341E               	retlw	30
   455  01FB  3403               	retlw	3
   456  01FC  3420               	retlw	32
   457  01FD  3400               	retlw	0
   458  01FE  34F6               	retlw	246
   459  01FF  3402               	retlw	2
   460  0200  3400               	retlw	0
   461  0201  3400               	retlw	0
   462  0202  3428               	retlw	40
   463  0203  3400               	retlw	0
   464  0204  3420               	retlw	32
   465  0205  3400               	retlw	0
   466  0206  34F6               	retlw	246
   467  0207  3402               	retlw	2
   468  0208  3400               	retlw	0
   469  0209  3400               	retlw	0
   470  020A  3428               	retlw	40
   471  020B  3400               	retlw	0
   472  020C  341E               	retlw	30
   473  020D  3400               	retlw	0
   474  020E  3466               	retlw	102
   475  020F  3401               	retlw	1
   476  0210  3400               	retlw	0
   477  0211  3400               	retlw	0
   478  0212  3428               	retlw	40
   479  0213  3400               	retlw	0
   480  0214  341D               	retlw	29
   481  0215  3400               	retlw	0
   482  0216  3466               	retlw	102
   483  0217  3401               	retlw	1
   484  0218  3400               	retlw	0
   485  0219  3400               	retlw	0
   486  021A  3428               	retlw	40
   487  021B  3400               	retlw	0
   488  021C  3422               	retlw	34
   489  021D  3400               	retlw	0
   490  021E  34EE               	retlw	238
   491  021F  3405               	retlw	5
   492  0220  3400               	retlw	0
   493  0221  3400               	retlw	0
   494  0222  3450               	retlw	80
   495  0223  3400               	retlw	0
   496  0224  341E               	retlw	30
   497  0225  3400               	retlw	0
   498  0226  343E               	retlw	62
   499  0227  3406               	retlw	6
   500  0228  341C               	retlw	28
   501  0229  3400               	retlw	0
   502  022A  3466               	retlw	102
   503  022B  3401               	retlw	1
   504  022C  3400               	retlw	0
   505  022D  3400               	retlw	0
   506  022E  3428               	retlw	40
   507  022F  3400               	retlw	0
   508  0230  341A               	retlw	26
   509  0231  3400               	retlw	0
   510  0232  3466               	retlw	102
   511  0233  3401               	retlw	1
   512  0234  3400               	retlw	0
   513  0235  3400               	retlw	0
   514  0236  3428               	retlw	40
   515  0237  3400               	retlw	0
   516  0238  3419               	retlw	25
   517  0239  3400               	retlw	0
   518  023A  3466               	retlw	102
   519  023B  3401               	retlw	1
   520  023C  3400               	retlw	0
   521  023D  3400               	retlw	0
   522  023E  3428               	retlw	40
   523  023F  3400               	retlw	0
   524  0240  3417               	retlw	23
   525  0241  3400               	retlw	0
   526  0242  3466               	retlw	102
   527  0243  3401               	retlw	1
   528  0244  3400               	retlw	0
   529  0245  3400               	retlw	0
   530  0246  3428               	retlw	40
   531  0247  3400               	retlw	0
   532  0248  341F               	retlw	31
   533  0249  3400               	retlw	0
   534  024A  34AE               	retlw	174
   535  024B  3404               	retlw	4
   536  024C  341E               	retlw	30
   537  024D  3400               	retlw	0
   538  024E  34C6               	retlw	198
   539  024F  3400               	retlw	0
   540  0250  341C               	retlw	28
   541  0251  3400               	retlw	0
   542  0252  34C6               	retlw	198
   543  0253  3400               	retlw	0
   544  0254  3419               	retlw	25
   545  0255  3400               	retlw	0
   546  0256  3469               	retlw	105
   547  0257  3405               	retlw	5
   548  0258  3400               	retlw	0
   549  0259  3400               	retlw	0
   550  025A  3450               	retlw	80
   551  025B  3400               	retlw	0
   552  025C  341E               	retlw	30
   553  025D  3400               	retlw	0
   554  025E  343E               	retlw	62
   555  025F  3406               	retlw	6
   556  0260  341A               	retlw	26
   557  0261  3400               	retlw	0
   558  0262  347A               	retlw	122
   559  0263  3401               	retlw	1
   560  0264  3400               	retlw	0
   561  0265  3400               	retlw	0
   562  0266  3414               	retlw	20
   563  0267  3400               	retlw	0
   564  0268  341C               	retlw	28
   565  0269  3400               	retlw	0
   566  026A  347A               	retlw	122
   567  026B  3401               	retlw	1
   568  026C  3400               	retlw	0
   569  026D  3400               	retlw	0
   570  026E  3414               	retlw	20
   571  026F  3400               	retlw	0
   572  0270  341E               	retlw	30
   573  0271  3400               	retlw	0
   574  0272  347A               	retlw	122
   575  0273  3401               	retlw	1
   576  0274  3400               	retlw	0
   577  0275  3400               	retlw	0
   578  0276  3414               	retlw	20
   579  0277  3400               	retlw	0
   580  0278  341C               	retlw	28
   581  0279  3400               	retlw	0
   582  027A  347A               	retlw	122
   583  027B  3401               	retlw	1
   584  027C  3400               	retlw	0
   585  027D  3400               	retlw	0
   586  027E  3414               	retlw	20
   587  027F  3400               	retlw	0
   588  0280  341C               	retlw	28
   589  0281  3400               	retlw	0
   590  0282  34F6               	retlw	246
   591  0283  3402               	retlw	2
   592  0284  3400               	retlw	0
   593  0285  3400               	retlw	0
   594  0286  3428               	retlw	40
   595  0287  3400               	retlw	0
   596  0288  341F               	retlw	31
   597  0289  3400               	retlw	0
   598  028A  34F6               	retlw	246
   599  028B  3402               	retlw	2
   600  028C  3400               	retlw	0
   601  028D  3400               	retlw	0
   602  028E  3428               	retlw	40
   603  028F  3400               	retlw	0
   604  0290  3422               	retlw	34
   605  0291  3400               	retlw	0
   606  0292  34B9               	retlw	185
   607  0293  3405               	retlw	5
   608  0294  3400               	retlw	0
   609  0295  3400               	retlw	0
   610  0296  3428               	retlw	40
   611  0297  3400               	retlw	0
   612  0298  3423               	retlw	35
   613  0299  3400               	retlw	0
   614  029A  340A               	retlw	10
   615  029B  3403               	retlw	3
   616  029C  3400               	retlw	0
   617  029D  3400               	retlw	0
   618  029E  3414               	retlw	20
   619  029F  3400               	retlw	0
   620  02A0  3423               	retlw	35
   621  02A1  3400               	retlw	0
   622  02A2  346F               	retlw	111
   623  02A3  3400               	retlw	0
   624  02A4  3400               	retlw	0
   625  02A5  3400               	retlw	0
   626  02A6  3414               	retlw	20
   627  02A7  3400               	retlw	0
   628  02A8  3423               	retlw	35
   629  02A9  3400               	retlw	0
   630  02AA  346F               	retlw	111
   631  02AB  3400               	retlw	0
   632  02AC  3400               	retlw	0
   633  02AD  3400               	retlw	0
   634  02AE  3414               	retlw	20
   635  02AF  3400               	retlw	0
   636  02B0  3423               	retlw	35
   637  02B1  3400               	retlw	0
   638  02B2  346F               	retlw	111
   639  02B3  3400               	retlw	0
   640  02B4  3400               	retlw	0
   641  02B5  3400               	retlw	0
   642  02B6  3414               	retlw	20
   643  02B7  3400               	retlw	0
   644  02B8  3423               	retlw	35
   645  02B9  3400               	retlw	0
   646  02BA  340A               	retlw	10
   647  02BB  3403               	retlw	3
   648  02BC  3400               	retlw	0
   649  02BD  3400               	retlw	0
   650  02BE  3414               	retlw	20
   651  02BF  3400               	retlw	0
   652  02C0  3423               	retlw	35
   653  02C1  3400               	retlw	0
   654  02C2  346F               	retlw	111
   655  02C3  3400               	retlw	0
   656  02C4  3400               	retlw	0
   657  02C5  3400               	retlw	0
   658  02C6  3414               	retlw	20
   659  02C7  3400               	retlw	0
   660  02C8  3423               	retlw	35
   661  02C9  3400               	retlw	0
   662  02CA  346F               	retlw	111
   663  02CB  3400               	retlw	0
   664  02CC  3400               	retlw	0
   665  02CD  3400               	retlw	0
   666  02CE  3414               	retlw	20
   667  02CF  3400               	retlw	0
   668  02D0  3423               	retlw	35
   669  02D1  3400               	retlw	0
   670  02D2  346F               	retlw	111
   671  02D3  3400               	retlw	0
   672  02D4  3400               	retlw	0
   673  02D5  3400               	retlw	0
   674  02D6  3414               	retlw	20
   675  02D7  3400               	retlw	0
   676  02D8  3423               	retlw	35
   677  02D9  3400               	retlw	0
   678  02DA  346F               	retlw	111
   679  02DB  3400               	retlw	0
   680  02DC  3400               	retlw	0
   681  02DD  3400               	retlw	0
   682  02DE  3414               	retlw	20
   683  02DF  3400               	retlw	0
   684  02E0  3423               	retlw	35
   685  02E1  3400               	retlw	0
   686  02E2  341E               	retlw	30
   687  02E3  3403               	retlw	3
   688  02E4                     __end_of_gargoyles:
   689                           
   690                           	psect	stringtext2
   691  04E9                     __pstringtext2:
   692  04E9                     _sheRa:
   693  04E9  340B               	retlw	11
   694  04EA  3400               	retlw	0
   695  04EB  34D8               	retlw	216
   696  04EC  3400               	retlw	0
   697  04ED  340D               	retlw	13
   698  04EE  3400               	retlw	0
   699  04EF  34D8               	retlw	216
   700  04F0  3400               	retlw	0
   701  04F1  340E               	retlw	14
   702  04F2  3400               	retlw	0
   703  04F3  349C               	retlw	156
   704  04F4  3401               	retlw	1
   705  04F5  3400               	retlw	0
   706  04F6  3400               	retlw	0
   707  04F7  3415               	retlw	21
   708  04F8  3400               	retlw	0
   709  04F9  3412               	retlw	18
   710  04FA  3400               	retlw	0
   711  04FB  34A7               	retlw	167
   712  04FC  3401               	retlw	1
   713  04FD  3400               	retlw	0
   714  04FE  3400               	retlw	0
   715  04FF  3415               	retlw	21
   716  0500  3400               	retlw	0
   717  0501  3413               	retlw	19
   718  0502  3400               	retlw	0
   719  0503  348B               	retlw	139
   720  0504  3402               	retlw	2
   721  0505  3412               	retlw	18
   722  0506  3400               	retlw	0
   723  0507  346B               	retlw	107
   724  0508  3400               	retlw	0
   725  0509  3410               	retlw	16
   726  050A  3400               	retlw	0
   727  050B  346B               	retlw	107
   728  050C  3400               	retlw	0
   729  050D  3412               	retlw	18
   730  050E  3400               	retlw	0
   731  050F  3464               	retlw	100
   732  0510  3403               	retlw	3
   733  0511  3400               	retlw	0
   734  0512  3400               	retlw	0
   735  0513  34B1               	retlw	177
   736  0514  3401               	retlw	1
   737  0515  340B               	retlw	11
   738  0516  3400               	retlw	0
   739  0517  34D8               	retlw	216
   740  0518  3400               	retlw	0
   741  0519  340D               	retlw	13
   742  051A  3400               	retlw	0
   743  051B  34D8               	retlw	216
   744  051C  3400               	retlw	0
   745  051D  340E               	retlw	14
   746  051E  3400               	retlw	0
   747  051F  34B1               	retlw	177
   748  0520  3401               	retlw	1
   749  0521  3412               	retlw	18
   750  0522  3400               	retlw	0
   751  0523  34B1               	retlw	177
   752  0524  3401               	retlw	1
   753  0525  3417               	retlw	23
   754  0526  3400               	retlw	0
   755  0527  349C               	retlw	156
   756  0528  3401               	retlw	1
   757  0529  3400               	retlw	0
   758  052A  3400               	retlw	0
   759  052B  3415               	retlw	21
   760  052C  3400               	retlw	0
   761  052D  3415               	retlw	21
   762  052E  3400               	retlw	0
   763  052F  349C               	retlw	156
   764  0530  3401               	retlw	1
   765  0531  3400               	retlw	0
   766  0532  3400               	retlw	0
   767  0533  3415               	retlw	21
   768  0534  3400               	retlw	0
   769  0535  3412               	retlw	18
   770  0536  3400               	retlw	0
   771  0537  3464               	retlw	100
   772  0538  3403               	retlw	3
   773  0539  3400               	retlw	0
   774  053A  3400               	retlw	0
   775  053B  34B1               	retlw	177
   776  053C  3401               	retlw	1
   777  053D  340B               	retlw	11
   778  053E  3400               	retlw	0
   779  053F  34D8               	retlw	216
   780  0540  3400               	retlw	0
   781  0541  340D               	retlw	13
   782  0542  3400               	retlw	0
   783  0543  34D8               	retlw	216
   784  0544  3400               	retlw	0
   785  0545  340E               	retlw	14
   786  0546  3400               	retlw	0
   787  0547  34B1               	retlw	177
   788  0548  3401               	retlw	1
   789  0549  3412               	retlw	18
   790  054A  3400               	retlw	0
   791  054B  34B1               	retlw	177
   792  054C  3401               	retlw	1
   793  054D  3413               	retlw	19
   794  054E  3400               	retlw	0
   795  054F  348B               	retlw	139
   796  0550  3402               	retlw	2
   797  0551  3412               	retlw	18
   798  0552  3400               	retlw	0
   799  0553  346B               	retlw	107
   800  0554  3400               	retlw	0
   801  0555  3410               	retlw	16
   802  0556  3400               	retlw	0
   803  0557  346B               	retlw	107
   804  0558  3400               	retlw	0
   805  0559  3412               	retlw	18
   806  055A  3400               	retlw	0
   807  055B  3464               	retlw	100
   808  055C  3403               	retlw	3
   809  055D  3413               	retlw	19
   810  055E  3400               	retlw	0
   811  055F  342F               	retlw	47
   812  0560  3401               	retlw	1
   813  0561  3400               	retlw	0
   814  0562  3400               	retlw	0
   815  0563  3415               	retlw	21
   816  0564  3400               	retlw	0
   817  0565  3412               	retlw	18
   818  0566  3400               	retlw	0
   819  0567  342F               	retlw	47
   820  0568  3401               	retlw	1
   821  0569  3400               	retlw	0
   822  056A  3400               	retlw	0
   823  056B  3415               	retlw	21
   824  056C  3400               	retlw	0
   825  056D  3413               	retlw	19
   826  056E  3400               	retlw	0
   827  056F  34C2               	retlw	194
   828  0570  3400               	retlw	0
   829  0571  3400               	retlw	0
   830  0572  3400               	retlw	0
   831  0573  3415               	retlw	21
   832  0574  3400               	retlw	0
   833  0575  3415               	retlw	21
   834  0576  3400               	retlw	0
   835  0577  348B               	retlw	139
   836  0578  3402               	retlw	2
   837  0579  3412               	retlw	18
   838  057A  3400               	retlw	0
   839  057B  3462               	retlw	98
   840  057C  3400               	retlw	0
   841  057D  3410               	retlw	16
   842  057E  3400               	retlw	0
   843  057F  346B               	retlw	107
   844  0580  3400               	retlw	0
   845  0581  3412               	retlw	18
   846  0582  3400               	retlw	0
   847  0583  34CA               	retlw	202
   848  0584  3406               	retlw	6
   849  0585  3400               	retlw	0
   850  0586  3400               	retlw	0
   851  0587  34B1               	retlw	177
   852  0588  3401               	retlw	1
   853  0589  3414               	retlw	20
   854  058A  3400               	retlw	0
   855  058B  34D8               	retlw	216
   856  058C  3400               	retlw	0
   857  058D  3416               	retlw	22
   858  058E  3400               	retlw	0
   859  058F  34D8               	retlw	216
   860  0590  3400               	retlw	0
   861  0591  3417               	retlw	23
   862  0592  3400               	retlw	0
   863  0593  34B1               	retlw	177
   864  0594  3401               	retlw	1
   865  0595  341B               	retlw	27
   866  0596  3400               	retlw	0
   867  0597  34B1               	retlw	177
   868  0598  3401               	retlw	1
   869  0599  341C               	retlw	28
   870  059A  3400               	retlw	0
   871  059B  348B               	retlw	139
   872  059C  3402               	retlw	2
   873  059D  341B               	retlw	27
   874  059E  3400               	retlw	0
   875  059F  346B               	retlw	107
   876  05A0  3400               	retlw	0
   877  05A1  3419               	retlw	25
   878  05A2  3400               	retlw	0
   879  05A3  346B               	retlw	107
   880  05A4  3400               	retlw	0
   881  05A5  341B               	retlw	27
   882  05A6  3400               	retlw	0
   883  05A7  344E               	retlw	78
   884  05A8  3403               	retlw	3
   885  05A9  3400               	retlw	0
   886  05AA  3400               	retlw	0
   887  05AB  3415               	retlw	21
   888  05AC  3400               	retlw	0
   889  05AD  341C               	retlw	28
   890  05AE  3400               	retlw	0
   891  05AF  342F               	retlw	47
   892  05B0  3401               	retlw	1
   893  05B1  3400               	retlw	0
   894  05B2  3400               	retlw	0
   895  05B3  3415               	retlw	21
   896  05B4  3400               	retlw	0
   897  05B5  341B               	retlw	27
   898  05B6  3400               	retlw	0
   899  05B7  342F               	retlw	47
   900  05B8  3401               	retlw	1
   901  05B9  3400               	retlw	0
   902  05BA  3400               	retlw	0
   903  05BB  3415               	retlw	21
   904  05BC  3400               	retlw	0
   905  05BD  341C               	retlw	28
   906  05BE  3400               	retlw	0
   907  05BF  34C2               	retlw	194
   908  05C0  3400               	retlw	0
   909  05C1  3400               	retlw	0
   910  05C2  3400               	retlw	0
   911  05C3  3415               	retlw	21
   912  05C4  3400               	retlw	0
   913  05C5  341E               	retlw	30
   914  05C6  3400               	retlw	0
   915  05C7  3475               	retlw	117
   916  05C8  3402               	retlw	2
   917  05C9  3400               	retlw	0
   918  05CA  3400               	retlw	0
   919  05CB  3415               	retlw	21
   920  05CC  3400               	retlw	0
   921  05CD  3420               	retlw	32
   922  05CE  3400               	retlw	0
   923  05CF  346B               	retlw	107
   924  05D0  3400               	retlw	0
   925  05D1  3422               	retlw	34
   926  05D2  3400               	retlw	0
   927  05D3  346B               	retlw	107
   928  05D4  3400               	retlw	0
   929  05D5  3423               	retlw	35
   930  05D6  3400               	retlw	0
   931  05D7  34CA               	retlw	202
   932  05D8  3406               	retlw	6
   933  05D9                     __end_of_sheRa:
   934                           
   935                           	psect	stringtext3
   936  07E4                     __pstringtext3:
   937  07E4                     _notes:
   938  07E4  34ED               	retlw	237
   939  07E5  34E0               	retlw	224
   940  07E6  34D3               	retlw	211
   941  07E7  34C7               	retlw	199
   942  07E8  34BD               	retlw	189
   943  07E9  34B2               	retlw	178
   944  07EA  34A8               	retlw	168
   945  07EB  349E               	retlw	158
   946  07EC  3496               	retlw	150
   947  07ED  348D               	retlw	141
   948  07EE  3485               	retlw	133
   949  07EF  347D               	retlw	125
   950  07F0  3476               	retlw	118
   951  07F1  3470               	retlw	112
   952  07F2  346A               	retlw	106
   953  07F3  3463               	retlw	99
   954  07F4  345E               	retlw	94
   955  07F5  3459               	retlw	89
   956  07F6  3454               	retlw	84
   957  07F7  344F               	retlw	79
   958  07F8  344B               	retlw	75
   959  07F9  3446               	retlw	70
   960  07FA  3442               	retlw	66
   961  07FB  343F               	retlw	63
   962  07FC  343B               	retlw	59
   963  07FD  3438               	retlw	56
   964  07FE  3434               	retlw	52
   965  07FF  3432               	retlw	50
   966  0800  342F               	retlw	47
   967  0801  342C               	retlw	44
   968  0802  342A               	retlw	42
   969  0803  3427               	retlw	39
   970  0804  3425               	retlw	37
   971  0805  3423               	retlw	35
   972  0806  3421               	retlw	33
   973  0807  341F               	retlw	31
   974  0808                     __end_of_notes:
   975  000C                     _PORTA	set	12
   976  000C                     _PORTAbits	set	12
   977  005F                     _GIE	set	95
   978  005E                     _PEIE	set	94
   979  00D5                     _LATC5	set	213
   980  00D4                     _LATC4	set	212
   981  00D3                     _LATC3	set	211
   982  00D2                     _LATC2	set	210
   983  00D1                     _LATC1	set	209
   984  00D0                     _LATC0	set	208
   985  00C2                     _LATA2	set	194
   986  00C1                     _LATA1	set	193
   987  00A5                     _TRISC5	set	165
   988  00A4                     _TRISC4	set	164
   989  00A3                     _TRISC3	set	163
   990  00A2                     _TRISC2	set	162
   991  00A1                     _TRISC1	set	161
   992  00A0                     _TRISC0	set	160
   993  0095                     _TRISA5	set	149
   994  0094                     _TRISA4	set	148
   995  0093                     _TRISA3	set	147
   996  0092                     _TRISA2	set	146
   997  0091                     _TRISA1	set	145
   998  0090                     _TRISA0	set	144
   999  009B                     _ADRES	set	155
  1000  009D                     _ADCON0bits	set	157
  1001  009E                     _ADCON1bits	set	158
  1002  020C                     _TMR1L	set	524
  1003  020D                     _TMR1H	set	525
  1004  0211                     _T1CLKbits	set	529
  1005  020E                     _T1CONbits	set	526
  1006  028F                     _T2HLTbits	set	655
  1007  028E                     _T2CONbits	set	654
  1008  0290                     _T2CLKCON	set	656
  1009  0314                     _PWM3DC	set	788
  1010  031A                     _PWM4CONbits	set	794
  1011  0312                     _CCP2CONbits	set	786
  1012  030E                     _CCP1CONbits	set	782
  1013  0316                     _PWM3CONbits	set	790
  1014  059D                     _TMR0H	set	1437
  1015  059F                     _T0CON1bits	set	1439
  1016  059E                     _T0CON0bits	set	1438
  1017  070C                     _PIR0bits	set	1804
  1018  070D                     _PIR1bits	set	1805
  1019  38B4                     _IOCIE	set	14516
  1020  38B0                     _INTE	set	14512
  1021  38BD                     _TMR1IE	set	14525
  1022  38B5                     _TMR0IE	set	14517
  1023  081C                     _NVMDAT	set	2076
  1024  081A                     _NVMADR	set	2074
  1025  081E                     _NVMCON1bits	set	2078
  1026  0891                     _OSCENbits	set	2193
  1027  0893                     _OSCFRQbits	set	2195
  1028  090C                     _FVRCONbits	set	2316
  1029  1F21                     _RC1PPS	set	7969
  1030  1F20                     _RC0PPS	set	7968
  1031  1F12                     _RA2PPS	set	7954
  1032  1F11                     _RA1PPS	set	7953
  1033  1F22                     _RC2PPS	set	7970
  1034  1F4E                     _ANSELC	set	8014
  1035  1F38                     _ANSELAbits	set	7992
  1036  F9FB                     _IOCAF3	set	63995
  1037  F9F8                     _IOCAF0	set	63992
  1038  F9FC                     _IOCAF4	set	63996
  1039  F9EC                     _IOCAP4	set	63980
  1040  F9F4                     _IOCAN4	set	63988
  1041  F9EB                     _IOCAP3	set	63979
  1042  F9F3                     _IOCAN3	set	63987
  1043  F9E8                     _IOCAP0	set	63976
  1044  F9F0                     _IOCAN0	set	63984
  1045  F9CC                     _WPUA4	set	63948
  1046  F9CB                     _WPUA3	set	63947
  1047  F9C8                     _WPUA0	set	63944
  1048                           
  1049                           	psect	cinit
  1050  010D                     start_initialization:	
  1051                           ; #config settings
  1052                           
  1053  010D                     __initialization:
  1054                           
  1055                           ; Initialize objects allocated to BANK0
  1056  010D  3180  2002  3181   	fcall	__pidataBANK0	;fetch initializer
  1057  0110  00E3               	movwf	__pdataBANK0& (0+127)
  1058  0111  3180  2003  3181   	fcall	__pidataBANK0+1	;fetch initializer
  1059  0114  00E4               	movwf	(__pdataBANK0+1)& (0+127)
  1060                           
  1061                           ; Clear objects allocated to BITCOMMON
  1062  0115  01FC               	clrf	(__pbitbssCOMMON/(0+8))& (0+127)
  1063                           
  1064                           ; Clear objects allocated to COMMON
  1065  0116  01FA               	clrf	__pbssCOMMON& (0+127)
  1066  0117  01FB               	clrf	(__pbssCOMMON+1)& (0+127)
  1067                           
  1068                           ; Clear objects allocated to BANK0
  1069  0118  3020               	movlw	low __pbssBANK0
  1070  0119  0084               	movwf	4
  1071  011A  3000               	movlw	high __pbssBANK0
  1072  011B  0085               	movwf	5
  1073  011C  3030               	movlw	48
  1074  011D  318F  27A8  3181   	fcall	clear_ram0
  1075  0120                     end_of_initialization:	
  1076                           ;End of C runtime variable initialization code
  1077                           
  1078  0120                     __end_of__initialization:
  1079  0120  107E               	bcf	int$flags,0	;clear compiler interrupt flag (level 1)
  1080  0121  0140               	movlb	0
  1081  0122  3182  2AE4         	ljmp	_main	;jump to C main() function
  1082                           
  1083                           	psect	bitbssCOMMON
  1084  03E0                     __pbitbssCOMMON:
  1085  03E0                     _pinState:
  1086  03E0                     	ds	1
  1087                           
  1088                           	psect	bssCOMMON
  1089  007A                     __pbssCOMMON:
  1090  007A                     _i:
  1091  007A                     	ds	2
  1092                           
  1093                           	psect	bssBANK0
  1094  0020                     __pbssBANK0:
  1095  0020                     _calibrationMV:
  1096  0020                     	ds	2
  1097  0022                     _adcVolts:
  1098  0022                     	ds	2
  1099  0024                     _battVolts:
  1100  0024                     	ds	2
  1101  0026                     _charging:
  1102  0026                     	ds	2
  1103  0028                     _gotTheTouch:
  1104  0028                     	ds	2
  1105  002A                     _lidOpen:
  1106  002A                     	ds	2
  1107  002C                     _lowPowerMode:
  1108  002C                     	ds	2
  1109  002E                     _showCharge:
  1110  002E                     	ds	2
  1111  0030                     _poweredOn:
  1112  0030                     	ds	2
  1113  0032                     _genericDelay:
  1114  0032                     	ds	2
  1115  0034                     _playIndex:
  1116  0034                     	ds	2
  1117  0036                     _postscaler:
  1118  0036                     	ds	2
  1119  0038                     _abortAbort:
  1120  0038                     	ds	2
  1121  003A                     _gate:
  1122  003A                     	ds	2
  1123  003C                     _forceArc:
  1124  003C                     	ds	2
  1125  003E                     _chargeCycle:
  1126  003E                     	ds	1
  1127  003F                     _runIndex:
  1128  003F                     	ds	1
  1129  0040                     _fadeUp:
  1130  0040                     	ds	1
  1131  0041                     _buttonDebounce:
  1132  0041                     	ds	1
  1133  0042                     _clockDivider:
  1134  0042                     	ds	1
  1135  0043                     _debugging:
  1136  0043                     	ds	1
  1137  0044                     _aPorts:
  1138  0044                     	ds	12
  1139                           
  1140                           	psect	dataBANK0
  1141  0063                     __pdataBANK0:
  1142  0063                     _noGate:
  1143  0063                     	ds	2
  1144                           
  1145                           	psect	clrtext
  1146  0FA8                     clear_ram0:	
  1147                           ;	Called with FSR0 containing the base address, and
  1148                           ;	WREG with the size to clear
  1149                           
  1150  0FA8  0064               	clrwdt	;clear the watchdog before getting into this loop
  1151  0FA9                     clrloop0:
  1152  0FA9  0180               	clrf	0	;clear RAM location pointed to by FSR
  1153  0FAA  3101               	addfsr 0,1
  1154  0FAB  0B89               	decfsz	9,f	;Have we reached the end of clearing yet?
  1155  0FAC  2FA9               	goto	clrloop0	;have we reached the end yet?
  1156  0FAD  3400               	retlw	0	;all done for this memory range, return
  1157                           
  1158                           	psect	cstackCOMMON
  1159  0070                     __pcstackCOMMON:
  1160  0070                     ?_fade:
  1161  0070                     ?_chargeIndicator:	
  1162                           ; 1 bytes @ 0x0
  1163                           
  1164  0070                     ?_doTheArc:	
  1165                           ; 1 bytes @ 0x0
  1166                           
  1167  0070                     ?_goToLPmode:	
  1168                           ; 1 bytes @ 0x0
  1169                           
  1170  0070                     ?_isr:	
  1171                           ; 1 bytes @ 0x0
  1172                           
  1173  0070                     ??_isr:	
  1174                           ; 1 bytes @ 0x0
  1175                           
  1176                           
  1177                           ; 1 bytes @ 0x0
  1178  0070                     	ds	1
  1179  0071                     ?_ButtonDebounceInit:
  1180  0071                     ?_blockingDelay:	
  1181                           ; 1 bytes @ 0x1
  1182                           
  1183  0071                     ??_fade:	
  1184                           ; 1 bytes @ 0x1
  1185                           
  1186  0071                     ?_playNote:	
  1187                           ; 1 bytes @ 0x1
  1188                           
  1189  0071                     ?___aldiv:	
  1190                           ; 1 bytes @ 0x1
  1191                           
  1192  0071                     ButtonDebounceInit@pulledUpButtons:	
  1193                           ; 4 bytes @ 0x1
  1194                           
  1195  0071                     blockingDelay@mSecs:	
  1196                           ; 1 bytes @ 0x1
  1197                           
  1198  0071                     playNote@note:	
  1199                           ; 2 bytes @ 0x1
  1200                           
  1201  0071                     ___aldiv@divisor:	
  1202                           ; 2 bytes @ 0x1
  1203                           
  1204                           
  1205                           ; 4 bytes @ 0x1
  1206  0071                     	ds	1
  1207  0072                     ??_ButtonDebounceInit:
  1208                           
  1209                           ; 1 bytes @ 0x2
  1210  0072                     	ds	1
  1211  0073                     ??_blockingDelay:
  1212  0073                     ButtonDebounceInit@i:	
  1213                           ; 1 bytes @ 0x3
  1214                           
  1215  0073                     playNote@duration:	
  1216                           ; 1 bytes @ 0x3
  1217                           
  1218                           
  1219                           ; 2 bytes @ 0x3
  1220  0073                     	ds	1
  1221  0074                     ButtonDebounceInit@port:
  1222                           
  1223                           ; 1 bytes @ 0x4
  1224  0074                     	ds	1
  1225  0075                     ??_doTheArc:
  1226  0075                     ??_goToLPmode:	
  1227                           ; 1 bytes @ 0x5
  1228                           
  1229  0075                     ??_playNote:	
  1230                           ; 1 bytes @ 0x5
  1231                           
  1232  0075                     ___aldiv@dividend:	
  1233                           ; 1 bytes @ 0x5
  1234                           
  1235                           
  1236                           ; 4 bytes @ 0x5
  1237  0075                     	ds	4
  1238  0079                     ??___aldiv:
  1239                           
  1240                           ; 1 bytes @ 0x9
  1241  0079                     	ds	1
  1242                           
  1243                           	psect	cstackBANK0
  1244  0050                     __pcstackBANK0:
  1245  0050                     ___aldiv@counter:
  1246                           
  1247                           ; 1 bytes @ 0x0
  1248  0050                     	ds	1
  1249  0051                     ___aldiv@sign:
  1250                           
  1251                           ; 1 bytes @ 0x1
  1252  0051                     	ds	1
  1253  0052                     ___aldiv@quotient:
  1254                           
  1255                           ; 4 bytes @ 0x2
  1256  0052                     	ds	4
  1257  0056                     ??_chargeIndicator:
  1258                           
  1259                           ; 1 bytes @ 0x6
  1260  0056                     	ds	4
  1261  005A                     _chargeIndicator$1408:
  1262                           
  1263                           ; 4 bytes @ 0xA
  1264  005A                     	ds	4
  1265  005E                     ?_main:
  1266  005E                     main@argc:	
  1267                           ; 2 bytes @ 0xE
  1268                           
  1269                           
  1270                           ; 2 bytes @ 0xE
  1271  005E                     	ds	2
  1272  0060                     main@argv:
  1273                           
  1274                           ; 2 bytes @ 0x10
  1275  0060                     	ds	2
  1276  0062                     ??_main:
  1277                           
  1278                           ; 1 bytes @ 0x12
  1279  0062                     	ds	1
  1280                           
  1281                           	psect	maintext
  1282  02E4                     __pmaintext:	
  1283 ;;
  1284 ;;Main: autosize = 0, tempsize = 1, incstack = 0, save=0
  1285 ;;
  1286 ;; *************** function _main *****************
  1287 ;; Defined at:
  1288 ;;		line 370 in file "main.c"
  1289 ;; Parameters:    Size  Location     Type
  1290 ;;  argc            2   14[BANK0 ] int 
  1291 ;;  argv            2   16[BANK0 ] PTR PTR unsigned char 
  1292 ;; Auto vars:     Size  Location     Type
  1293 ;;		None
  1294 ;; Return value:  Size  Location     Type
  1295 ;;                  2   14[BANK0 ] int 
  1296 ;; Registers used:
  1297 ;;		wreg, fsr0l, fsr0h, fsr1l, fsr1h, status,2, status,0, pclath, cstack
  1298 ;; Tracked objects:
  1299 ;;		On entry : B3F/0
  1300 ;;		On exit  : 0/0
  1301 ;;		Unchanged: 0/0
  1302 ;; Data sizes:     COMMON   BANK0   BANK1   BANK2   BANK3   BANK4   BANK5   BANK6
  1303 ;;      Params:         0       4       0       0       0       0       0       0
  1304 ;;      Locals:         0       0       0       0       0       0       0       0
  1305 ;;      Temps:          0       1       0       0       0       0       0       0
  1306 ;;      Totals:         0       5       0       0       0       0       0       0
  1307 ;;Total ram usage:        5 bytes
  1308 ;; Hardware stack levels required when called: 3
  1309 ;; This function calls:
  1310 ;;		_ButtonDebounceInit
  1311 ;;		_blockingDelay
  1312 ;;		_chargeIndicator
  1313 ;;		_doTheArc
  1314 ;;		_fade
  1315 ;;		_goToLPmode
  1316 ;; This function is called by:
  1317 ;;		Startup code after reset
  1318 ;; This function uses a non-reentrant model
  1319 ;;
  1320                           
  1321                           
  1322                           ;psect for function _main
  1323  02E4                     _main:
  1324  02E4                     l2040:	
  1325                           ;incstack = 0
  1326                           ; Regs used in _main: [wreg-fsr1h+status,2+status,0+pclath+cstack]
  1327                           
  1328                           
  1329                           ;main.c: 374:     ANSELAbits.ANSA0 = 0;
  1330  02E4  017E               	movlb	62	; select bank62
  1331  02E5  1038               	bcf	56,0	;volatile
  1332                           
  1333                           ;main.c: 375:     ANSELAbits.ANSA1 = 0;
  1334  02E6  10B8               	bcf	56,1	;volatile
  1335                           
  1336                           ;main.c: 376:     ANSELAbits.ANSA2 = 0;
  1337  02E7  1138               	bcf	56,2	;volatile
  1338                           
  1339                           ;main.c: 378:     ANSELAbits.ANSA4 = 0;
  1340  02E8  1238               	bcf	56,4	;volatile
  1341  02E9                     l2042:
  1342                           
  1343                           ;main.c: 385:     ANSELC = 0x0;
  1344  02E9  01CE               	clrf	78	;volatile
  1345  02EA                     l2044:
  1346                           
  1347                           ;main.c: 389:     TRISA0 = 1;
  1348  02EA  0140               	movlb	0	; select bank0
  1349  02EB  1412               	bsf	18,0	;volatile
  1350  02EC                     l2046:
  1351                           
  1352                           ;main.c: 390:     WPUA0 = 1;
  1353  02EC  017E               	movlb	62	; select bank62
  1354  02ED  1439               	bsf	57,0	;volatile
  1355  02EE                     l2048:
  1356                           
  1357                           ;main.c: 391:     TRISA1 = 0;
  1358  02EE  0140               	movlb	0	; select bank0
  1359  02EF  1092               	bcf	18,1	;volatile
  1360  02F0                     l2050:
  1361                           
  1362                           ;main.c: 392:     TRISA2 = 0;
  1363  02F0  1112               	bcf	18,2	;volatile
  1364  02F1                     l2052:
  1365                           
  1366                           ;main.c: 393:     TRISA3 = 1;
  1367  02F1  1592               	bsf	18,3	;volatile
  1368  02F2                     l2054:
  1369                           
  1370                           ;main.c: 394:     WPUA3 = 1;
  1371  02F2  017E               	movlb	62	; select bank62
  1372  02F3  15B9               	bsf	57,3	;volatile
  1373  02F4                     l2056:
  1374                           
  1375                           ;main.c: 395:     TRISA4 = 1;
  1376  02F4  0140               	movlb	0	; select bank0
  1377  02F5  1612               	bsf	18,4	;volatile
  1378  02F6                     l2058:
  1379                           
  1380                           ;main.c: 396:     WPUA4 = 1;
  1381  02F6  017E               	movlb	62	; select bank62
  1382  02F7  1639               	bsf	57,4	;volatile
  1383  02F8                     l2060:
  1384                           
  1385                           ;main.c: 397:     TRISA5 = 1;
  1386  02F8  0140               	movlb	0	; select bank0
  1387  02F9  1692               	bsf	18,5	;volatile
  1388  02FA                     l2062:
  1389                           
  1390                           ;main.c: 398:     TRISC0 = 0;
  1391  02FA  1014               	bcf	20,0	;volatile
  1392  02FB                     l2064:
  1393                           
  1394                           ;main.c: 399:     TRISC1 = 0;
  1395  02FB  1094               	bcf	20,1	;volatile
  1396  02FC                     l2066:
  1397                           
  1398                           ;main.c: 400:     TRISC2 = 0;
  1399  02FC  1114               	bcf	20,2	;volatile
  1400  02FD                     l2068:
  1401                           
  1402                           ;main.c: 401:     TRISC3 = 0;
  1403  02FD  1194               	bcf	20,3	;volatile
  1404  02FE                     l2070:
  1405                           
  1406                           ;main.c: 402:     TRISC4 = 0;
  1407  02FE  1214               	bcf	20,4	;volatile
  1408  02FF                     l2072:
  1409                           
  1410                           ;main.c: 403:     TRISC5 = 0;
  1411  02FF  1294               	bcf	20,5	;volatile
  1412  0300                     l2074:
  1413                           
  1414                           ;main.c: 406:     LATA1 = 1;
  1415  0300  1498               	bsf	24,1	;volatile
  1416  0301                     l2076:
  1417                           
  1418                           ;main.c: 407:     LATA2 = 1;
  1419  0301  1518               	bsf	24,2	;volatile
  1420  0302                     l2078:
  1421                           
  1422                           ;main.c: 408:     LATC0 = 1;
  1423  0302  141A               	bsf	26,0	;volatile
  1424  0303                     l2080:
  1425                           
  1426                           ;main.c: 409:     LATC1 = 1;
  1427  0303  149A               	bsf	26,1	;volatile
  1428  0304                     l2082:
  1429                           
  1430                           ;main.c: 410:     LATC2 = 1;
  1431  0304  151A               	bsf	26,2	;volatile
  1432  0305                     l2084:
  1433                           
  1434                           ;main.c: 411:     LATC3 = 0;
  1435  0305  119A               	bcf	26,3	;volatile
  1436  0306                     l2086:
  1437                           
  1438                           ;main.c: 412:     LATC4 = 0;
  1439  0306  121A               	bcf	26,4	;volatile
  1440  0307                     l2088:
  1441                           
  1442                           ;main.c: 413:     LATC5 = 0;
  1443  0307  129A               	bcf	26,5	;volatile
  1444  0308                     l2090:
  1445                           
  1446                           ;main.c: 416:     ButtonDebounceInit(&aPorts, (0x0001) | (0x0008));
  1447  0308  3009               	movlw	9
  1448  0309  00E2               	movwf	??_main
  1449  030A  0862               	movf	??_main,w
  1450  030B  00F1               	movwf	ButtonDebounceInit@pulledUpButtons
  1451  030C  3044               	movlw	(low (_aPorts| 0))& (0+255)
  1452  030D  318F  27D5  3182   	fcall	_ButtonDebounceInit
  1453  0310                     l2092:
  1454                           
  1455                           ;main.c: 423:     OSCFRQbits.FRQ = 0b101;
  1456  0310  0151               	movlb	17	; select bank17
  1457  0311  0813               	movf	19,w	;volatile
  1458  0312  39F8               	andlw	-8
  1459  0313  3805               	iorlw	5
  1460  0314  0093               	movwf	19	;volatile
  1461  0315                     l2094:
  1462                           
  1463                           ;main.c: 424:     OSCENbits.HFOEN = 1;
  1464  0315  1711               	bsf	17,6	;volatile
  1465  0316                     l2096:
  1466                           
  1467                           ;main.c: 430:     T0CON0bits.MD16 = 0;
  1468  0316  014B               	movlb	11	; select bank11
  1469  0317  121E               	bcf	30,4	;volatile
  1470  0318                     l2098:
  1471                           
  1472                           ;main.c: 431:     T0CON0bits.OUTPS = 0b0000;
  1473  0318  30F0               	movlw	-16
  1474  0319  059E               	andwf	30,f	;volatile
  1475  031A                     l2100:
  1476                           
  1477                           ;main.c: 432:     T0CON1bits.CS = 0b010;
  1478  031A  081F               	movf	31,w	;volatile
  1479  031B  391F               	andlw	-225
  1480  031C  3840               	iorlw	64
  1481  031D  009F               	movwf	31	;volatile
  1482  031E                     l2102:
  1483                           
  1484                           ;main.c: 433:     T0CON1bits.ASYNC = 0;
  1485  031E  121F               	bcf	31,4	;volatile
  1486  031F                     l2104:
  1487                           
  1488                           ;main.c: 434:     T0CON1bits.CKPS = 0b0110;
  1489  031F  081F               	movf	31,w	;volatile
  1490  0320  39F0               	andlw	-16
  1491  0321  3806               	iorlw	6
  1492  0322  009F               	movwf	31	;volatile
  1493  0323                     l2106:
  1494                           
  1495                           ;main.c: 435:     T0CON0bits.EN = 1;
  1496  0323  179E               	bsf	30,7	;volatile
  1497  0324                     l2108:
  1498                           
  1499                           ;main.c: 439:     T1CONbits.CKPS = 0b00;
  1500  0324  30CF               	movlw	-49
  1501  0325  0144               	movlb	4	; select bank4
  1502  0326  058E               	andwf	14,f	;volatile
  1503  0327                     l2110:
  1504                           
  1505                           ;main.c: 440:     T1CONbits.RD16 = 0;
  1506  0327  108E               	bcf	14,1	;volatile
  1507  0328                     l2112:
  1508                           
  1509                           ;main.c: 441:     T1CLKbits.CS = 0b00001;
  1510  0328  3001               	movlw	1
  1511  0329  0091               	movwf	17	;volatile
  1512  032A                     l2114:
  1513                           
  1514                           ;main.c: 442:     TMR1H = 0xFE;
  1515  032A  30FE               	movlw	254
  1516  032B  008D               	movwf	13	;volatile
  1517  032C                     l2116:
  1518                           
  1519                           ;main.c: 443:     TMR1L = 0x55;
  1520  032C  3055               	movlw	85
  1521  032D  008C               	movwf	12	;volatile
  1522  032E                     l2118:
  1523                           
  1524                           ;main.c: 444:     T1CONbits.ON = 1;
  1525  032E  140E               	bsf	14,0	;volatile
  1526  032F                     l2120:
  1527                           
  1528                           ;main.c: 448:     T2CLKCON = 0b001;
  1529  032F  3001               	movlw	1
  1530  0330  0145               	movlb	5	; select bank5
  1531  0331  0090               	movwf	16	;volatile
  1532  0332                     l2122:
  1533                           
  1534                           ;main.c: 449:     T2CONbits.T2CKPS = 0b110;
  1535  0332  080E               	movf	14,w	;volatile
  1536  0333  398F               	andlw	-113
  1537  0334  3860               	iorlw	96
  1538  0335  008E               	movwf	14	;volatile
  1539  0336                     l2124:
  1540                           
  1541                           ;main.c: 450:     T2HLTbits.PSYNC = 1;
  1542  0336  178F               	bsf	15,7	;volatile
  1543  0337                     l2126:
  1544                           
  1545                           ;main.c: 453:     T2CONbits.TMR2ON = 1;
  1546  0337  178E               	bsf	14,7	;volatile
  1547  0338                     l2128:
  1548                           
  1549                           ;main.c: 456:     TMR0IE = 1;
  1550  0338  014E               	movlb	14	; select bank14
  1551  0339  1696               	bsf	22,5	;volatile
  1552  033A                     l2130:
  1553                           
  1554                           ;main.c: 457:     TMR1IE = 1;
  1555  033A  1697               	bsf	23,5	;volatile
  1556  033B                     l2132:
  1557                           
  1558                           ;main.c: 461:     FVRCONbits.ADFVR = 0b01;
  1559  033B  0152               	movlb	18	; select bank18
  1560  033C  080C               	movf	12,w	;volatile
  1561  033D  39FC               	andlw	-4
  1562  033E  3801               	iorlw	1
  1563  033F  008C               	movwf	12	;volatile
  1564  0340                     l2134:
  1565                           
  1566                           ;main.c: 462:     FVRCONbits.FVREN = 1;
  1567  0340  178C               	bsf	12,7	;volatile
  1568  0341                     l2136:
  1569                           
  1570                           ;main.c: 466:     if (!debugging) NVMCON1bits.NVMREGS = 1;
  1571  0341  0140               	movlb	0	; select bank0
  1572  0342  0843               	movf	_debugging,w
  1573  0343  1D03               	btfss	3,2
  1574  0344  2B46               	goto	u1971
  1575  0345  2B47               	goto	u1970
  1576  0346                     u1971:
  1577  0346  2B49               	goto	l225
  1578  0347                     u1970:
  1579  0347                     l2138:
  1580  0347  0150               	movlb	16	; select bank16
  1581  0348  171E               	bsf	30,6	;volsfr
  1582  0349                     l225:
  1583                           
  1584                           ;main.c: 467:     NVMADR = 0x8118;
  1585  0349  3081               	movlw	129
  1586  034A  0150               	movlb	16	; select bank16
  1587  034B  009B               	movwf	27	;volatile
  1588  034C  3018               	movlw	24
  1589  034D  009A               	movwf	26	;volatile
  1590                           
  1591                           ;main.c: 468:     NVMCON1bits.RD = 1;
  1592  034E  141E               	bsf	30,0	;volsfr
  1593  034F                     l2140:
  1594                           
  1595                           ;main.c: 469:     if (!debugging) while (NVMCON1bits.RD == 1);
  1596  034F  0140               	movlb	0	; select bank0
  1597  0350  0843               	movf	_debugging,w
  1598  0351  1D03               	btfss	3,2
  1599  0352  2B54               	goto	u1981
  1600  0353  2B55               	goto	u1980
  1601  0354                     u1981:
  1602  0354  2B5A               	goto	l2144
  1603  0355                     u1980:
  1604  0355                     l227:
  1605  0355  0150               	movlb	16	; select bank16
  1606  0356  181E               	btfsc	30,0	;volsfr
  1607  0357  2B59               	goto	u1991
  1608  0358  2B5A               	goto	u1990
  1609  0359                     u1991:
  1610  0359  2B55               	goto	l227
  1611  035A                     u1990:
  1612  035A                     l2144:
  1613                           
  1614                           ;main.c: 470:     calibrationMV = NVMDAT;
  1615  035A  0150               	movlb	16	; select bank16
  1616  035B  081D               	movf	29,w	;volatile
  1617  035C  0140               	movlb	0	; select bank0
  1618  035D  00A1               	movwf	_calibrationMV+1
  1619  035E  0150               	movlb	16	; select bank16
  1620  035F  081C               	movf	28,w	;volatile
  1621  0360  0140               	movlb	0	; select bank0
  1622  0361  00A0               	movwf	_calibrationMV
  1623  0362                     l2146:
  1624                           
  1625                           ;main.c: 471:     if (!debugging) NVMCON1bits.NVMREGS = 0;
  1626  0362  0843               	movf	_debugging,w
  1627  0363  1D03               	btfss	3,2
  1628  0364  2B66               	goto	u2001
  1629  0365  2B67               	goto	u2000
  1630  0366                     u2001:
  1631  0366  2B69               	goto	l2150
  1632  0367                     u2000:
  1633  0367                     l2148:
  1634  0367  0150               	movlb	16	; select bank16
  1635  0368  131E               	bcf	30,6	;volsfr
  1636  0369                     l2150:
  1637                           
  1638                           ;main.c: 474:     ADCON1bits.CS = 0b110;
  1639  0369  0141               	movlb	1	; select bank1
  1640  036A  081E               	movf	30,w	;volatile
  1641  036B  398F               	andlw	-113
  1642  036C  3860               	iorlw	96
  1643  036D  009E               	movwf	30	;volatile
  1644                           
  1645                           ;main.c: 475:     ADCON1bits.PREF = 0b00;
  1646  036E  30FC               	movlw	-4
  1647  036F  059E               	andwf	30,f	;volatile
  1648                           
  1649                           ;main.c: 476:     ADCON0bits.CHS = 0b011110;
  1650  0370  081D               	movf	29,w	;volatile
  1651  0371  3903               	andlw	-253
  1652  0372  3878               	iorlw	120
  1653  0373  009D               	movwf	29	;volatile
  1654  0374                     l2152:
  1655                           
  1656                           ;main.c: 477:     ADCON1bits.FM = 1;
  1657  0374  179E               	bsf	30,7	;volatile
  1658                           
  1659                           ;main.c: 480:     if (!debugging) ADCON0bits.ON = 1;
  1660  0375  0140               	movlb	0	; select bank0
  1661  0376  0843               	movf	_debugging,w
  1662  0377  1D03               	btfss	3,2
  1663  0378  2B7A               	goto	u2011
  1664  0379  2B7B               	goto	u2010
  1665  037A                     u2011:
  1666  037A  2B7D               	goto	l231
  1667  037B                     u2010:
  1668  037B                     l2154:
  1669  037B  0141               	movlb	1	; select bank1
  1670  037C  141D               	bsf	29,0	;volatile
  1671  037D                     l231:
  1672                           
  1673                           ;main.c: 493:     IOCAN0 = 1;
  1674  037D  017E               	movlb	62	; select bank62
  1675  037E  143E               	bsf	62,0	;volatile
  1676                           
  1677                           ;main.c: 494:     IOCAP0 = 1;
  1678  037F  143D               	bsf	61,0	;volatile
  1679                           
  1680                           ;main.c: 495:     IOCAN3 = 1;
  1681  0380  15BE               	bsf	62,3	;volatile
  1682                           
  1683                           ;main.c: 496:     IOCAP3 = 1;
  1684  0381  15BD               	bsf	61,3	;volatile
  1685                           
  1686                           ;main.c: 497:     IOCAN4 = 1;
  1687  0382  163E               	bsf	62,4	;volatile
  1688                           
  1689                           ;main.c: 498:     IOCAP4 = 1;
  1690  0383  163D               	bsf	61,4	;volatile
  1691                           
  1692                           ;main.c: 501:     INTE = 0;
  1693  0384  014E               	movlb	14	; select bank14
  1694  0385  1016               	bcf	22,0	;volatile
  1695                           
  1696                           ;main.c: 503:     PEIE = 1;
  1697  0386  170B               	bsf	11,6	;volatile
  1698                           
  1699                           ;main.c: 504:     IOCIE = 1;
  1700  0387  1616               	bsf	22,4	;volatile
  1701                           
  1702                           ;main.c: 505:     GIE = 1;
  1703  0388  178B               	bsf	11,7	;volatile
  1704                           
  1705                           ;main.c: 508:     LATC2 = 0;
  1706  0389  0140               	movlb	0	; select bank0
  1707  038A  111A               	bcf	26,2	;volatile
  1708  038B                     l2156:
  1709                           
  1710                           ;main.c: 509:     blockingDelay(100);
  1711  038B  3064               	movlw	100
  1712  038C  00F1               	movwf	blockingDelay@mSecs
  1713  038D  3000               	movlw	0
  1714  038E  00F2               	movwf	blockingDelay@mSecs+1
  1715  038F  318F  27AE  3182   	fcall	_blockingDelay
  1716  0392                     l2158:
  1717                           
  1718                           ;main.c: 510:     LATC2 = 1;
  1719  0392  0140               	movlb	0	; select bank0
  1720  0393  151A               	bsf	26,2	;volatile
  1721                           
  1722                           ;main.c: 511:     blockingDelay(100);
  1723  0394  3064               	movlw	100
  1724  0395  00F1               	movwf	blockingDelay@mSecs
  1725  0396  3000               	movlw	0
  1726  0397  00F2               	movwf	blockingDelay@mSecs+1
  1727  0398  318F  27AE  3182   	fcall	_blockingDelay
  1728  039B                     l2160:
  1729                           
  1730                           ;main.c: 512:     LATC2 = 0;
  1731  039B  0140               	movlb	0	; select bank0
  1732  039C  111A               	bcf	26,2	;volatile
  1733                           
  1734                           ;main.c: 513:     blockingDelay(100);
  1735  039D  3064               	movlw	100
  1736  039E  00F1               	movwf	blockingDelay@mSecs
  1737  039F  3000               	movlw	0
  1738  03A0  00F2               	movwf	blockingDelay@mSecs+1
  1739  03A1  318F  27AE  3182   	fcall	_blockingDelay
  1740  03A4                     l2162:
  1741                           
  1742                           ;main.c: 514:     LATC2 = 1;
  1743  03A4  0140               	movlb	0	; select bank0
  1744  03A5  151A               	bsf	26,2	;volatile
  1745                           
  1746                           ;main.c: 515:     blockingDelay(100);
  1747  03A6  3064               	movlw	100
  1748  03A7  00F1               	movwf	blockingDelay@mSecs
  1749  03A8  3000               	movlw	0
  1750  03A9  00F2               	movwf	blockingDelay@mSecs+1
  1751  03AA  318F  27AE  3182   	fcall	_blockingDelay
  1752  03AD                     l2164:
  1753                           
  1754                           ;main.c: 516:     LATC2 = 0;
  1755  03AD  0140               	movlb	0	; select bank0
  1756  03AE  111A               	bcf	26,2	;volatile
  1757                           
  1758                           ;main.c: 517:     blockingDelay(100);
  1759  03AF  3064               	movlw	100
  1760  03B0  00F1               	movwf	blockingDelay@mSecs
  1761  03B1  3000               	movlw	0
  1762  03B2  00F2               	movwf	blockingDelay@mSecs+1
  1763  03B3  318F  27AE  3182   	fcall	_blockingDelay
  1764  03B6                     l2166:
  1765                           
  1766                           ;main.c: 518:     LATC2 = 1;
  1767  03B6  0140               	movlb	0	; select bank0
  1768  03B7  151A               	bsf	26,2	;volatile
  1769  03B8                     l2168:
  1770                           
  1771                           ;main.c: 522:         forceArc = 0;
  1772  03B8  0140               	movlb	0	; select bank0
  1773  03B9  01BC               	clrf	_forceArc
  1774  03BA  01BD               	clrf	_forceArc+1
  1775  03BB                     l2170:
  1776                           
  1777                           ;main.c: 523:         if (fadeUp > 0) {
  1778  03BB  0840               	movf	_fadeUp,w
  1779  03BC  1903               	btfsc	3,2
  1780  03BD  2BBF               	goto	u2021
  1781  03BE  2BC0               	goto	u2020
  1782  03BF                     u2021:
  1783  03BF  2BC4               	goto	l2174
  1784  03C0                     u2020:
  1785  03C0                     l2172:
  1786                           
  1787                           ;main.c: 524:             fade();
  1788  03C0  3187  2745  3182   	fcall	_fade
  1789                           
  1790                           ;main.c: 525:         } else {
  1791  03C3  2BB8               	goto	l2168
  1792  03C4                     l2174:
  1793                           
  1794                           ;main.c: 526:             if (showCharge) chargeIndicator();
  1795  03C4  082E               	movf	_showCharge,w
  1796  03C5  042F               	iorwf	_showCharge+1,w
  1797  03C6  1903               	btfsc	3,2
  1798  03C7  2BC9               	goto	u2031
  1799  03C8  2BCA               	goto	u2030
  1800  03C9                     u2031:
  1801  03C9  2BCD               	goto	l2178
  1802  03CA                     u2030:
  1803  03CA                     l2176:
  1804  03CA  3185  25D9  3182   	fcall	_chargeIndicator
  1805  03CD                     l2178:
  1806                           
  1807                           ;main.c: 527:             if (poweredOn) {
  1808  03CD  0140               	movlb	0	; select bank0
  1809  03CE  0830               	movf	_poweredOn,w
  1810  03CF  0431               	iorwf	_poweredOn+1,w
  1811  03D0  1903               	btfsc	3,2
  1812  03D1  2BD3               	goto	u2041
  1813  03D2  2BD4               	goto	u2040
  1814  03D3                     u2041:
  1815  03D3  2BE0               	goto	l236
  1816  03D4                     u2040:
  1817  03D4                     l2180:
  1818                           
  1819                           ;main.c: 529:                 LATC2 = 0;
  1820  03D4  111A               	bcf	26,2	;volatile
  1821                           
  1822                           ;main.c: 531:                 LATC3 = 1;
  1823  03D5  159A               	bsf	26,3	;volatile
  1824  03D6                     l2182:
  1825                           
  1826                           ;main.c: 532:                 if (gotTheTouch) doTheArc();
  1827  03D6  0828               	movf	_gotTheTouch,w
  1828  03D7  0429               	iorwf	_gotTheTouch+1,w
  1829  03D8  1903               	btfsc	3,2
  1830  03D9  2BDB               	goto	u2051
  1831  03DA  2BDC               	goto	u2050
  1832  03DB                     u2051:
  1833  03DB  2BE2               	goto	l2186
  1834  03DC                     u2050:
  1835  03DC                     l2184:
  1836  03DC  3183  23EF  3182   	fcall	_doTheArc
  1837  03DF  2BE2               	goto	l2186
  1838  03E0                     l236:
  1839                           
  1840                           ;main.c: 535:                 LATC2 = 1;
  1841  03E0  151A               	bsf	26,2	;volatile
  1842                           
  1843                           ;main.c: 537:                 LATC3 = 0;
  1844  03E1  119A               	bcf	26,3	;volatile
  1845  03E2                     l2186:
  1846                           
  1847                           ;main.c: 539:             if (lowPowerMode) goToLPmode();
  1848  03E2  0140               	movlb	0	; select bank0
  1849  03E3  082C               	movf	_lowPowerMode,w
  1850  03E4  042D               	iorwf	_lowPowerMode+1,w
  1851  03E5  1903               	btfsc	3,2
  1852  03E6  2BE8               	goto	u2061
  1853  03E7  2BE9               	goto	u2060
  1854  03E8                     u2061:
  1855  03E8  2BB8               	goto	l2168
  1856  03E9                     u2060:
  1857  03E9                     l2188:
  1858  03E9  318F  27BF  3182   	fcall	_goToLPmode
  1859  03EC  2BB8               	goto	l2168
  1860  03ED  3181  290B         	ljmp	start
  1861  03EF                     __end_of_main:
  1862                           
  1863                           	psect	text1
  1864  0FBF                     __ptext1:	
  1865 ;; *************** function _goToLPmode *****************
  1866 ;; Defined at:
  1867 ;;		line 774 in file "main.c"
  1868 ;; Parameters:    Size  Location     Type
  1869 ;;		None
  1870 ;; Auto vars:     Size  Location     Type
  1871 ;;		None
  1872 ;; Return value:  Size  Location     Type
  1873 ;;                  1    wreg      void 
  1874 ;; Registers used:
  1875 ;;		wreg, fsr0l, fsr0h, status,2, status,0, pclath, cstack
  1876 ;; Tracked objects:
  1877 ;;		On entry : 0/0
  1878 ;;		On exit  : 0/0
  1879 ;;		Unchanged: 0/0
  1880 ;; Data sizes:     COMMON   BANK0   BANK1   BANK2   BANK3   BANK4   BANK5   BANK6
  1881 ;;      Params:         0       0       0       0       0       0       0       0
  1882 ;;      Locals:         0       0       0       0       0       0       0       0
  1883 ;;      Temps:          0       0       0       0       0       0       0       0
  1884 ;;      Totals:         0       0       0       0       0       0       0       0
  1885 ;;Total ram usage:        0 bytes
  1886 ;; Hardware stack levels used: 1
  1887 ;; Hardware stack levels required when called: 2
  1888 ;; This function calls:
  1889 ;;		_playNote
  1890 ;; This function is called by:
  1891 ;;		_main
  1892 ;; This function uses a non-reentrant model
  1893 ;;
  1894                           
  1895                           
  1896                           ;psect for function _goToLPmode
  1897  0FBF                     _goToLPmode:
  1898  0FBF                     l1718:	
  1899                           ;incstack = 0
  1900                           ; Regs used in _goToLPmode: [wreg-fsr0h+status,2+status,0+pclath+cstack]
  1901                           
  1902                           
  1903                           ;main.c: 775:     forceArc = 0;
  1904  0FBF  0140               	movlb	0	; select bank0
  1905  0FC0  01BC               	clrf	_forceArc
  1906  0FC1  01BD               	clrf	_forceArc+1
  1907  0FC2                     l1720:
  1908                           
  1909                           ;main.c: 776:     playNote(0, 100);
  1910  0FC2  3000               	movlw	0
  1911  0FC3  00F1               	movwf	playNote@note
  1912  0FC4  00F2               	movwf	playNote@note+1
  1913  0FC5  3064               	movlw	100
  1914  0FC6  00F3               	movwf	playNote@duration
  1915  0FC7  3000               	movlw	0
  1916  0FC8  00F4               	movwf	playNote@duration+1
  1917  0FC9  3187  27B2  318F   	fcall	_playNote
  1918  0FCC                     l1722:
  1919                           
  1920                           ;main.c: 778:     LATC3 = 0;
  1921  0FCC  0140               	movlb	0	; select bank0
  1922  0FCD  119A               	bcf	26,3	;volatile
  1923  0FCE                     l1724:
  1924                           
  1925                           ;main.c: 781:     LATA1 = 1;
  1926  0FCE  1498               	bsf	24,1	;volatile
  1927  0FCF                     l1726:
  1928                           
  1929                           ;main.c: 782:     LATA2 = 1;
  1930  0FCF  1518               	bsf	24,2	;volatile
  1931  0FD0                     l1728:
  1932                           
  1933                           ;main.c: 783:     LATC0 = 1;
  1934  0FD0  141A               	bsf	26,0	;volatile
  1935  0FD1                     l1730:
  1936                           
  1937                           ;main.c: 784:     LATC1 = 1;
  1938  0FD1  149A               	bsf	26,1	;volatile
  1939  0FD2                     l1732:
  1940                           
  1941                           ;main.c: 785:     LATC2 = 1;
  1942  0FD2  151A               	bsf	26,2	;volatile
  1943  0FD3  0063               	sleep	;# 
  1944  0FD4                     l326:
  1945  0FD4  0008               	return
  1946  0FD5                     __end_of_goToLPmode:
  1947                           
  1948                           	psect	text2
  1949  0745                     __ptext2:	
  1950 ;; *************** function _fade *****************
  1951 ;; Defined at:
  1952 ;;		line 804 in file "main.c"
  1953 ;; Parameters:    Size  Location     Type
  1954 ;;		None
  1955 ;; Auto vars:     Size  Location     Type
  1956 ;;		None
  1957 ;; Return value:  Size  Location     Type
  1958 ;;                  1    wreg      void 
  1959 ;; Registers used:
  1960 ;;		wreg, status,2, status,0
  1961 ;; Tracked objects:
  1962 ;;		On entry : 0/0
  1963 ;;		On exit  : 0/0
  1964 ;;		Unchanged: 0/0
  1965 ;; Data sizes:     COMMON   BANK0   BANK1   BANK2   BANK3   BANK4   BANK5   BANK6
  1966 ;;      Params:         0       0       0       0       0       0       0       0
  1967 ;;      Locals:         0       0       0       0       0       0       0       0
  1968 ;;      Temps:          0       0       0       0       0       0       0       0
  1969 ;;      Totals:         0       0       0       0       0       0       0       0
  1970 ;;Total ram usage:        0 bytes
  1971 ;; Hardware stack levels used: 1
  1972 ;; Hardware stack levels required when called: 1
  1973 ;; This function calls:
  1974 ;;		Nothing
  1975 ;; This function is called by:
  1976 ;;		_main
  1977 ;; This function uses a non-reentrant model
  1978 ;;
  1979                           
  1980                           
  1981                           ;psect for function _fade
  1982  0745                     _fade:
  1983  0745                     l1542:	
  1984                           ;incstack = 0
  1985                           ; Regs used in _fade: [wreg+status,2+status,0]
  1986                           
  1987                           
  1988                           ;main.c: 815:     if (fadeUp > 0) {
  1989  0745  0140               	movlb	0	; select bank0
  1990  0746  0840               	movf	_fadeUp,w
  1991  0747  1903               	btfsc	3,2
  1992  0748  2F4A               	goto	u1151
  1993  0749  2F4B               	goto	u1150
  1994  074A                     u1151:
  1995  074A  2FAF               	goto	l1588
  1996  074B                     u1150:
  1997  074B                     l1544:
  1998                           
  1999                           ;main.c: 818:         if (fadeUp == 1) {
  2000  074B  0340               	decf	_fadeUp,w
  2001  074C  1D03               	btfss	3,2
  2002  074D  2F4F               	goto	u1161
  2003  074E  2F50               	goto	u1160
  2004  074F                     u1161:
  2005  074F  2F87               	goto	l1560
  2006  0750                     u1160:
  2007  0750                     l1546:
  2008                           
  2009                           ;main.c: 819:             PWM3CONbits.EN = 1;
  2010  0750  0146               	movlb	6	; select bank6
  2011  0751  1796               	bsf	22,7	;volatile
  2012  0752                     l1548:
  2013                           
  2014                           ;main.c: 822:             RC2PPS = 0x03;
  2015  0752  3003               	movlw	3
  2016  0753  017E               	movlb	62	; select bank62
  2017  0754  00A2               	movwf	34	;volatile
  2018                           
  2019                           ;main.c: 823:             RA1PPS = 0x03;
  2020  0755  3003               	movlw	3
  2021  0756  0091               	movwf	17	;volatile
  2022                           
  2023                           ;main.c: 824:             RA2PPS = 0x03;
  2024  0757  3003               	movlw	3
  2025  0758  0092               	movwf	18	;volatile
  2026                           
  2027                           ;main.c: 825:             RC0PPS = 0x03;
  2028  0759  3003               	movlw	3
  2029  075A  00A0               	movwf	32	;volatile
  2030                           
  2031                           ;main.c: 826:             RC1PPS = 0x03;
  2032  075B  3003               	movlw	3
  2033  075C  00A1               	movwf	33	;volatile
  2034                           
  2035                           ;main.c: 828:             i = 0xFFC0;
  2036  075D  30C0               	movlw	192
  2037  075E  00FA               	movwf	_i
  2038  075F  30FF               	movlw	255
  2039  0760  00FB               	movwf	_i+1
  2040  0761                     l334:	
  2041                           ;main.c: 829:             do {
  2042                           
  2043                           
  2044                           ;main.c: 830:                 genericDelay = 1;
  2045  0761  3001               	movlw	1
  2046  0762  0140               	movlb	0	; select bank0
  2047  0763  00B2               	movwf	_genericDelay
  2048  0764  3000               	movlw	0
  2049  0765  00B3               	movwf	_genericDelay+1
  2050  0766                     l1550:	
  2051                           ;main.c: 831:                 while (genericDelay > 0);
  2052                           
  2053  0766  0832               	movf	_genericDelay,w
  2054  0767  0433               	iorwf	_genericDelay+1,w
  2055  0768  1D03               	btfss	3,2
  2056  0769  2F6B               	goto	u1171
  2057  076A  2F6C               	goto	u1170
  2058  076B                     u1171:
  2059  076B  2F66               	goto	l1550
  2060  076C                     u1170:
  2061  076C                     l1552:
  2062                           
  2063                           ;main.c: 832:                 PWM3DC = i;
  2064  076C  087B               	movf	_i+1,w
  2065  076D  0146               	movlb	6	; select bank6
  2066  076E  0095               	movwf	21	;volatile
  2067  076F  087A               	movf	_i,w
  2068  0770  0094               	movwf	20	;volatile
  2069  0771                     l1554:
  2070                           
  2071                           ;main.c: 833:                 i = i - 64;
  2072  0771  087A               	movf	_i,w
  2073  0772  3EC0               	addlw	192
  2074  0773  00FA               	movwf	_i
  2075  0774  30FF               	movlw	255
  2076  0775  3D7B               	addwfc	_i+1,w
  2077  0776  00FB               	movwf	_i+1
  2078  0777                     l1556:
  2079                           
  2080                           ;main.c: 834:             } while (i > 0x0040);
  2081  0777  3000               	movlw	0
  2082  0778  027B               	subwf	_i+1,w
  2083  0779  3041               	movlw	65
  2084  077A  1903               	skipnz
  2085  077B  027A               	subwf	_i,w
  2086  077C  1803               	skipnc
  2087  077D  2F7F               	goto	u1181
  2088  077E  2F80               	goto	u1180
  2089  077F                     u1181:
  2090  077F  2F61               	goto	l334
  2091  0780                     u1180:
  2092  0780                     l1558:
  2093                           
  2094                           ;main.c: 837:             RC2PPS = 0x00;
  2095  0780  017E               	movlb	62	; select bank62
  2096  0781  01A2               	clrf	34	;volatile
  2097                           
  2098                           ;main.c: 838:             RA1PPS = 0x00;
  2099  0782  0191               	clrf	17	;volatile
  2100                           
  2101                           ;main.c: 839:             RA2PPS = 0x00;
  2102  0783  0192               	clrf	18	;volatile
  2103                           
  2104                           ;main.c: 840:             RC0PPS = 0x00;
  2105  0784  01A0               	clrf	32	;volatile
  2106                           
  2107                           ;main.c: 841:             RC1PPS = 0x00;
  2108  0785  01A1               	clrf	33	;volatile
  2109                           
  2110                           ;main.c: 842:         }
  2111  0786  2FAF               	goto	l1588
  2112  0787                     l1560:
  2113  0787  3002               	movlw	2
  2114  0788  0640               	xorwf	_fadeUp,w
  2115  0789  1D03               	btfss	3,2
  2116  078A  2F8C               	goto	u1191
  2117  078B  2F8D               	goto	u1190
  2118  078C                     u1191:
  2119  078C  2F8E               	goto	l1564
  2120  078D                     u1190:
  2121  078D  2FAF               	goto	l1588
  2122  078E                     l1564:
  2123  078E  3003               	movlw	3
  2124  078F  0640               	xorwf	_fadeUp,w
  2125  0790  1D03               	btfss	3,2
  2126  0791  2F93               	goto	u1201
  2127  0792  2F94               	goto	u1200
  2128  0793                     u1201:
  2129  0793  2FAF               	goto	l339
  2130  0794                     u1200:
  2131  0794                     l1566:
  2132                           
  2133                           ;main.c: 849:             CCP1CONbits.EN = 1;
  2134  0794  0146               	movlb	6	; select bank6
  2135  0795  178E               	bsf	14,7	;volatile
  2136                           
  2137                           ;main.c: 850:             CCP1CONbits.FMT = 1;
  2138  0796  160E               	bsf	14,4	;volatile
  2139  0797                     l1568:
  2140                           
  2141                           ;main.c: 851:             CCP1CONbits.MODE = 0b1100;
  2142  0797  080E               	movf	14,w	;volatile
  2143  0798  39F0               	andlw	-16
  2144  0799  380C               	iorlw	12
  2145  079A  008E               	movwf	14	;volatile
  2146  079B                     l1570:
  2147                           
  2148                           ;main.c: 853:             CCP2CONbits.EN = 1;
  2149  079B  1792               	bsf	18,7	;volatile
  2150  079C                     l1572:
  2151                           
  2152                           ;main.c: 854:             CCP2CONbits.FMT = 1;
  2153  079C  1612               	bsf	18,4	;volatile
  2154                           
  2155                           ;main.c: 855:             CCP2CONbits.MODE = 0b1100;
  2156  079D  0812               	movf	18,w	;volatile
  2157  079E  39F0               	andlw	-16
  2158  079F  380C               	iorlw	12
  2159  07A0  0092               	movwf	18	;volatile
  2160  07A1                     l1574:
  2161                           
  2162                           ;main.c: 857:             PWM3CONbits.EN = 1;
  2163  07A1  1796               	bsf	22,7	;volatile
  2164  07A2                     l1576:
  2165                           
  2166                           ;main.c: 859:             PWM4CONbits.EN = 1;
  2167  07A2  179A               	bsf	26,7	;volatile
  2168  07A3                     l1578:
  2169                           
  2170                           ;main.c: 862:             RC2PPS = 0x01;
  2171  07A3  3001               	movlw	1
  2172  07A4  017E               	movlb	62	; select bank62
  2173  07A5  00A2               	movwf	34	;volatile
  2174  07A6                     l1580:
  2175                           
  2176                           ;main.c: 863:             RA1PPS = 0x01;
  2177  07A6  3001               	movlw	1
  2178  07A7  0091               	movwf	17	;volatile
  2179  07A8                     l1582:
  2180                           
  2181                           ;main.c: 864:             RA2PPS = 0x02;
  2182  07A8  3002               	movlw	2
  2183  07A9  0092               	movwf	18	;volatile
  2184  07AA                     l1584:
  2185                           
  2186                           ;main.c: 865:             RC0PPS = 0x03;
  2187  07AA  3003               	movlw	3
  2188  07AB  00A0               	movwf	32	;volatile
  2189  07AC                     l1586:
  2190                           
  2191                           ;main.c: 866:             RC1PPS = 0x04;
  2192  07AC  3004               	movlw	4
  2193  07AD  00A1               	movwf	33	;volatile
  2194  07AE  2FAF               	goto	l1588
  2195  07AF                     l339:
  2196  07AF                     l1588:
  2197                           
  2198                           ;main.c: 870:     fadeUp = 0;
  2199  07AF  0140               	movlb	0	; select bank0
  2200  07B0  01C0               	clrf	_fadeUp
  2201  07B1                     l343:
  2202  07B1  0008               	return
  2203  07B2                     __end_of_fade:
  2204                           
  2205                           	psect	text3
  2206  03EF                     __ptext3:	
  2207 ;; *************** function _doTheArc *****************
  2208 ;; Defined at:
  2209 ;;		line 697 in file "main.c"
  2210 ;; Parameters:    Size  Location     Type
  2211 ;;		None
  2212 ;; Auto vars:     Size  Location     Type
  2213 ;;		None
  2214 ;; Return value:  Size  Location     Type
  2215 ;;                  1    wreg      void 
  2216 ;; Registers used:
  2217 ;;		wreg, fsr0l, fsr0h, status,2, status,0, pclath, cstack
  2218 ;; Tracked objects:
  2219 ;;		On entry : 0/0
  2220 ;;		On exit  : 0/0
  2221 ;;		Unchanged: 0/0
  2222 ;; Data sizes:     COMMON   BANK0   BANK1   BANK2   BANK3   BANK4   BANK5   BANK6
  2223 ;;      Params:         0       0       0       0       0       0       0       0
  2224 ;;      Locals:         0       0       0       0       0       0       0       0
  2225 ;;      Temps:          2       0       0       0       0       0       0       0
  2226 ;;      Totals:         2       0       0       0       0       0       0       0
  2227 ;;Total ram usage:        2 bytes
  2228 ;; Hardware stack levels used: 1
  2229 ;; Hardware stack levels required when called: 2
  2230 ;; This function calls:
  2231 ;;		_playNote
  2232 ;; This function is called by:
  2233 ;;		_main
  2234 ;; This function uses a non-reentrant model
  2235 ;;
  2236                           
  2237                           
  2238                           ;psect for function _doTheArc
  2239  03EF                     _doTheArc:
  2240  03EF                     l1648:	
  2241                           ;incstack = 0
  2242                           ; Regs used in _doTheArc: [wreg-fsr0h+status,2+status,0+pclath+cstack]
  2243                           
  2244                           
  2245                           ;main.c: 699:     forceArc = 1;
  2246  03EF  3001               	movlw	1
  2247  03F0  0140               	movlb	0	; select bank0
  2248  03F1  00BC               	movwf	_forceArc
  2249  03F2  3000               	movlw	0
  2250  03F3  00BD               	movwf	_forceArc+1
  2251  03F4                     l1650:
  2252                           
  2253                           ;main.c: 700:     runIndex++;
  2254  03F4  3001               	movlw	1
  2255  03F5  00F5               	movwf	??_doTheArc
  2256  03F6  0875               	movf	??_doTheArc,w
  2257  03F7  07BF               	addwf	_runIndex,f
  2258  03F8                     l1652:
  2259                           
  2260                           ;main.c: 701:     if (runIndex > 3) runIndex = 1;
  2261  03F8  3004               	movlw	4
  2262  03F9  023F               	subwf	_runIndex,w
  2263  03FA  1C03               	skipc
  2264  03FB  2BFD               	goto	u1381
  2265  03FC  2BFE               	goto	u1380
  2266  03FD                     u1381:
  2267  03FD  2CCC               	goto	l1702
  2268  03FE                     u1380:
  2269  03FE                     l1654:
  2270  03FE  01BF               	clrf	_runIndex
  2271  03FF  0ABF               	incf	_runIndex,f
  2272  0400  2CCC               	goto	l1702
  2273  0401                     l276:	
  2274                           ;main.c: 703:         case 1:
  2275                           
  2276                           
  2277                           ;main.c: 705:             LATA1 = 0;
  2278  0401  1098               	bcf	24,1	;volatile
  2279                           
  2280                           ;main.c: 706:             LATA2 = 1;
  2281  0402  1518               	bsf	24,2	;volatile
  2282                           
  2283                           ;main.c: 707:             LATC0 = 1;
  2284  0403  141A               	bsf	26,0	;volatile
  2285                           
  2286                           ;main.c: 708:             LATC1 = 1;
  2287  0404  149A               	bsf	26,1	;volatile
  2288  0405                     l1656:	
  2289                           ;main.c: 709:             while (gotTheTouch && poweredOn);
  2290                           
  2291  0405  0828               	movf	_gotTheTouch,w
  2292  0406  0429               	iorwf	_gotTheTouch+1,w
  2293  0407  1903               	btfsc	3,2
  2294  0408  2C0A               	goto	u1391
  2295  0409  2C0B               	goto	u1390
  2296  040A                     u1391:
  2297  040A  2CDF               	goto	l1704
  2298  040B                     u1390:
  2299  040B                     l1658:
  2300  040B  0830               	movf	_poweredOn,w
  2301  040C  0431               	iorwf	_poweredOn+1,w
  2302  040D  1D03               	btfss	3,2
  2303  040E  2C10               	goto	u1401
  2304  040F  2C11               	goto	u1400
  2305  0410                     u1401:
  2306  0410  2C05               	goto	l1656
  2307  0411                     u1400:
  2308  0411  2CDF               	goto	l1704
  2309  0412                     l283:	
  2310                           ;main.c: 712:         case 2:
  2311                           
  2312                           
  2313                           ;main.c: 714:             LATA1 = 1;
  2314  0412  1498               	bsf	24,1	;volatile
  2315                           
  2316                           ;main.c: 715:             LATA2 = 0;
  2317  0413  1118               	bcf	24,2	;volatile
  2318                           
  2319                           ;main.c: 716:             LATC0 = 1;
  2320  0414  141A               	bsf	26,0	;volatile
  2321                           
  2322                           ;main.c: 717:             LATC1 = 1;
  2323  0415  149A               	bsf	26,1	;volatile
  2324  0416                     l1660:
  2325                           
  2326                           ;main.c: 719:             genericDelay = 1000;
  2327  0416  30E8               	movlw	232
  2328  0417  00B2               	movwf	_genericDelay
  2329  0418  3003               	movlw	3
  2330  0419  00B3               	movwf	_genericDelay+1
  2331  041A                     l1662:	
  2332                           ;main.c: 720:             while (genericDelay && poweredOn && gotTheTouch);
  2333                           
  2334  041A  0832               	movf	_genericDelay,w
  2335  041B  0433               	iorwf	_genericDelay+1,w
  2336  041C  1903               	btfsc	3,2
  2337  041D  2C1F               	goto	u1411
  2338  041E  2C20               	goto	u1410
  2339  041F                     u1411:
  2340  041F  2C2C               	goto	l1668
  2341  0420                     u1410:
  2342  0420                     l1664:
  2343  0420  0830               	movf	_poweredOn,w
  2344  0421  0431               	iorwf	_poweredOn+1,w
  2345  0422  1903               	btfsc	3,2
  2346  0423  2C25               	goto	u1421
  2347  0424  2C26               	goto	u1420
  2348  0425                     u1421:
  2349  0425  2C2C               	goto	l1668
  2350  0426                     u1420:
  2351  0426                     l1666:
  2352  0426  0828               	movf	_gotTheTouch,w
  2353  0427  0429               	iorwf	_gotTheTouch+1,w
  2354  0428  1D03               	btfss	3,2
  2355  0429  2C2B               	goto	u1431
  2356  042A  2C2C               	goto	u1430
  2357  042B                     u1431:
  2358  042B  2C1A               	goto	l1662
  2359  042C                     u1430:
  2360  042C                     l1668:
  2361                           
  2362                           ;main.c: 721:             forceArc = 0;
  2363  042C  01BC               	clrf	_forceArc
  2364  042D  01BD               	clrf	_forceArc+1
  2365                           
  2366                           ;main.c: 722:             for (i = 0; i < sizeof (sheRa) && gotTheTouch && poweredOn; i+
      +                          +) playNote(sheRa[i][0], sheRa[i][1]);
  2367  042E  01FA               	clrf	_i
  2368  042F  01FB               	clrf	_i+1
  2369  0430  2C58               	goto	l1674
  2370  0431                     l1670:
  2371  0431  087B               	movf	_i+1,w
  2372  0432  0085               	movwf	5
  2373  0433  087A               	movf	_i,w
  2374  0434  0084               	movwf	4
  2375  0435  3584               	lslf	4,f
  2376  0436  0D85               	rlf	5,f
  2377  0437  3584               	lslf	4,f
  2378  0438  0D85               	rlf	5,f
  2379  0439  30E9               	movlw	low (_sheRa| (0+32768))
  2380  043A  0784               	addwf	4,f
  2381  043B  3084               	movlw	high (_sheRa| (0+32768))
  2382  043C  3D85               	addwfc	5,f
  2383  043D  3F00               	moviw [0]fsr0
  2384  043E  00F1               	movwf	playNote@note
  2385  043F  3F01               	moviw [1]fsr0
  2386  0440  00F2               	movwf	playNote@note+1
  2387  0441  087B               	movf	_i+1,w
  2388  0442  0085               	movwf	5
  2389  0443  087A               	movf	_i,w
  2390  0444  0084               	movwf	4
  2391  0445  3584               	lslf	4,f
  2392  0446  0D85               	rlf	5,f
  2393  0447  3584               	lslf	4,f
  2394  0448  0D85               	rlf	5,f
  2395  0449  30EB               	movlw	low ((_sheRa+2)| (0+32768))
  2396  044A  0784               	addwf	4,f
  2397  044B  3084               	movlw	high ((_sheRa+2)| (0+32768))
  2398  044C  3D85               	addwfc	5,f
  2399  044D  3F00               	moviw [0]fsr0
  2400  044E  00F3               	movwf	playNote@duration
  2401  044F  3F01               	moviw [1]fsr0
  2402  0450  00F4               	movwf	playNote@duration+1
  2403  0451  3187  27B2  3183   	fcall	_playNote
  2404  0454                     l1672:
  2405  0454  3001               	movlw	1
  2406  0455  07FA               	addwf	_i,f
  2407  0456  3000               	movlw	0
  2408  0457  3DFB               	addwfc	_i+1,f
  2409  0458                     l1674:
  2410  0458  3000               	movlw	0
  2411  0459  027B               	subwf	_i+1,w
  2412  045A  30F0               	movlw	240
  2413  045B  1903               	skipnz
  2414  045C  027A               	subwf	_i,w
  2415  045D  1803               	skipnc
  2416  045E  2C60               	goto	u1441
  2417  045F  2C61               	goto	u1440
  2418  0460                     u1441:
  2419  0460  2CDF               	goto	l1704
  2420  0461                     u1440:
  2421  0461                     l1676:
  2422  0461  0140               	movlb	0	; select bank0
  2423  0462  0828               	movf	_gotTheTouch,w
  2424  0463  0429               	iorwf	_gotTheTouch+1,w
  2425  0464  1903               	btfsc	3,2
  2426  0465  2C67               	goto	u1451
  2427  0466  2C68               	goto	u1450
  2428  0467                     u1451:
  2429  0467  2CDF               	goto	l1704
  2430  0468                     u1450:
  2431  0468                     l1678:
  2432  0468  0830               	movf	_poweredOn,w
  2433  0469  0431               	iorwf	_poweredOn+1,w
  2434  046A  1D03               	btfss	3,2
  2435  046B  2C6D               	goto	u1461
  2436  046C  2C6E               	goto	u1460
  2437  046D                     u1461:
  2438  046D  2C31               	goto	l1670
  2439  046E                     u1460:
  2440  046E  2CDF               	goto	l1704
  2441  046F                     l294:	
  2442                           ;main.c: 725:         case 3:
  2443                           
  2444                           
  2445                           ;main.c: 727:             LATA1 = 1;
  2446  046F  1498               	bsf	24,1	;volatile
  2447                           
  2448                           ;main.c: 728:             LATA2 = 1;
  2449  0470  1518               	bsf	24,2	;volatile
  2450                           
  2451                           ;main.c: 729:             LATC0 = 0;
  2452  0471  101A               	bcf	26,0	;volatile
  2453                           
  2454                           ;main.c: 730:             LATC1 = 1;
  2455  0472  149A               	bsf	26,1	;volatile
  2456  0473                     l1680:
  2457                           
  2458                           ;main.c: 732:             genericDelay = 1000;
  2459  0473  30E8               	movlw	232
  2460  0474  00B2               	movwf	_genericDelay
  2461  0475  3003               	movlw	3
  2462  0476  00B3               	movwf	_genericDelay+1
  2463  0477                     l1682:	
  2464                           ;main.c: 733:             while (genericDelay && poweredOn && gotTheTouch);
  2465                           
  2466  0477  0832               	movf	_genericDelay,w
  2467  0478  0433               	iorwf	_genericDelay+1,w
  2468  0479  1903               	btfsc	3,2
  2469  047A  2C7C               	goto	u1471
  2470  047B  2C7D               	goto	u1470
  2471  047C                     u1471:
  2472  047C  2C89               	goto	l1688
  2473  047D                     u1470:
  2474  047D                     l1684:
  2475  047D  0830               	movf	_poweredOn,w
  2476  047E  0431               	iorwf	_poweredOn+1,w
  2477  047F  1903               	btfsc	3,2
  2478  0480  2C82               	goto	u1481
  2479  0481  2C83               	goto	u1480
  2480  0482                     u1481:
  2481  0482  2C89               	goto	l1688
  2482  0483                     u1480:
  2483  0483                     l1686:
  2484  0483  0828               	movf	_gotTheTouch,w
  2485  0484  0429               	iorwf	_gotTheTouch+1,w
  2486  0485  1D03               	btfss	3,2
  2487  0486  2C88               	goto	u1491
  2488  0487  2C89               	goto	u1490
  2489  0488                     u1491:
  2490  0488  2C77               	goto	l1682
  2491  0489                     u1490:
  2492  0489                     l1688:
  2493                           
  2494                           ;main.c: 734:             forceArc = 0;
  2495  0489  01BC               	clrf	_forceArc
  2496  048A  01BD               	clrf	_forceArc+1
  2497                           
  2498                           ;main.c: 735:             for (i = 0; i < sizeof (gargoyles) && gotTheTouch && poweredOn
      +                          ; i++) playNote(gargoyles[i][0], gargoyles[i][1]);
  2499  048B  01FA               	clrf	_i
  2500  048C  01FB               	clrf	_i+1
  2501  048D  2CB5               	goto	l1694
  2502  048E                     l1690:
  2503  048E  087B               	movf	_i+1,w
  2504  048F  0085               	movwf	5
  2505  0490  087A               	movf	_i,w
  2506  0491  0084               	movwf	4
  2507  0492  3584               	lslf	4,f
  2508  0493  0D85               	rlf	5,f
  2509  0494  3584               	lslf	4,f
  2510  0495  0D85               	rlf	5,f
  2511  0496  3024               	movlw	low (_gargoyles| (0+32768))
  2512  0497  0784               	addwf	4,f
  2513  0498  3081               	movlw	high (_gargoyles| (0+32768))
  2514  0499  3D85               	addwfc	5,f
  2515  049A  3F00               	moviw [0]fsr0
  2516  049B  00F1               	movwf	playNote@note
  2517  049C  3F01               	moviw [1]fsr0
  2518  049D  00F2               	movwf	playNote@note+1
  2519  049E  087B               	movf	_i+1,w
  2520  049F  0085               	movwf	5
  2521  04A0  087A               	movf	_i,w
  2522  04A1  0084               	movwf	4
  2523  04A2  3584               	lslf	4,f
  2524  04A3  0D85               	rlf	5,f
  2525  04A4  3584               	lslf	4,f
  2526  04A5  0D85               	rlf	5,f
  2527  04A6  3026               	movlw	low ((_gargoyles+2)| (0+32768))
  2528  04A7  0784               	addwf	4,f
  2529  04A8  3081               	movlw	high ((_gargoyles+2)| (0+32768))
  2530  04A9  3D85               	addwfc	5,f
  2531  04AA  3F00               	moviw [0]fsr0
  2532  04AB  00F3               	movwf	playNote@duration
  2533  04AC  3F01               	moviw [1]fsr0
  2534  04AD  00F4               	movwf	playNote@duration+1
  2535  04AE  3187  27B2  3183   	fcall	_playNote
  2536  04B1                     l1692:
  2537  04B1  3001               	movlw	1
  2538  04B2  07FA               	addwf	_i,f
  2539  04B3  3000               	movlw	0
  2540  04B4  3DFB               	addwfc	_i+1,f
  2541  04B5                     l1694:
  2542  04B5  3001               	movlw	1
  2543  04B6  027B               	subwf	_i+1,w
  2544  04B7  30C0               	movlw	192
  2545  04B8  1903               	skipnz
  2546  04B9  027A               	subwf	_i,w
  2547  04BA  1803               	skipnc
  2548  04BB  2CBD               	goto	u1501
  2549  04BC  2CBE               	goto	u1500
  2550  04BD                     u1501:
  2551  04BD  2CDF               	goto	l1704
  2552  04BE                     u1500:
  2553  04BE                     l1696:
  2554  04BE  0140               	movlb	0	; select bank0
  2555  04BF  0828               	movf	_gotTheTouch,w
  2556  04C0  0429               	iorwf	_gotTheTouch+1,w
  2557  04C1  1903               	btfsc	3,2
  2558  04C2  2CC4               	goto	u1511
  2559  04C3  2CC5               	goto	u1510
  2560  04C4                     u1511:
  2561  04C4  2CDF               	goto	l1704
  2562  04C5                     u1510:
  2563  04C5                     l1698:
  2564  04C5  0830               	movf	_poweredOn,w
  2565  04C6  0431               	iorwf	_poweredOn+1,w
  2566  04C7  1D03               	btfss	3,2
  2567  04C8  2CCA               	goto	u1521
  2568  04C9  2CCB               	goto	u1520
  2569  04CA                     u1521:
  2570  04CA  2C8E               	goto	l1690
  2571  04CB                     u1520:
  2572  04CB  2CDF               	goto	l1704
  2573  04CC                     l1702:
  2574  04CC  083F               	movf	_runIndex,w
  2575  04CD  00F5               	movwf	??_doTheArc
  2576  04CE  01F6               	clrf	??_doTheArc+1
  2577                           
  2578                           ; Switch on 2 bytes has been partitioned into a top level switch of size 1, and 1 sub-sw
      +                          itches
  2579                           ; Switch size 1, requested type "simple"
  2580                           ; Number of cases is 1, Range of values is 0 to 0
  2581                           ; switch strategies available:
  2582                           ; Name         Instructions Cycles
  2583                           ; simple_byte            4     3 (average)
  2584                           ; direct_byte            8     6 (fixed)
  2585                           ; jumptable            260     6 (fixed)
  2586                           ;	Chosen strategy is simple_byte
  2587  04CF  0876               	movf	??_doTheArc+1,w
  2588  04D0  3A00               	xorlw	0	; case 0
  2589  04D1  1903               	skipnz
  2590  04D2  2CD4               	goto	l2210
  2591  04D3  2CDF               	goto	l1704
  2592  04D4                     l2210:
  2593                           
  2594                           ; Switch size 1, requested type "simple"
  2595                           ; Number of cases is 3, Range of values is 1 to 3
  2596                           ; switch strategies available:
  2597                           ; Name         Instructions Cycles
  2598                           ; simple_byte           10     6 (average)
  2599                           ; direct_byte           15     9 (fixed)
  2600                           ; jumptable            263     9 (fixed)
  2601                           ;	Chosen strategy is simple_byte
  2602  04D4  0875               	movf	??_doTheArc,w
  2603  04D5  3A01               	xorlw	1	; case 1
  2604  04D6  1903               	skipnz
  2605  04D7  2C01               	goto	l276
  2606  04D8  3A03               	xorlw	3	; case 2
  2607  04D9  1903               	skipnz
  2608  04DA  2C12               	goto	l283
  2609  04DB  3A01               	xorlw	1	; case 3
  2610  04DC  1903               	skipnz
  2611  04DD  2C6F               	goto	l294
  2612  04DE  2CDF               	goto	l1704
  2613  04DF                     l1704:
  2614                           
  2615                           ;main.c: 742:     forceArc = 0;
  2616  04DF  0140               	movlb	0	; select bank0
  2617  04E0  01BC               	clrf	_forceArc
  2618  04E1  01BD               	clrf	_forceArc+1
  2619                           
  2620                           ;main.c: 743:     gotTheTouch = 0;
  2621  04E2  01A8               	clrf	_gotTheTouch
  2622  04E3  01A9               	clrf	_gotTheTouch+1
  2623  04E4                     l1706:
  2624                           
  2625                           ;main.c: 745:     LATA1 = 1;
  2626  04E4  1498               	bsf	24,1	;volatile
  2627  04E5                     l1708:
  2628                           
  2629                           ;main.c: 746:     LATA2 = 1;
  2630  04E5  1518               	bsf	24,2	;volatile
  2631  04E6                     l1710:
  2632                           
  2633                           ;main.c: 747:     LATC0 = 1;
  2634  04E6  141A               	bsf	26,0	;volatile
  2635  04E7                     l1712:
  2636                           
  2637                           ;main.c: 748:     LATC1 = 1;
  2638  04E7  149A               	bsf	26,1	;volatile
  2639  04E8                     l306:
  2640  04E8  0008               	return
  2641  04E9                     __end_of_doTheArc:
  2642                           
  2643                           	psect	text4
  2644  07B2                     __ptext4:	
  2645 ;; *************** function _playNote *****************
  2646 ;; Defined at:
  2647 ;;		line 760 in file "main.c"
  2648 ;; Parameters:    Size  Location     Type
  2649 ;;  note            2    1[COMMON] unsigned int 
  2650 ;;  duration        2    3[COMMON] unsigned int 
  2651 ;; Auto vars:     Size  Location     Type
  2652 ;;		None
  2653 ;; Return value:  Size  Location     Type
  2654 ;;                  1    wreg      void 
  2655 ;; Registers used:
  2656 ;;		wreg, fsr0l, fsr0h, status,2, status,0, pclath
  2657 ;; Tracked objects:
  2658 ;;		On entry : 0/0
  2659 ;;		On exit  : 0/0
  2660 ;;		Unchanged: 0/0
  2661 ;; Data sizes:     COMMON   BANK0   BANK1   BANK2   BANK3   BANK4   BANK5   BANK6
  2662 ;;      Params:         4       0       0       0       0       0       0       0
  2663 ;;      Locals:         0       0       0       0       0       0       0       0
  2664 ;;      Temps:          0       0       0       0       0       0       0       0
  2665 ;;      Totals:         4       0       0       0       0       0       0       0
  2666 ;;Total ram usage:        4 bytes
  2667 ;; Hardware stack levels used: 1
  2668 ;; Hardware stack levels required when called: 1
  2669 ;; This function calls:
  2670 ;;		Nothing
  2671 ;; This function is called by:
  2672 ;;		_doTheArc
  2673 ;;		_goToLPmode
  2674 ;; This function uses a non-reentrant model
  2675 ;;
  2676                           
  2677                           
  2678                           ;psect for function _playNote
  2679  07B2                     _playNote:
  2680  07B2                     l1474:	
  2681                           ;incstack = 0
  2682                           ; Regs used in _playNote: [wreg-fsr0h+status,2+status,0+pclath]
  2683                           
  2684                           
  2685                           ;main.c: 761:     if (note > 0) {
  2686  07B2  0871               	movf	playNote@note,w
  2687  07B3  0472               	iorwf	playNote@note+1,w
  2688  07B4  1903               	btfsc	3,2
  2689  07B5  2FB7               	goto	u1001
  2690  07B6  2FB8               	goto	u1000
  2691  07B7                     u1001:
  2692  07B7  2FC7               	goto	l1480
  2693  07B8                     u1000:
  2694  07B8                     l1476:
  2695                           
  2696                           ;main.c: 762:         noGate = 0;
  2697  07B8  0140               	movlb	0	; select bank0
  2698  07B9  01E3               	clrf	_noGate
  2699  07BA  01E4               	clrf	_noGate+1
  2700  07BB                     l1478:
  2701                           
  2702                           ;main.c: 764:         TMR0H = notes[note];
  2703  07BB  0872               	movf	playNote@note+1,w
  2704  07BC  0085               	movwf	5
  2705  07BD  0871               	movf	playNote@note,w
  2706  07BE  0084               	movwf	4
  2707  07BF  30E4               	movlw	low (_notes| (0+32768))
  2708  07C0  0784               	addwf	4,f
  2709  07C1  3087               	movlw	high (_notes| (0+32768))
  2710  07C2  3D85               	addwfc	5,f
  2711  07C3  0800               	movf	0,w	;code access
  2712  07C4  014B               	movlb	11	; select bank11
  2713  07C5  009D               	movwf	29	;volatile
  2714                           
  2715                           ;main.c: 765:     } else {
  2716  07C6  2FCC               	goto	l317
  2717  07C7                     l1480:
  2718                           
  2719                           ;main.c: 766:         noGate = 1;
  2720  07C7  3001               	movlw	1
  2721  07C8  0140               	movlb	0	; select bank0
  2722  07C9  00E3               	movwf	_noGate
  2723  07CA  3000               	movlw	0
  2724  07CB  00E4               	movwf	_noGate+1
  2725  07CC                     l317:	
  2726                           ;main.c: 767:     }
  2727                           
  2728                           
  2729                           ;main.c: 768:     genericDelay = duration;
  2730  07CC  0874               	movf	playNote@duration+1,w
  2731  07CD  0140               	movlb	0	; select bank0
  2732  07CE  00B3               	movwf	_genericDelay+1
  2733  07CF  0873               	movf	playNote@duration,w
  2734  07D0  00B2               	movwf	_genericDelay
  2735  07D1                     l1482:	
  2736                           ;main.c: 769:     while (genericDelay && poweredOn && gotTheTouch);
  2737                           
  2738  07D1  0832               	movf	_genericDelay,w
  2739  07D2  0433               	iorwf	_genericDelay+1,w
  2740  07D3  1903               	btfsc	3,2
  2741  07D4  2FD6               	goto	u1011
  2742  07D5  2FD7               	goto	u1010
  2743  07D6                     u1011:
  2744  07D6  2FE3               	goto	l323
  2745  07D7                     u1010:
  2746  07D7                     l1484:
  2747  07D7  0830               	movf	_poweredOn,w
  2748  07D8  0431               	iorwf	_poweredOn+1,w
  2749  07D9  1903               	btfsc	3,2
  2750  07DA  2FDC               	goto	u1021
  2751  07DB  2FDD               	goto	u1020
  2752  07DC                     u1021:
  2753  07DC  2FE3               	goto	l323
  2754  07DD                     u1020:
  2755  07DD                     l1486:
  2756  07DD  0828               	movf	_gotTheTouch,w
  2757  07DE  0429               	iorwf	_gotTheTouch+1,w
  2758  07DF  1D03               	btfss	3,2
  2759  07E0  2FE2               	goto	u1031
  2760  07E1  2FE3               	goto	u1030
  2761  07E2                     u1031:
  2762  07E2  2FD1               	goto	l1482
  2763  07E3                     u1030:
  2764  07E3                     l323:
  2765  07E3  0008               	return
  2766  07E4                     __end_of_playNote:
  2767                           
  2768                           	psect	text5
  2769  05D9                     __ptext5:	
  2770 ;; *************** function _chargeIndicator *****************
  2771 ;; Defined at:
  2772 ;;		line 899 in file "main.c"
  2773 ;; Parameters:    Size  Location     Type
  2774 ;;		None
  2775 ;; Auto vars:     Size  Location     Type
  2776 ;;		None
  2777 ;; Return value:  Size  Location     Type
  2778 ;;                  1    wreg      void 
  2779 ;; Registers used:
  2780 ;;		wreg, status,2, status,0, pclath, cstack
  2781 ;; Tracked objects:
  2782 ;;		On entry : 0/0
  2783 ;;		On exit  : 0/0
  2784 ;;		Unchanged: 0/0
  2785 ;; Data sizes:     COMMON   BANK0   BANK1   BANK2   BANK3   BANK4   BANK5   BANK6
  2786 ;;      Params:         0       0       0       0       0       0       0       0
  2787 ;;      Locals:         0       4       0       0       0       0       0       0
  2788 ;;      Temps:          0       4       0       0       0       0       0       0
  2789 ;;      Totals:         0       8       0       0       0       0       0       0
  2790 ;;Total ram usage:        8 bytes
  2791 ;; Hardware stack levels used: 1
  2792 ;; Hardware stack levels required when called: 2
  2793 ;; This function calls:
  2794 ;;		___aldiv
  2795 ;;		_blockingDelay
  2796 ;; This function is called by:
  2797 ;;		_main
  2798 ;; This function uses a non-reentrant model
  2799 ;;
  2800                           
  2801                           
  2802                           ;psect for function _chargeIndicator
  2803  05D9                     _chargeIndicator:
  2804  05D9                     l1590:	
  2805                           ;incstack = 0
  2806                           ; Regs used in _chargeIndicator: [wreg+status,2+status,0+pclath+cstack]
  2807                           
  2808                           
  2809                           ;main.c: 901:     if (!debugging) ADCON0bits.ON = 1;
  2810  05D9  0140               	movlb	0	; select bank0
  2811  05DA  0843               	movf	_debugging,w
  2812  05DB  1D03               	btfss	3,2
  2813  05DC  2DDE               	goto	u1211
  2814  05DD  2DDF               	goto	u1210
  2815  05DE                     u1211:
  2816  05DE  2DE1               	goto	l346
  2817  05DF                     u1210:
  2818  05DF                     l1592:
  2819  05DF  0141               	movlb	1	; select bank1
  2820  05E0  141D               	bsf	29,0	;volatile
  2821  05E1                     l346:
  2822                           
  2823                           ;main.c: 907:     ADCON0bits.GO = 1;
  2824  05E1  0141               	movlb	1	; select bank1
  2825  05E2  149D               	bsf	29,1	;volatile
  2826  05E3                     l1594:
  2827                           
  2828                           ;main.c: 908:     if (!debugging) while (ADCON0bits.GO == 1);
  2829  05E3  0140               	movlb	0	; select bank0
  2830  05E4  0843               	movf	_debugging,w
  2831  05E5  1D03               	btfss	3,2
  2832  05E6  2DE8               	goto	u1221
  2833  05E7  2DE9               	goto	u1220
  2834  05E8                     u1221:
  2835  05E8  2DEE               	goto	l1598
  2836  05E9                     u1220:
  2837  05E9                     l348:
  2838  05E9  0141               	movlb	1	; select bank1
  2839  05EA  189D               	btfsc	29,1	;volatile
  2840  05EB  2DED               	goto	u1231
  2841  05EC  2DEE               	goto	u1230
  2842  05ED                     u1231:
  2843  05ED  2DE9               	goto	l348
  2844  05EE                     u1230:
  2845  05EE                     l1598:
  2846                           
  2847                           ;main.c: 909:     adcVolts = ADRES;
  2848  05EE  0141               	movlb	1	; select bank1
  2849  05EF  081C               	movf	28,w	;volatile
  2850  05F0  0140               	movlb	0	; select bank0
  2851  05F1  00A3               	movwf	_adcVolts+1
  2852  05F2  0141               	movlb	1	; select bank1
  2853  05F3  081B               	movf	27,w	;volatile
  2854  05F4  0140               	movlb	0	; select bank0
  2855  05F5  00A2               	movwf	_adcVolts
  2856  05F6                     l1600:
  2857                           
  2858                           ;main.c: 910:     if (!debugging) battVolts = ((calibrationMV * 1024L) / adcVolts) / 10L
      +                          ;
  2859  05F6  0843               	movf	_debugging,w
  2860  05F7  1D03               	btfss	3,2
  2861  05F8  2DFA               	goto	u1241
  2862  05F9  2DFB               	goto	u1240
  2863  05FA                     u1241:
  2864  05FA  2E3A               	goto	l1604
  2865  05FB                     u1240:
  2866  05FB                     l1602:
  2867  05FB  0822               	movf	_adcVolts,w
  2868  05FC  00F1               	movwf	___aldiv@divisor
  2869  05FD  0823               	movf	_adcVolts+1,w
  2870  05FE  00F2               	movwf	___aldiv@divisor+1
  2871  05FF  01F3               	clrf	___aldiv@divisor+2
  2872  0600  01F4               	clrf	___aldiv@divisor+3
  2873  0601  0820               	movf	_calibrationMV,w
  2874  0602  00D6               	movwf	??_chargeIndicator
  2875  0603  0821               	movf	_calibrationMV+1,w
  2876  0604  00D7               	movwf	??_chargeIndicator+1
  2877  0605  01D8               	clrf	??_chargeIndicator+2
  2878  0606  01D9               	clrf	??_chargeIndicator+3
  2879  0607  300A               	movlw	10
  2880  0608                     u1255:
  2881  0608  35D6               	lslf	??_chargeIndicator,f
  2882  0609  0DD7               	rlf	??_chargeIndicator+1,f
  2883  060A  0DD8               	rlf	??_chargeIndicator+2,f
  2884  060B  0DD9               	rlf	??_chargeIndicator+3,f
  2885  060C                     u1250:
  2886  060C  0B89               	decfsz	9,f
  2887  060D  2E08               	goto	u1255
  2888  060E  0859               	movf	??_chargeIndicator+3,w
  2889  060F  00F8               	movwf	___aldiv@dividend+3
  2890  0610  0858               	movf	??_chargeIndicator+2,w
  2891  0611  00F7               	movwf	___aldiv@dividend+2
  2892  0612  0857               	movf	??_chargeIndicator+1,w
  2893  0613  00F6               	movwf	___aldiv@dividend+1
  2894  0614  0856               	movf	??_chargeIndicator,w
  2895  0615  00F5               	movwf	___aldiv@dividend
  2896  0616  3186  26B5  3185   	fcall	___aldiv
  2897  0619  0874               	movf	?___aldiv+3,w
  2898  061A  0140               	movlb	0	; select bank0
  2899  061B  00DD               	movwf	_chargeIndicator$1408+3
  2900  061C  0873               	movf	?___aldiv+2,w
  2901  061D  00DC               	movwf	_chargeIndicator$1408+2
  2902  061E  0872               	movf	?___aldiv+1,w
  2903  061F  00DB               	movwf	_chargeIndicator$1408+1
  2904  0620  0871               	movf	?___aldiv,w
  2905  0621  00DA               	movwf	_chargeIndicator$1408
  2906  0622  3000               	movlw	0
  2907  0623  00F4               	movwf	___aldiv@divisor+3
  2908  0624  3000               	movlw	0
  2909  0625  00F3               	movwf	___aldiv@divisor+2
  2910  0626  3000               	movlw	0
  2911  0627  00F2               	movwf	___aldiv@divisor+1
  2912  0628  300A               	movlw	10
  2913  0629  00F1               	movwf	___aldiv@divisor
  2914  062A  085D               	movf	_chargeIndicator$1408+3,w
  2915  062B  00F8               	movwf	___aldiv@dividend+3
  2916  062C  085C               	movf	_chargeIndicator$1408+2,w
  2917  062D  00F7               	movwf	___aldiv@dividend+2
  2918  062E  085B               	movf	_chargeIndicator$1408+1,w
  2919  062F  00F6               	movwf	___aldiv@dividend+1
  2920  0630  085A               	movf	_chargeIndicator$1408,w
  2921  0631  00F5               	movwf	___aldiv@dividend
  2922  0632  3186  26B5  3185   	fcall	___aldiv
  2923  0635  0872               	movf	?___aldiv+1,w
  2924  0636  0140               	movlb	0	; select bank0
  2925  0637  00A5               	movwf	_battVolts+1
  2926  0638  0871               	movf	?___aldiv,w
  2927  0639  00A4               	movwf	_battVolts
  2928  063A                     l1604:
  2929                           
  2930                           ;main.c: 912:     if (battVolts > 415) {
  2931  063A  3001               	movlw	1
  2932  063B  0225               	subwf	_battVolts+1,w
  2933  063C  30A0               	movlw	160
  2934  063D  1903               	skipnz
  2935  063E  0224               	subwf	_battVolts,w
  2936  063F  1C03               	skipc
  2937  0640  2E42               	goto	u1261
  2938  0641  2E43               	goto	u1260
  2939  0642                     u1261:
  2940  0642  2E48               	goto	l1608
  2941  0643                     u1260:
  2942  0643                     l1606:
  2943                           
  2944                           ;main.c: 915:         LATA1 = 0;
  2945  0643  1098               	bcf	24,1	;volatile
  2946                           
  2947                           ;main.c: 916:         LATA2 = 0;
  2948  0644  1118               	bcf	24,2	;volatile
  2949                           
  2950                           ;main.c: 917:         LATC0 = 0;
  2951  0645  101A               	bcf	26,0	;volatile
  2952                           
  2953                           ;main.c: 918:         LATC1 = 0;
  2954  0646  109A               	bcf	26,1	;volatile
  2955                           
  2956                           ;main.c: 919:     } else if (battVolts > 398) {
  2957  0647  2EA3               	goto	l1642
  2958  0648                     l1608:
  2959  0648  3001               	movlw	1
  2960  0649  0225               	subwf	_battVolts+1,w
  2961  064A  308F               	movlw	143
  2962  064B  1903               	skipnz
  2963  064C  0224               	subwf	_battVolts,w
  2964  064D  1C03               	skipc
  2965  064E  2E50               	goto	u1271
  2966  064F  2E51               	goto	u1270
  2967  0650                     u1271:
  2968  0650  2E63               	goto	l1618
  2969  0651                     u1270:
  2970  0651                     l1610:
  2971                           
  2972                           ;main.c: 922:         LATA1 = 0;
  2973  0651  1098               	bcf	24,1	;volatile
  2974                           
  2975                           ;main.c: 923:         LATA2 = 0;
  2976  0652  1118               	bcf	24,2	;volatile
  2977                           
  2978                           ;main.c: 924:         LATC0 = 0;
  2979  0653  101A               	bcf	26,0	;volatile
  2980  0654                     l1612:
  2981                           
  2982                           ;main.c: 925:         if (charging) {
  2983  0654  0826               	movf	_charging,w
  2984  0655  0427               	iorwf	_charging+1,w
  2985  0656  1903               	btfsc	3,2
  2986  0657  2E59               	goto	u1281
  2987  0658  2E5A               	goto	u1280
  2988  0659                     u1281:
  2989  0659  2EA3               	goto	l1642
  2990  065A                     u1280:
  2991  065A                     l1614:
  2992                           
  2993                           ;main.c: 926:             if (chargeCycle) LATC1 = 0;
  2994  065A  083E               	movf	_chargeCycle,w
  2995  065B  1903               	btfsc	3,2
  2996  065C  2E5E               	goto	u1291
  2997  065D  2E5F               	goto	u1290
  2998  065E                     u1291:
  2999  065E  2E61               	goto	l356
  3000  065F                     u1290:
  3001  065F                     l1616:
  3002  065F  109A               	bcf	26,1	;volatile
  3003  0660  2EA3               	goto	l1642
  3004  0661                     l356:	
  3005                           ;main.c: 927:             else LATC1 = 1;
  3006                           
  3007  0661  149A               	bsf	26,1	;volatile
  3008  0662  2EA3               	goto	l1642
  3009  0663                     l1618:
  3010  0663  3001               	movlw	1
  3011  0664  0225               	subwf	_battVolts+1,w
  3012  0665  3081               	movlw	129
  3013  0666  1903               	skipnz
  3014  0667  0224               	subwf	_battVolts,w
  3015  0668  1C03               	skipc
  3016  0669  2E6B               	goto	u1301
  3017  066A  2E6C               	goto	u1300
  3018  066B                     u1301:
  3019  066B  2E7D               	goto	l1628
  3020  066C                     u1300:
  3021  066C                     l1620:
  3022                           
  3023                           ;main.c: 932:         LATA1 = 0;
  3024  066C  1098               	bcf	24,1	;volatile
  3025                           
  3026                           ;main.c: 933:         LATA2 = 0;
  3027  066D  1118               	bcf	24,2	;volatile
  3028  066E                     l1622:
  3029                           
  3030                           ;main.c: 934:         if (charging) {
  3031  066E  0826               	movf	_charging,w
  3032  066F  0427               	iorwf	_charging+1,w
  3033  0670  1903               	btfsc	3,2
  3034  0671  2E73               	goto	u1311
  3035  0672  2E74               	goto	u1310
  3036  0673                     u1311:
  3037  0673  2E61               	goto	l356
  3038  0674                     u1310:
  3039  0674                     l1624:
  3040                           
  3041                           ;main.c: 935:             if (chargeCycle) LATC0 = 0;
  3042  0674  083E               	movf	_chargeCycle,w
  3043  0675  1903               	btfsc	3,2
  3044  0676  2E78               	goto	u1321
  3045  0677  2E79               	goto	u1320
  3046  0678                     u1321:
  3047  0678  2E7B               	goto	l361
  3048  0679                     u1320:
  3049  0679                     l1626:
  3050  0679  101A               	bcf	26,0	;volatile
  3051  067A  2E61               	goto	l356
  3052  067B                     l361:	
  3053                           ;main.c: 936:             else LATC0 = 1;
  3054                           
  3055  067B  141A               	bsf	26,0	;volatile
  3056  067C  2E61               	goto	l356
  3057  067D                     l1628:
  3058  067D  3001               	movlw	1
  3059  067E  0225               	subwf	_battVolts+1,w
  3060  067F  3078               	movlw	120
  3061  0680  1903               	skipnz
  3062  0681  0224               	subwf	_battVolts,w
  3063  0682  1C03               	skipc
  3064  0683  2E85               	goto	u1331
  3065  0684  2E86               	goto	u1330
  3066  0685                     u1331:
  3067  0685  2E98               	goto	l1638
  3068  0686                     u1330:
  3069  0686                     l1630:
  3070                           
  3071                           ;main.c: 942:         LATA1 = 0;
  3072  0686  1098               	bcf	24,1	;volatile
  3073  0687                     l1632:
  3074                           
  3075                           ;main.c: 943:         if (charging) {
  3076  0687  0826               	movf	_charging,w
  3077  0688  0427               	iorwf	_charging+1,w
  3078  0689  1903               	btfsc	3,2
  3079  068A  2E8C               	goto	u1341
  3080  068B  2E8D               	goto	u1340
  3081  068C                     u1341:
  3082  068C  2E95               	goto	l365
  3083  068D                     u1340:
  3084  068D                     l1634:
  3085                           
  3086                           ;main.c: 944:             if (chargeCycle) LATA2 = 0;
  3087  068D  083E               	movf	_chargeCycle,w
  3088  068E  1903               	btfsc	3,2
  3089  068F  2E91               	goto	u1351
  3090  0690  2E92               	goto	u1350
  3091  0691                     u1351:
  3092  0691  2E94               	goto	l366
  3093  0692                     u1350:
  3094  0692                     l1636:
  3095  0692  1118               	bcf	24,2	;volatile
  3096  0693  2E95               	goto	l365
  3097  0694                     l366:	
  3098                           ;main.c: 945:             else LATA2 = 1;
  3099                           
  3100  0694  1518               	bsf	24,2	;volatile
  3101  0695                     l365:	
  3102                           ;main.c: 946:         }
  3103                           
  3104                           
  3105                           ;main.c: 947:         LATC0 = 1;
  3106  0695  141A               	bsf	26,0	;volatile
  3107                           
  3108                           ;main.c: 948:         LATC1 = 1;
  3109  0696  149A               	bsf	26,1	;volatile
  3110                           
  3111                           ;main.c: 949:     } else {
  3112  0697  2EA3               	goto	l1642
  3113  0698                     l1638:
  3114                           
  3115                           ;main.c: 951:         if (chargeCycle) LATA1 = 0;
  3116  0698  083E               	movf	_chargeCycle,w
  3117  0699  1903               	btfsc	3,2
  3118  069A  2E9C               	goto	u1361
  3119  069B  2E9D               	goto	u1360
  3120  069C                     u1361:
  3121  069C  2E9F               	goto	l369
  3122  069D                     u1360:
  3123  069D                     l1640:
  3124  069D  1098               	bcf	24,1	;volatile
  3125  069E  2EA0               	goto	l370
  3126  069F                     l369:	
  3127                           ;main.c: 952:         else LATA1 = 1;
  3128                           
  3129  069F  1498               	bsf	24,1	;volatile
  3130  06A0                     l370:
  3131                           
  3132                           ;main.c: 953:         LATA2 = 1;
  3133  06A0  1518               	bsf	24,2	;volatile
  3134                           
  3135                           ;main.c: 954:         LATC0 = 1;
  3136  06A1  141A               	bsf	26,0	;volatile
  3137                           
  3138                           ;main.c: 955:         LATC1 = 1;
  3139  06A2  149A               	bsf	26,1	;volatile
  3140  06A3                     l1642:
  3141                           
  3142                           ;main.c: 957:     if (charging) {
  3143  06A3  0826               	movf	_charging,w
  3144  06A4  0427               	iorwf	_charging+1,w
  3145  06A5  1903               	btfsc	3,2
  3146  06A6  2EA8               	goto	u1371
  3147  06A7  2EA9               	goto	u1370
  3148  06A8                     u1371:
  3149  06A8  2EB4               	goto	l372
  3150  06A9                     u1370:
  3151  06A9                     l1644:
  3152                           
  3153                           ;main.c: 958:         chargeCycle ^= 1;
  3154  06A9  3001               	movlw	1
  3155  06AA  00D6               	movwf	??_chargeIndicator
  3156  06AB  0856               	movf	??_chargeIndicator,w
  3157  06AC  06BE               	xorwf	_chargeCycle,f
  3158  06AD                     l1646:
  3159                           
  3160                           ;main.c: 960:         blockingDelay(500);
  3161  06AD  30F4               	movlw	244
  3162  06AE  00F1               	movwf	blockingDelay@mSecs
  3163  06AF  3001               	movlw	1
  3164  06B0  00F2               	movwf	blockingDelay@mSecs+1
  3165  06B1  318F  27AE  3185   	fcall	_blockingDelay
  3166  06B4                     l372:
  3167  06B4  0008               	return
  3168  06B5                     __end_of_chargeIndicator:
  3169                           
  3170                           	psect	text6
  3171  0FAE                     __ptext6:	
  3172 ;; *************** function _blockingDelay *****************
  3173 ;; Defined at:
  3174 ;;		line 753 in file "main.c"
  3175 ;; Parameters:    Size  Location     Type
  3176 ;;  mSecs           2    1[COMMON] unsigned int 
  3177 ;; Auto vars:     Size  Location     Type
  3178 ;;		None
  3179 ;; Return value:  Size  Location     Type
  3180 ;;                  1    wreg      void 
  3181 ;; Registers used:
  3182 ;;		wreg, status,2, status,0
  3183 ;; Tracked objects:
  3184 ;;		On entry : 0/0
  3185 ;;		On exit  : 0/0
  3186 ;;		Unchanged: 0/0
  3187 ;; Data sizes:     COMMON   BANK0   BANK1   BANK2   BANK3   BANK4   BANK5   BANK6
  3188 ;;      Params:         2       0       0       0       0       0       0       0
  3189 ;;      Locals:         0       0       0       0       0       0       0       0
  3190 ;;      Temps:          0       0       0       0       0       0       0       0
  3191 ;;      Totals:         2       0       0       0       0       0       0       0
  3192 ;;Total ram usage:        2 bytes
  3193 ;; Hardware stack levels used: 1
  3194 ;; Hardware stack levels required when called: 1
  3195 ;; This function calls:
  3196 ;;		Nothing
  3197 ;; This function is called by:
  3198 ;;		_main
  3199 ;;		_chargeIndicator
  3200 ;; This function uses a non-reentrant model
  3201 ;;
  3202                           
  3203                           
  3204                           ;psect for function _blockingDelay
  3205  0FAE                     _blockingDelay:
  3206  0FAE                     l1466:	
  3207                           ;incstack = 0
  3208                           ; Regs used in _blockingDelay: [wreg+status,2+status,0]
  3209                           
  3210                           
  3211                           ;main.c: 754:     genericDelay = mSecs;
  3212  0FAE  0872               	movf	blockingDelay@mSecs+1,w
  3213  0FAF  0140               	movlb	0	; select bank0
  3214  0FB0  00B3               	movwf	_genericDelay+1
  3215  0FB1  0871               	movf	blockingDelay@mSecs,w
  3216  0FB2  00B2               	movwf	_genericDelay
  3217  0FB3                     l1468:
  3218                           
  3219                           ;main.c: 755:     if(!debugging) while (genericDelay > 0);
  3220  0FB3  0843               	movf	_debugging,w
  3221  0FB4  1D03               	btfss	3,2
  3222  0FB5  2FB7               	goto	u981
  3223  0FB6  2FB8               	goto	u980
  3224  0FB7                     u981:
  3225  0FB7  2FBE               	goto	l313
  3226  0FB8                     u980:
  3227  0FB8                     l1472:
  3228  0FB8  0832               	movf	_genericDelay,w
  3229  0FB9  0433               	iorwf	_genericDelay+1,w
  3230  0FBA  1D03               	btfss	3,2
  3231  0FBB  2FBD               	goto	u991
  3232  0FBC  2FBE               	goto	u990
  3233  0FBD                     u991:
  3234  0FBD  2FB8               	goto	l1472
  3235  0FBE                     u990:
  3236  0FBE                     l313:
  3237  0FBE  0008               	return
  3238  0FBF                     __end_of_blockingDelay:
  3239                           
  3240                           	psect	text7
  3241  06B5                     __ptext7:	
  3242 ;; *************** function ___aldiv *****************
  3243 ;; Defined at:
  3244 ;;		line 5 in file "C:\Program Files\Microchip\xc8\v2.32\pic\sources\c99\common\aldiv.c"
  3245 ;; Parameters:    Size  Location     Type
  3246 ;;  divisor         4    1[COMMON] long 
  3247 ;;  dividend        4    5[COMMON] long 
  3248 ;; Auto vars:     Size  Location     Type
  3249 ;;  quotient        4    2[BANK0 ] long 
  3250 ;;  sign            1    1[BANK0 ] unsigned char 
  3251 ;;  counter         1    0[BANK0 ] unsigned char 
  3252 ;; Return value:  Size  Location     Type
  3253 ;;                  4    1[COMMON] long 
  3254 ;; Registers used:
  3255 ;;		wreg, status,2, status,0
  3256 ;; Tracked objects:
  3257 ;;		On entry : 0/0
  3258 ;;		On exit  : 0/0
  3259 ;;		Unchanged: 0/0
  3260 ;; Data sizes:     COMMON   BANK0   BANK1   BANK2   BANK3   BANK4   BANK5   BANK6
  3261 ;;      Params:         8       0       0       0       0       0       0       0
  3262 ;;      Locals:         0       6       0       0       0       0       0       0
  3263 ;;      Temps:          1       0       0       0       0       0       0       0
  3264 ;;      Totals:         9       6       0       0       0       0       0       0
  3265 ;;Total ram usage:       15 bytes
  3266 ;; Hardware stack levels used: 1
  3267 ;; Hardware stack levels required when called: 1
  3268 ;; This function calls:
  3269 ;;		Nothing
  3270 ;; This function is called by:
  3271 ;;		_chargeIndicator
  3272 ;; This function uses a non-reentrant model
  3273 ;;
  3274                           
  3275                           
  3276                           ;psect for function ___aldiv
  3277  06B5                     ___aldiv:
  3278  06B5                     l1488:	
  3279                           ;incstack = 0
  3280                           ; Regs used in ___aldiv: [wreg+status,2+status,0]
  3281                           
  3282  06B5  0140               	movlb	0	; select bank0
  3283  06B6  01D1               	clrf	___aldiv@sign
  3284  06B7                     l1490:
  3285  06B7  1FF4               	btfss	___aldiv@divisor+3,7
  3286  06B8  2EBA               	goto	u1041
  3287  06B9  2EBB               	goto	u1040
  3288  06BA                     u1041:
  3289  06BA  2EC8               	goto	l525
  3290  06BB                     u1040:
  3291  06BB                     l1492:
  3292  06BB  09F1               	comf	___aldiv@divisor,f
  3293  06BC  09F2               	comf	___aldiv@divisor+1,f
  3294  06BD  09F3               	comf	___aldiv@divisor+2,f
  3295  06BE  09F4               	comf	___aldiv@divisor+3,f
  3296  06BF  0AF1               	incf	___aldiv@divisor,f
  3297  06C0  1903               	skipnz
  3298  06C1  0AF2               	incf	___aldiv@divisor+1,f
  3299  06C2  1903               	skipnz
  3300  06C3  0AF3               	incf	___aldiv@divisor+2,f
  3301  06C4  1903               	skipnz
  3302  06C5  0AF4               	incf	___aldiv@divisor+3,f
  3303  06C6  01D1               	clrf	___aldiv@sign
  3304  06C7  0AD1               	incf	___aldiv@sign,f
  3305  06C8                     l525:
  3306  06C8  1FF8               	btfss	___aldiv@dividend+3,7
  3307  06C9  2ECB               	goto	u1051
  3308  06CA  2ECC               	goto	u1050
  3309  06CB                     u1051:
  3310  06CB  2EDB               	goto	l1498
  3311  06CC                     u1050:
  3312  06CC                     l1494:
  3313  06CC  09F5               	comf	___aldiv@dividend,f
  3314  06CD  09F6               	comf	___aldiv@dividend+1,f
  3315  06CE  09F7               	comf	___aldiv@dividend+2,f
  3316  06CF  09F8               	comf	___aldiv@dividend+3,f
  3317  06D0  0AF5               	incf	___aldiv@dividend,f
  3318  06D1  1903               	skipnz
  3319  06D2  0AF6               	incf	___aldiv@dividend+1,f
  3320  06D3  1903               	skipnz
  3321  06D4  0AF7               	incf	___aldiv@dividend+2,f
  3322  06D5  1903               	skipnz
  3323  06D6  0AF8               	incf	___aldiv@dividend+3,f
  3324  06D7                     l1496:
  3325  06D7  3001               	movlw	1
  3326  06D8  00F9               	movwf	??___aldiv
  3327  06D9  0879               	movf	??___aldiv,w
  3328  06DA  06D1               	xorwf	___aldiv@sign,f
  3329  06DB                     l1498:
  3330  06DB  3000               	movlw	0
  3331  06DC  00D5               	movwf	___aldiv@quotient+3
  3332  06DD  3000               	movlw	0
  3333  06DE  00D4               	movwf	___aldiv@quotient+2
  3334  06DF  3000               	movlw	0
  3335  06E0  00D3               	movwf	___aldiv@quotient+1
  3336  06E1  3000               	movlw	0
  3337  06E2  00D2               	movwf	___aldiv@quotient
  3338  06E3                     l1500:
  3339  06E3  0874               	movf	___aldiv@divisor+3,w
  3340  06E4  0473               	iorwf	___aldiv@divisor+2,w
  3341  06E5  0472               	iorwf	___aldiv@divisor+1,w
  3342  06E6  0471               	iorwf	___aldiv@divisor,w
  3343  06E7  1903               	skipnz
  3344  06E8  2EEA               	goto	u1061
  3345  06E9  2EEB               	goto	u1060
  3346  06EA                     u1061:
  3347  06EA  2F2C               	goto	l1520
  3348  06EB                     u1060:
  3349  06EB                     l1502:
  3350  06EB  01D0               	clrf	___aldiv@counter
  3351  06EC  0AD0               	incf	___aldiv@counter,f
  3352  06ED  2EF9               	goto	l1506
  3353  06EE                     l1504:
  3354  06EE  3001               	movlw	1
  3355  06EF                     u1075:
  3356  06EF  35F1               	lslf	___aldiv@divisor,f
  3357  06F0  0DF2               	rlf	___aldiv@divisor+1,f
  3358  06F1  0DF3               	rlf	___aldiv@divisor+2,f
  3359  06F2  0DF4               	rlf	___aldiv@divisor+3,f
  3360  06F3  0B89               	decfsz	9,f
  3361  06F4  2EEF               	goto	u1075
  3362  06F5  3001               	movlw	1
  3363  06F6  00F9               	movwf	??___aldiv
  3364  06F7  0879               	movf	??___aldiv,w
  3365  06F8  07D0               	addwf	___aldiv@counter,f
  3366  06F9                     l1506:
  3367  06F9  1FF4               	btfss	___aldiv@divisor+3,7
  3368  06FA  2EFC               	goto	u1081
  3369  06FB  2EFD               	goto	u1080
  3370  06FC                     u1081:
  3371  06FC  2EEE               	goto	l1504
  3372  06FD                     u1080:
  3373  06FD                     l1508:
  3374  06FD  3001               	movlw	1
  3375  06FE                     u1095:
  3376  06FE  35D2               	lslf	___aldiv@quotient,f
  3377  06FF  0DD3               	rlf	___aldiv@quotient+1,f
  3378  0700  0DD4               	rlf	___aldiv@quotient+2,f
  3379  0701  0DD5               	rlf	___aldiv@quotient+3,f
  3380  0702  0B89               	decfsz	9,f
  3381  0703  2EFE               	goto	u1095
  3382  0704                     l1510:
  3383  0704  0874               	movf	___aldiv@divisor+3,w
  3384  0705  0278               	subwf	___aldiv@dividend+3,w
  3385  0706  1D03               	skipz
  3386  0707  2F12               	goto	u1105
  3387  0708  0873               	movf	___aldiv@divisor+2,w
  3388  0709  0277               	subwf	___aldiv@dividend+2,w
  3389  070A  1D03               	skipz
  3390  070B  2F12               	goto	u1105
  3391  070C  0872               	movf	___aldiv@divisor+1,w
  3392  070D  0276               	subwf	___aldiv@dividend+1,w
  3393  070E  1D03               	skipz
  3394  070F  2F12               	goto	u1105
  3395  0710  0871               	movf	___aldiv@divisor,w
  3396  0711  0275               	subwf	___aldiv@dividend,w
  3397  0712                     u1105:
  3398  0712  1C03               	skipc
  3399  0713  2F15               	goto	u1101
  3400  0714  2F16               	goto	u1100
  3401  0715                     u1101:
  3402  0715  2F1F               	goto	l1516
  3403  0716                     u1100:
  3404  0716                     l1512:
  3405  0716  0871               	movf	___aldiv@divisor,w
  3406  0717  02F5               	subwf	___aldiv@dividend,f
  3407  0718  0872               	movf	___aldiv@divisor+1,w
  3408  0719  3BF6               	subwfb	___aldiv@dividend+1,f
  3409  071A  0873               	movf	___aldiv@divisor+2,w
  3410  071B  3BF7               	subwfb	___aldiv@dividend+2,f
  3411  071C  0874               	movf	___aldiv@divisor+3,w
  3412  071D  3BF8               	subwfb	___aldiv@dividend+3,f
  3413  071E                     l1514:
  3414  071E  1452               	bsf	___aldiv@quotient,0
  3415  071F                     l1516:
  3416  071F  3001               	movlw	1
  3417  0720                     u1115:
  3418  0720  36F4               	lsrf	___aldiv@divisor+3,f
  3419  0721  0CF3               	rrf	___aldiv@divisor+2,f
  3420  0722  0CF2               	rrf	___aldiv@divisor+1,f
  3421  0723  0CF1               	rrf	___aldiv@divisor,f
  3422  0724  0B89               	decfsz	9,f
  3423  0725  2F20               	goto	u1115
  3424  0726                     l1518:
  3425  0726  3001               	movlw	1
  3426  0727  02D0               	subwf	___aldiv@counter,f
  3427  0728  1D03               	btfss	3,2
  3428  0729  2F2B               	goto	u1121
  3429  072A  2F2C               	goto	u1120
  3430  072B                     u1121:
  3431  072B  2EFD               	goto	l1508
  3432  072C                     u1120:
  3433  072C                     l1520:
  3434  072C  0851               	movf	___aldiv@sign,w
  3435  072D  1903               	btfsc	3,2
  3436  072E  2F30               	goto	u1131
  3437  072F  2F31               	goto	u1130
  3438  0730                     u1131:
  3439  0730  2F3C               	goto	l1524
  3440  0731                     u1130:
  3441  0731                     l1522:
  3442  0731  09D2               	comf	___aldiv@quotient,f
  3443  0732  09D3               	comf	___aldiv@quotient+1,f
  3444  0733  09D4               	comf	___aldiv@quotient+2,f
  3445  0734  09D5               	comf	___aldiv@quotient+3,f
  3446  0735  0AD2               	incf	___aldiv@quotient,f
  3447  0736  1903               	skipnz
  3448  0737  0AD3               	incf	___aldiv@quotient+1,f
  3449  0738  1903               	skipnz
  3450  0739  0AD4               	incf	___aldiv@quotient+2,f
  3451  073A  1903               	skipnz
  3452  073B  0AD5               	incf	___aldiv@quotient+3,f
  3453  073C                     l1524:
  3454  073C  0855               	movf	___aldiv@quotient+3,w
  3455  073D  00F4               	movwf	?___aldiv+3
  3456  073E  0854               	movf	___aldiv@quotient+2,w
  3457  073F  00F3               	movwf	?___aldiv+2
  3458  0740  0853               	movf	___aldiv@quotient+1,w
  3459  0741  00F2               	movwf	?___aldiv+1
  3460  0742  0852               	movf	___aldiv@quotient,w
  3461  0743  00F1               	movwf	?___aldiv
  3462  0744                     l535:
  3463  0744  0008               	return
  3464  0745                     __end_of___aldiv:
  3465                           
  3466                           	psect	text8
  3467  0FD5                     __ptext8:	
  3468 ;; *************** function _ButtonDebounceInit *****************
  3469 ;; Defined at:
  3470 ;;		line 56 in file "source/button_debounce.c"
  3471 ;; Parameters:    Size  Location     Type
  3472 ;;  port            1    wreg     PTR struct .
  3473 ;;		 -> aPorts(12), 
  3474 ;;  pulledUpButt    1    1[COMMON] unsigned char 
  3475 ;; Auto vars:     Size  Location     Type
  3476 ;;  port            1    4[COMMON] PTR struct .
  3477 ;;		 -> aPorts(12), 
  3478 ;;  i               1    3[COMMON] unsigned char 
  3479 ;; Return value:  Size  Location     Type
  3480 ;;                  1    wreg      void 
  3481 ;; Registers used:
  3482 ;;		wreg, fsr1l, fsr1h, status,2, status,0
  3483 ;; Tracked objects:
  3484 ;;		On entry : 0/0
  3485 ;;		On exit  : 0/0
  3486 ;;		Unchanged: 0/0
  3487 ;; Data sizes:     COMMON   BANK0   BANK1   BANK2   BANK3   BANK4   BANK5   BANK6
  3488 ;;      Params:         1       0       0       0       0       0       0       0
  3489 ;;      Locals:         2       0       0       0       0       0       0       0
  3490 ;;      Temps:          1       0       0       0       0       0       0       0
  3491 ;;      Totals:         4       0       0       0       0       0       0       0
  3492 ;;Total ram usage:        4 bytes
  3493 ;; Hardware stack levels used: 1
  3494 ;; Hardware stack levels required when called: 1
  3495 ;; This function calls:
  3496 ;;		Nothing
  3497 ;; This function is called by:
  3498 ;;		_main
  3499 ;; This function uses a non-reentrant model
  3500 ;;
  3501                           
  3502                           
  3503                           ;psect for function _ButtonDebounceInit
  3504  0FD5                     _ButtonDebounceInit:
  3505                           
  3506                           ;incstack = 0
  3507                           ; Regs used in _ButtonDebounceInit: [wreg+fsr1l+fsr1h+status,2+status,0]
  3508                           ;ButtonDebounceInit@port stored from wreg
  3509  0FD5  00F4               	movwf	ButtonDebounceInit@port
  3510  0FD6                     l1528:
  3511                           
  3512                           ;source/button_debounce.c: 56: ButtonDebounceInit(Debouncer *port, uint8_t pulledUpButto
      +                          ns);source/button_debounce.c: 57: {;source/button_debounce.c: 58:     uint8_t i;;source/
      +                          button_debounce.c: 60:     port->index = 0;
  3513  0FD6  0874               	movf	ButtonDebounceInit@port,w
  3514  0FD7  3E08               	addlw	8
  3515  0FD8  0086               	movwf	6
  3516  0FD9  0187               	clrf	7
  3517  0FDA  0181               	clrf	1
  3518                           
  3519                           ;source/button_debounce.c: 61:     port->debouncedState = 0x00;
  3520  0FDB  0874               	movf	ButtonDebounceInit@port,w
  3521  0FDC  3E09               	addlw	9
  3522  0FDD  0086               	movwf	6
  3523  0FDE  0187               	clrf	7
  3524  0FDF  0181               	clrf	1
  3525                           
  3526                           ;source/button_debounce.c: 62:     port->changed = 0x00;
  3527  0FE0  0874               	movf	ButtonDebounceInit@port,w
  3528  0FE1  3E0A               	addlw	10
  3529  0FE2  0086               	movwf	6
  3530  0FE3  0187               	clrf	7
  3531  0FE4  0181               	clrf	1
  3532                           
  3533                           ;source/button_debounce.c: 63:     port->pullType = pulledUpButtons;
  3534  0FE5  0871               	movf	ButtonDebounceInit@pulledUpButtons,w
  3535  0FE6  00F2               	movwf	??_ButtonDebounceInit
  3536  0FE7  0874               	movf	ButtonDebounceInit@port,w
  3537  0FE8  3E0B               	addlw	11
  3538  0FE9  0086               	movwf	6
  3539  0FEA  0187               	clrf	7
  3540  0FEB  0872               	movf	??_ButtonDebounceInit,w
  3541  0FEC  0081               	movwf	1
  3542  0FED                     l1530:
  3543                           
  3544                           ;source/button_debounce.c: 66:     for(i = 0; i < 8; i++)
  3545  0FED  01F3               	clrf	ButtonDebounceInit@i
  3546  0FEE                     l1536:
  3547                           
  3548                           ;source/button_debounce.c: 67:     {;source/button_debounce.c: 68:         port->state[i
      +                          ] = 0x00;
  3549  0FEE  0873               	movf	ButtonDebounceInit@i,w
  3550  0FEF  0774               	addwf	ButtonDebounceInit@port,w
  3551  0FF0  00F2               	movwf	??_ButtonDebounceInit
  3552  0FF1  0872               	movf	??_ButtonDebounceInit,w
  3553  0FF2  0086               	movwf	6
  3554  0FF3  0187               	clrf	7
  3555  0FF4  0181               	clrf	1
  3556  0FF5                     l1538:
  3557                           
  3558                           ;source/button_debounce.c: 69:     }
  3559  0FF5  3001               	movlw	1
  3560  0FF6  00F2               	movwf	??_ButtonDebounceInit
  3561  0FF7  0872               	movf	??_ButtonDebounceInit,w
  3562  0FF8  07F3               	addwf	ButtonDebounceInit@i,f
  3563  0FF9                     l1540:
  3564  0FF9  3008               	movlw	8
  3565  0FFA  0273               	subwf	ButtonDebounceInit@i,w
  3566  0FFB  1C03               	skipc
  3567  0FFC  2FFE               	goto	u1141
  3568  0FFD  2FFF               	goto	u1140
  3569  0FFE                     u1141:
  3570  0FFE  2FEE               	goto	l1536
  3571  0FFF                     u1140:
  3572  0FFF                     l441:
  3573  0FFF  0008               	return
  3574  1000                     __end_of_ButtonDebounceInit:
  3575                           
  3576                           	psect	intentry
  3577  0004                     __pintentry:	
  3578 ;; *************** function _isr *****************
  3579 ;; Defined at:
  3580 ;;		line 562 in file "main.c"
  3581 ;; Parameters:    Size  Location     Type
  3582 ;;		None
  3583 ;; Auto vars:     Size  Location     Type
  3584 ;;		None
  3585 ;; Return value:  Size  Location     Type
  3586 ;;                  1    wreg      void 
  3587 ;; Registers used:
  3588 ;;		wreg, status,2, status,0
  3589 ;; Tracked objects:
  3590 ;;		On entry : 0/0
  3591 ;;		On exit  : 0/0
  3592 ;;		Unchanged: 0/0
  3593 ;; Data sizes:     COMMON   BANK0   BANK1   BANK2   BANK3   BANK4   BANK5   BANK6
  3594 ;;      Params:         0       0       0       0       0       0       0       0
  3595 ;;      Locals:         0       0       0       0       0       0       0       0
  3596 ;;      Temps:          1       0       0       0       0       0       0       0
  3597 ;;      Totals:         1       0       0       0       0       0       0       0
  3598 ;;Total ram usage:        1 bytes
  3599 ;; Hardware stack levels used: 1
  3600 ;; This function calls:
  3601 ;;		Nothing
  3602 ;; This function is called by:
  3603 ;;		Interrupt level 1
  3604 ;; This function uses a non-reentrant model
  3605 ;;
  3606                           
  3607  0004                     _isr:
  3608                           
  3609                           ;incstack = 0
  3610  0004  147E               	bsf	int$flags,0	;set compiler interrupt flag (level 1)
  3611                           
  3612                           ; Regs used in _isr: [wreg+status,2+status,0]
  3613  0005  3180               	pagesel	$
  3614  0006                     i1l1884:
  3615                           
  3616                           ;main.c: 567:     if (PIR1bits.TMR1IF) {
  3617  0006  014E               	movlb	14	; select bank14
  3618  0007  1E8D               	btfss	13,5	;volatile
  3619  0008  280A               	goto	u163_21
  3620  0009  280B               	goto	u163_20
  3621  000A                     u163_21:
  3622  000A  2871               	goto	i1l244
  3623  000B                     u163_20:
  3624  000B                     i1l1886:
  3625                           
  3626                           ;main.c: 568:         TMR1H = 0xFE;
  3627  000B  30FE               	movlw	254
  3628  000C  0144               	movlb	4	; select bank4
  3629  000D  008D               	movwf	13	;volatile
  3630                           
  3631                           ;main.c: 569:         TMR1L = 0x55;
  3632  000E  3055               	movlw	85
  3633  000F  008C               	movwf	12	;volatile
  3634  0010                     i1l1888:
  3635                           
  3636                           ;main.c: 571:         if (debugging) clockDivider = 15;
  3637  0010  0140               	movlb	0	; select bank0
  3638  0011  0843               	movf	_debugging,w
  3639  0012  1903               	btfsc	3,2
  3640  0013  2815               	goto	u164_21
  3641  0014  2816               	goto	u164_20
  3642  0015                     u164_21:
  3643  0015  281A               	goto	i1l245
  3644  0016                     u164_20:
  3645  0016                     i1l1890:
  3646  0016  300F               	movlw	15
  3647  0017  00F0               	movwf	??_isr
  3648  0018  0870               	movf	??_isr,w
  3649  0019  00C2               	movwf	_clockDivider
  3650  001A                     i1l245:
  3651                           
  3652                           ;main.c: 572:         if (clockDivider < 15) {
  3653  001A  300F               	movlw	15
  3654  001B  0242               	subwf	_clockDivider,w
  3655  001C  1803               	skipnc
  3656  001D  281F               	goto	u165_21
  3657  001E  2820               	goto	u165_20
  3658  001F                     u165_21:
  3659  001F  2825               	goto	i1l1894
  3660  0020                     u165_20:
  3661  0020                     i1l1892:
  3662                           
  3663                           ;main.c: 573:             clockDivider++;
  3664  0020  3001               	movlw	1
  3665  0021  00F0               	movwf	??_isr
  3666  0022  0870               	movf	??_isr,w
  3667  0023  07C2               	addwf	_clockDivider,f
  3668                           
  3669                           ;main.c: 574:         } else {
  3670  0024  2842               	goto	i1l1908
  3671  0025                     i1l1894:
  3672                           
  3673                           ;main.c: 576:             if (debugging) genericDelay = 0;
  3674  0025  0843               	movf	_debugging,w
  3675  0026  1903               	btfsc	3,2
  3676  0027  2829               	goto	u166_21
  3677  0028  282A               	goto	u166_20
  3678  0029                     u166_21:
  3679  0029  282D               	goto	i1l1898
  3680  002A                     u166_20:
  3681  002A                     i1l1896:
  3682  002A  01B2               	clrf	_genericDelay
  3683  002B  01B3               	clrf	_genericDelay+1
  3684  002C  2837               	goto	i1l1902
  3685  002D                     i1l1898:
  3686  002D  0832               	movf	_genericDelay,w
  3687  002E  0433               	iorwf	_genericDelay+1,w
  3688  002F  1903               	btfsc	3,2
  3689  0030  2832               	goto	u167_21
  3690  0031  2833               	goto	u167_20
  3691  0032                     u167_21:
  3692  0032  2837               	goto	i1l1902
  3693  0033                     u167_20:
  3694  0033                     i1l1900:
  3695  0033  3001               	movlw	1
  3696  0034  02B2               	subwf	_genericDelay,f
  3697  0035  3000               	movlw	0
  3698  0036  3BB3               	subwfb	_genericDelay+1,f
  3699  0037                     i1l1902:
  3700                           
  3701                           ;main.c: 578:             clockDivider = 0;
  3702  0037  01C2               	clrf	_clockDivider
  3703  0038                     i1l1904:
  3704                           
  3705                           ;main.c: 581:             if (buttonDebounce < 5) buttonDebounce++;
  3706  0038  3005               	movlw	5
  3707  0039  0241               	subwf	_buttonDebounce,w
  3708  003A  1803               	skipnc
  3709  003B  283D               	goto	u168_21
  3710  003C  283E               	goto	u168_20
  3711  003D                     u168_21:
  3712  003D  2842               	goto	i1l1908
  3713  003E                     u168_20:
  3714  003E                     i1l1906:
  3715  003E  3001               	movlw	1
  3716  003F  00F0               	movwf	??_isr
  3717  0040  0870               	movf	??_isr,w
  3718  0041  07C1               	addwf	_buttonDebounce,f
  3719  0042                     i1l1908:
  3720                           
  3721                           ;main.c: 598:         if ((gate || forceArc) && poweredOn && gotTheTouch) {
  3722  0042  083A               	movf	_gate,w
  3723  0043  043B               	iorwf	_gate+1,w
  3724  0044  1D03               	btfss	3,2
  3725  0045  2847               	goto	u169_21
  3726  0046  2848               	goto	u169_20
  3727  0047                     u169_21:
  3728  0047  284E               	goto	i1l1912
  3729  0048                     u169_20:
  3730  0048                     i1l1910:
  3731  0048  083C               	movf	_forceArc,w
  3732  0049  043D               	iorwf	_forceArc+1,w
  3733  004A  1903               	btfsc	3,2
  3734  004B  284D               	goto	u170_21
  3735  004C  284E               	goto	u170_20
  3736  004D                     u170_21:
  3737  004D  286D               	goto	i1l253
  3738  004E                     u170_20:
  3739  004E                     i1l1912:
  3740  004E  0830               	movf	_poweredOn,w
  3741  004F  0431               	iorwf	_poweredOn+1,w
  3742  0050  1903               	btfsc	3,2
  3743  0051  2853               	goto	u171_21
  3744  0052  2854               	goto	u171_20
  3745  0053                     u171_21:
  3746  0053  286D               	goto	i1l253
  3747  0054                     u171_20:
  3748  0054                     i1l1914:
  3749  0054  0828               	movf	_gotTheTouch,w
  3750  0055  0429               	iorwf	_gotTheTouch+1,w
  3751  0056  1903               	btfsc	3,2
  3752  0057  2859               	goto	u172_21
  3753  0058  285A               	goto	u172_20
  3754  0059                     u172_21:
  3755  0059  286D               	goto	i1l253
  3756  005A                     u172_20:
  3757  005A                     i1l1916:
  3758                           
  3759                           ;main.c: 599:             pinState ^= 1;
  3760  005A  3001               	movlw	(0+1) shl (_pinState& (0+7))
  3761  005B  06FC               	xorwf	_pinState/(0+8),f
  3762  005C                     i1l1918:
  3763                           
  3764                           ;main.c: 600:             LATC4 = pinState;
  3765  005C  187C               	btfsc	_pinState/(0+8),_pinState& (0+7)
  3766  005D  285F               	goto	u173_21
  3767  005E  2862               	goto	u173_20
  3768  005F                     u173_21:
  3769  005F  0140               	movlb	0	; select bank0
  3770  0060  161A               	bsf	26,4	;volatile
  3771  0061  2864               	goto	u174_24
  3772  0062                     u173_20:
  3773  0062  0140               	movlb	0	; select bank0
  3774  0063  121A               	bcf	26,4	;volatile
  3775  0064                     u174_24:
  3776  0064                     i1l1920:
  3777                           
  3778                           ;main.c: 601:             LATC5 = (pinState^1);
  3779  0064  1C7C               	btfss	_pinState/(0+8),_pinState& (0+7)
  3780  0065  2867               	goto	u175_21
  3781  0066  286A               	goto	u175_20
  3782  0067                     u175_21:
  3783  0067  0140               	movlb	0	; select bank0
  3784  0068  169A               	bsf	26,5	;volatile
  3785  0069  286C               	goto	u176_24
  3786  006A                     u175_20:
  3787  006A  0140               	movlb	0	; select bank0
  3788  006B  129A               	bcf	26,5	;volatile
  3789  006C                     u176_24:
  3790                           
  3791                           ;main.c: 602:         } else {
  3792  006C  286F               	goto	i1l256
  3793  006D                     i1l253:
  3794                           
  3795                           ;main.c: 603:             LATC4 = 0;
  3796  006D  121A               	bcf	26,4	;volatile
  3797                           
  3798                           ;main.c: 604:             LATC5 = 0;
  3799  006E  129A               	bcf	26,5	;volatile
  3800  006F                     i1l256:	
  3801                           ;main.c: 605:         }
  3802                           
  3803                           
  3804                           ;main.c: 607:         PIR1bits.TMR1IF = 0;
  3805  006F  014E               	movlb	14	; select bank14
  3806  0070  128D               	bcf	13,5	;volatile
  3807  0071                     i1l244:	
  3808                           ;main.c: 608:     }
  3809                           
  3810                           
  3811                           ;main.c: 613:     if (PIR0bits.TMR0IF) {
  3812  0071  1E8C               	btfss	12,5	;volatile
  3813  0072  2874               	goto	u177_21
  3814  0073  2875               	goto	u177_20
  3815  0074                     u177_21:
  3816  0074  288F               	goto	i1l1934
  3817  0075                     u177_20:
  3818  0075                     i1l1922:
  3819                           
  3820                           ;main.c: 614:         if (!noGate) {
  3821  0075  0140               	movlb	0	; select bank0
  3822  0076  0863               	movf	_noGate,w
  3823  0077  0464               	iorwf	_noGate+1,w
  3824  0078  1D03               	btfss	3,2
  3825  0079  287B               	goto	u178_21
  3826  007A  287C               	goto	u178_20
  3827  007B                     u178_21:
  3828  007B  288B               	goto	i1l1930
  3829  007C                     u178_20:
  3830  007C                     i1l1924:
  3831                           
  3832                           ;main.c: 615:             postscaler ^= 1;
  3833  007C  3001               	movlw	1
  3834  007D  06B6               	xorwf	_postscaler,f
  3835  007E  3000               	movlw	0
  3836  007F  06B7               	xorwf	_postscaler+1,f
  3837  0080                     i1l1926:
  3838                           
  3839                           ;main.c: 616:             if (postscaler) {
  3840  0080  0836               	movf	_postscaler,w
  3841  0081  0437               	iorwf	_postscaler+1,w
  3842  0082  1903               	btfsc	3,2
  3843  0083  2885               	goto	u179_21
  3844  0084  2886               	goto	u179_20
  3845  0085                     u179_21:
  3846  0085  288D               	goto	i1l1932
  3847  0086                     u179_20:
  3848  0086                     i1l1928:
  3849                           
  3850                           ;main.c: 617:                 gate ^= 1;
  3851  0086  3001               	movlw	1
  3852  0087  06BA               	xorwf	_gate,f
  3853  0088  3000               	movlw	0
  3854  0089  06BB               	xorwf	_gate+1,f
  3855  008A  288D               	goto	i1l1932
  3856  008B                     i1l1930:
  3857                           
  3858                           ;main.c: 620:             gate = 0;
  3859  008B  01BA               	clrf	_gate
  3860  008C  01BB               	clrf	_gate+1
  3861  008D                     i1l1932:
  3862                           
  3863                           ;main.c: 622:         PIR0bits.TMR0IF = 0;
  3864  008D  014E               	movlb	14	; select bank14
  3865  008E  128C               	bcf	12,5	;volatile
  3866  008F                     i1l1934:
  3867                           
  3868                           ;main.c: 626:     if (PIR0bits.IOCIF) {
  3869  008F  1E0C               	btfss	12,4	;volatile
  3870  0090  2892               	goto	u180_21
  3871  0091  2893               	goto	u180_20
  3872  0092                     u180_21:
  3873  0092  2909               	goto	i1l271
  3874  0093                     u180_20:
  3875  0093                     i1l1936:
  3876                           
  3877                           ;main.c: 630:         if (IOCAF4) {
  3878  0093  017E               	movlb	62	; select bank62
  3879  0094  1E3F               	btfss	63,4	;volatile
  3880  0095  2897               	goto	u181_21
  3881  0096  2898               	goto	u181_20
  3882  0097                     u181_21:
  3883  0097  28AB               	goto	i1l1944
  3884  0098                     u181_20:
  3885  0098                     i1l1938:
  3886                           
  3887                           ;main.c: 631:             IOCAF4 = 0;
  3888  0098  123F               	bcf	63,4	;volatile
  3889                           
  3890                           ;main.c: 633:             if (!PORTAbits.RA4) {
  3891  0099  0140               	movlb	0	; select bank0
  3892  009A  1A0C               	btfsc	12,4	;volatile
  3893  009B  289D               	goto	u182_21
  3894  009C  289E               	goto	u182_20
  3895  009D                     u182_21:
  3896  009D  28A7               	goto	i1l1942
  3897  009E                     u182_20:
  3898  009E                     i1l1940:
  3899                           
  3900                           ;main.c: 636:                 charging = 1;
  3901  009E  3001               	movlw	1
  3902  009F  00A6               	movwf	_charging
  3903  00A0  3000               	movlw	0
  3904  00A1  00A7               	movwf	_charging+1
  3905                           
  3906                           ;main.c: 637:                 showCharge = 1;
  3907  00A2  3001               	movlw	1
  3908  00A3  00AE               	movwf	_showCharge
  3909  00A4  3000               	movlw	0
  3910  00A5  00AF               	movwf	_showCharge+1
  3911                           
  3912                           ;main.c: 640:             } else {
  3913  00A6  28AB               	goto	i1l1944
  3914  00A7                     i1l1942:
  3915                           
  3916                           ;main.c: 642:                 charging = 0;
  3917  00A7  01A6               	clrf	_charging
  3918  00A8  01A7               	clrf	_charging+1
  3919                           
  3920                           ;main.c: 644:                 showCharge = 0;
  3921  00A9  01AE               	clrf	_showCharge
  3922  00AA  01AF               	clrf	_showCharge+1
  3923  00AB                     i1l1944:
  3924                           
  3925                           ;main.c: 652:         if (IOCAF0) {
  3926  00AB  017E               	movlb	62	; select bank62
  3927  00AC  1C3F               	btfss	63,0	;volatile
  3928  00AD  28AF               	goto	u183_21
  3929  00AE  28B0               	goto	u183_20
  3930  00AF                     u183_21:
  3931  00AF  28D8               	goto	i1l1968
  3932  00B0                     u183_20:
  3933  00B0                     i1l1946:
  3934                           
  3935                           ;main.c: 653:             IOCAF0 = 0;
  3936  00B0  103F               	bcf	63,0	;volatile
  3937                           
  3938                           ;main.c: 655:             if (!PORTAbits.RA0 && PORTAbits.RA4) {
  3939  00B1  0140               	movlb	0	; select bank0
  3940  00B2  180C               	btfsc	12,0	;volatile
  3941  00B3  28B5               	goto	u184_21
  3942  00B4  28B6               	goto	u184_20
  3943  00B5                     u184_21:
  3944  00B5  28C6               	goto	i1l1958
  3945  00B6                     u184_20:
  3946  00B6                     i1l1948:
  3947  00B6  1E0C               	btfss	12,4	;volatile
  3948  00B7  28B9               	goto	u185_21
  3949  00B8  28BA               	goto	u185_20
  3950  00B9                     u185_21:
  3951  00B9  28C6               	goto	i1l1958
  3952  00BA                     u185_20:
  3953  00BA                     i1l1950:
  3954                           
  3955                           ;main.c: 656:                 lowPowerMode = 0;
  3956  00BA  01AC               	clrf	_lowPowerMode
  3957  00BB  01AD               	clrf	_lowPowerMode+1
  3958  00BC                     i1l1952:
  3959                           
  3960                           ;main.c: 657:                 poweredOn = 1;
  3961  00BC  3001               	movlw	1
  3962  00BD  00B0               	movwf	_poweredOn
  3963  00BE  3000               	movlw	0
  3964  00BF  00B1               	movwf	_poweredOn+1
  3965  00C0                     i1l1954:
  3966                           
  3967                           ;main.c: 658:                 showCharge = 1;
  3968  00C0  3001               	movlw	1
  3969  00C1  00AE               	movwf	_showCharge
  3970  00C2  3000               	movlw	0
  3971  00C3  00AF               	movwf	_showCharge+1
  3972  00C4                     i1l1956:
  3973                           
  3974                           ;main.c: 659:                 fadeUp = 1;
  3975  00C4  01C0               	clrf	_fadeUp
  3976  00C5  0AC0               	incf	_fadeUp,f
  3977  00C6                     i1l1958:
  3978                           
  3979                           ;main.c: 662:             if (PORTAbits.RA0 && PORTAbits.RA4) {
  3980  00C6  1C0C               	btfss	12,0	;volatile
  3981  00C7  28C9               	goto	u186_21
  3982  00C8  28CA               	goto	u186_20
  3983  00C9                     u186_21:
  3984  00C9  28D8               	goto	i1l1968
  3985  00CA                     u186_20:
  3986  00CA                     i1l1960:
  3987  00CA  1E0C               	btfss	12,4	;volatile
  3988  00CB  28CD               	goto	u187_21
  3989  00CC  28CE               	goto	u187_20
  3990  00CD                     u187_21:
  3991  00CD  28D8               	goto	i1l1968
  3992  00CE                     u187_20:
  3993  00CE                     i1l1962:
  3994                           
  3995                           ;main.c: 664:                 showCharge = 0;
  3996  00CE  01AE               	clrf	_showCharge
  3997  00CF  01AF               	clrf	_showCharge+1
  3998                           
  3999                           ;main.c: 665:                 poweredOn = 0;
  4000  00D0  01B0               	clrf	_poweredOn
  4001  00D1  01B1               	clrf	_poweredOn+1
  4002  00D2                     i1l1964:
  4003                           
  4004                           ;main.c: 666:                 lowPowerMode = 1;
  4005  00D2  3001               	movlw	1
  4006  00D3  00AC               	movwf	_lowPowerMode
  4007  00D4  3000               	movlw	0
  4008  00D5  00AD               	movwf	_lowPowerMode+1
  4009  00D6                     i1l1966:
  4010                           
  4011                           ;main.c: 667:                 forceArc = 0;
  4012  00D6  01BC               	clrf	_forceArc
  4013  00D7  01BD               	clrf	_forceArc+1
  4014  00D8                     i1l1968:
  4015                           
  4016                           ;main.c: 672:         if (IOCAF3) {
  4017  00D8  017E               	movlb	62	; select bank62
  4018  00D9  1DBF               	btfss	63,3	;volatile
  4019  00DA  28DC               	goto	u188_21
  4020  00DB  28DD               	goto	u188_20
  4021  00DC                     u188_21:
  4022  00DC  2909               	goto	i1l271
  4023  00DD                     u188_20:
  4024  00DD                     i1l1970:
  4025                           
  4026                           ;main.c: 673:             IOCAF3 = 0;
  4027  00DD  11BF               	bcf	63,3	;volatile
  4028                           
  4029                           ;main.c: 675:             if (!PORTAbits.RA3 && !PORTAbits.RA0 && PORTAbits.RA4) {
  4030  00DE  0140               	movlb	0	; select bank0
  4031  00DF  198C               	btfsc	12,3	;volatile
  4032  00E0  28E2               	goto	u189_21
  4033  00E1  28E3               	goto	u189_20
  4034  00E2                     u189_21:
  4035  00E2  28F7               	goto	i1l1982
  4036  00E3                     u189_20:
  4037  00E3                     i1l1972:
  4038  00E3  180C               	btfsc	12,0	;volatile
  4039  00E4  28E6               	goto	u190_21
  4040  00E5  28E7               	goto	u190_20
  4041  00E6                     u190_21:
  4042  00E6  28F7               	goto	i1l1982
  4043  00E7                     u190_20:
  4044  00E7                     i1l1974:
  4045  00E7  1E0C               	btfss	12,4	;volatile
  4046  00E8  28EA               	goto	u191_21
  4047  00E9  28EB               	goto	u191_20
  4048  00EA                     u191_21:
  4049  00EA  28F7               	goto	i1l1982
  4050  00EB                     u191_20:
  4051  00EB                     i1l1976:
  4052                           
  4053                           ;main.c: 676:                 lowPowerMode = 0;
  4054  00EB  01AC               	clrf	_lowPowerMode
  4055  00EC  01AD               	clrf	_lowPowerMode+1
  4056  00ED                     i1l1978:
  4057                           
  4058                           ;main.c: 677:                 poweredOn = 1;
  4059  00ED  3001               	movlw	1
  4060  00EE  00B0               	movwf	_poweredOn
  4061  00EF  3000               	movlw	0
  4062  00F0  00B1               	movwf	_poweredOn+1
  4063  00F1                     i1l1980:
  4064                           
  4065                           ;main.c: 678:                 showCharge = 0;
  4066  00F1  01AE               	clrf	_showCharge
  4067  00F2  01AF               	clrf	_showCharge+1
  4068                           
  4069                           ;main.c: 679:                 gotTheTouch = 1;
  4070  00F3  3001               	movlw	1
  4071  00F4  00A8               	movwf	_gotTheTouch
  4072  00F5  3000               	movlw	0
  4073  00F6  00A9               	movwf	_gotTheTouch+1
  4074  00F7                     i1l1982:
  4075                           
  4076                           ;main.c: 682:             if (PORTAbits.RA3 && !PORTAbits.RA0 && PORTAbits.RA4) {
  4077  00F7  1D8C               	btfss	12,3	;volatile
  4078  00F8  28FA               	goto	u192_21
  4079  00F9  28FB               	goto	u192_20
  4080  00FA                     u192_21:
  4081  00FA  2909               	goto	i1l271
  4082  00FB                     u192_20:
  4083  00FB                     i1l1984:
  4084  00FB  180C               	btfsc	12,0	;volatile
  4085  00FC  28FE               	goto	u193_21
  4086  00FD  28FF               	goto	u193_20
  4087  00FE                     u193_21:
  4088  00FE  2909               	goto	i1l271
  4089  00FF                     u193_20:
  4090  00FF                     i1l1986:
  4091  00FF  1E0C               	btfss	12,4	;volatile
  4092  0100  2902               	goto	u194_21
  4093  0101  2903               	goto	u194_20
  4094  0102                     u194_21:
  4095  0102  2909               	goto	i1l271
  4096  0103                     u194_20:
  4097  0103                     i1l1988:
  4098                           
  4099                           ;main.c: 686:                 showCharge = 1;
  4100  0103  3001               	movlw	1
  4101  0104  00AE               	movwf	_showCharge
  4102  0105  3000               	movlw	0
  4103  0106  00AF               	movwf	_showCharge+1
  4104  0107                     i1l1990:
  4105                           
  4106                           ;main.c: 687:                 gotTheTouch = 0;
  4107  0107  01A8               	clrf	_gotTheTouch
  4108  0108  01A9               	clrf	_gotTheTouch+1
  4109  0109                     i1l271:
  4110  0109  107E               	bcf	int$flags,0	;clear compiler interrupt flag (level 1)
  4111  010A  0009               	retfie
  4112  010B                     __end_of_isr:
  4113  007E                     btemp	set	126	;btemp
  4114  007E                     int$flags	set	126
  4115  007E                     wtemp0	set	126
  4116                           
  4117                           	psect	config
  4118                           
  4119                           ;Config register CONFIG1 @ 0x8007
  4120                           ;	External Oscillator Mode Selection bits
  4121                           ;	FEXTOSC = 0x3, unprogrammed default
  4122                           ;	Power-up Default Value for COSC bits
  4123                           ;	RSTOSC = 0x0, user specified literal
  4124                           ;	Clock Out Enable bit
  4125                           ;	CLKOUTEN = 0x1, user specified literal
  4126                           ;	VDD Range Analog Calibration Selection bit
  4127                           ;	VDDAR = 0x1, unprogrammed default
  4128  8007                     	org	32775
  4129  8007  3FCF               	dw	16335
  4130                           
  4131                           ;Config register CONFIG2 @ 0x8008
  4132                           ;	Master Clear Enable bit
  4133                           ;	MCLRE = 0x0, user specified literal
  4134                           ;	Power-up Timer Selection bits
  4135                           ;	PWRTS = 0x3, unprogrammed default
  4136                           ;	WDT Operating Mode bits
  4137                           ;	WDTE = 0x0, user specified literal
  4138                           ;	Brown-out Reset Enable bits
  4139                           ;	BOREN = 0x0, user specified literal
  4140                           ;	Brown-out Reset Voltage Selection bit
  4141                           ;	BORV = LO, Brown-out Reset Voltage (VBOR) set to 1.9V
  4142                           ;	PPSLOCKED One-Way Set Enable bit
  4143                           ;	PPS1WAY = 0x1, unprogrammed default
  4144                           ;	Stack Overflow/Underflow Reset Enable bit
  4145                           ;	STVREN = ON, Stack Overflow or Underflow will cause a reset
  4146  8008                     	org	32776
  4147  8008  3F26               	dw	16166
  4148                           
  4149                           ;Config register CONFIG4 @ 0x800A
  4150                           ;	Boot Block Size Selection bits
  4151                           ;	BBSIZE = 0x7, unprogrammed default
  4152                           ;	Boot Block Enable bit
  4153                           ;	BBEN = 0x1, unprogrammed default
  4154                           ;	SAF Enable bit
  4155                           ;	SAFEN = 0x1, unprogrammed default
  4156                           ;	Application Block Write Protection bit
  4157                           ;	WRTAPP = 0x1, unprogrammed default
  4158                           ;	Boot Block Write Protection bit
  4159                           ;	WRTB = 0x1, unprogrammed default
  4160                           ;	Configuration Registers Write Protection bit
  4161                           ;	WRTC = 0x1, unprogrammed default
  4162                           ;	Storage Area Flash (SAF) Write Protection bit
  4163                           ;	WRTSAF = OFF, SAF is not write-protected
  4164                           ;	Low Voltage Programming Enable bit
  4165                           ;	LVP = OFF, High Voltage on MCLR/Vpp must be used for programming
  4166  800A                     	org	32778
  4167  800A  1FFF               	dw	8191
  4168                           
  4169                           ;Config register CONFIG5 @ 0x800B
  4170                           ;	User Program Flash Memory Code Protection bit
  4171                           ;	CP = OFF, User Program Flash Memory code protection is disabled
  4172  800B                     	org	32779
  4173  800B  3FFF               	dw	16383

Data Sizes:
    Strings     0
    Constant    724
    Data        2
    BSS         50
    Persistent  32
    Stack       0

Auto Spaces:
    Space          Size  Autos    Used
    COMMON           14     10      13
    BANK0            80     19      69
    BANK1            80      0       0
    BANK2            80      0       0
    BANK3            80      0       0
    BANK4            80      0       0
    BANK5            80      0       0
    BANK6            16      0       0

Pointer List with Targets:

    ButtonDebounceInit@port	PTR struct . size(1) Largest target is 12
		 -> aPorts(BANK0[12]), 


Critical Paths under _main in COMMON

    _goToLPmode->_playNote
    _doTheArc->_playNote
    _chargeIndicator->___aldiv

Critical Paths under _isr in COMMON

    None.

Critical Paths under _main in BANK0

    _main->_chargeIndicator
    _chargeIndicator->___aldiv

Critical Paths under _isr in BANK0

    None.

Critical Paths under _main in BANK1

    None.

Critical Paths under _isr in BANK1

    None.

Critical Paths under _main in BANK2

    None.

Critical Paths under _isr in BANK2

    None.

Critical Paths under _main in BANK3

    None.

Critical Paths under _isr in BANK3

    None.

Critical Paths under _main in BANK4

    None.

Critical Paths under _isr in BANK4

    None.

Critical Paths under _main in BANK5

    None.

Critical Paths under _isr in BANK5

    None.

Critical Paths under _main in BANK6

    None.

Critical Paths under _isr in BANK6

    None.

Call Graph Tables:

 ---------------------------------------------------------------------------------
 (Depth) Function   	        Calls       Base Space   Used Autos Params    Refs
 ---------------------------------------------------------------------------------
 (0) _main                                                 5     1      4    2936
                                             14 BANK0      5     1      4
                 _ButtonDebounceInit
                      _blockingDelay
                    _chargeIndicator
                           _doTheArc
                               _fade
                         _goToLPmode
 ---------------------------------------------------------------------------------
 (1) _goToLPmode                                           0     0      0     522
                           _playNote
 ---------------------------------------------------------------------------------
 (1) _fade                                                 0     0      0       0
 ---------------------------------------------------------------------------------
 (1) _doTheArc                                             2     2      0     522
                                              5 COMMON     2     2      0
                           _playNote
 ---------------------------------------------------------------------------------
 (2) _playNote                                             4     0      4     522
                                              1 COMMON     4     0      4
 ---------------------------------------------------------------------------------
 (1) _chargeIndicator                                      8     8      0    1105
                                              6 BANK0      8     8      0
                            ___aldiv
                      _blockingDelay
 ---------------------------------------------------------------------------------
 (2) _blockingDelay                                        2     0      2     478
                                              1 COMMON     2     0      2
 ---------------------------------------------------------------------------------
 (2) ___aldiv                                             15     7      8     604
                                              1 COMMON     9     1      8
                                              0 BANK0      6     6      0
 ---------------------------------------------------------------------------------
 (1) _ButtonDebounceInit                                   4     3      1     309
                                              1 COMMON     4     3      1
 ---------------------------------------------------------------------------------
 Estimated maximum stack depth 2
 ---------------------------------------------------------------------------------
 (Depth) Function   	        Calls       Base Space   Used Autos Params    Refs
 ---------------------------------------------------------------------------------
 (3) _isr                                                  1     1      0       0
                                              0 COMMON     1     1      0
 ---------------------------------------------------------------------------------
 Estimated maximum stack depth 3
 ---------------------------------------------------------------------------------

 Call Graph Graphs:

 _main (ROOT)
   _ButtonDebounceInit
   _blockingDelay
   _chargeIndicator
     ___aldiv
     _blockingDelay
   _doTheArc
     _playNote
   _fade
   _goToLPmode
     _playNote

 _isr (ROOT)

 Address spaces:
Name               Size   Autos  Total    Cost      Usage
BIGRAM             1F0      0       0       0        0.0%
NULL                 0      0       0       0        0.0%
CODE                 0      0       0       0        0.0%
BITCOMMON            E      0       1       1        7.1%
BITSFR0              0      0       0       1        0.0%
SFR0                 0      0       0       1        0.0%
COMMON               E      A       D       2       92.9%
BITSFR1              0      0       0       2        0.0%
SFR1                 0      0       0       2        0.0%
BITSFR2              0      0       0       3        0.0%
SFR2                 0      0       0       3        0.0%
STACK                0      0       0       3        0.0%
BITSFR3              0      0       0       4        0.0%
SFR3                 0      0       0       4        0.0%
ABS                  0      0      52       4        0.0%
BITBANK0            50      0       0       5        0.0%
BITSFR4              0      0       0       5        0.0%
SFR4                 0      0       0       5        0.0%
BANK0               50     13      45       6       86.2%
BITSFR5              0      0       0       6        0.0%
SFR5                 0      0       0       6        0.0%
BITBANK1            50      0       0       7        0.0%
BITSFR6              0      0       0       7        0.0%
SFR6                 0      0       0       7        0.0%
BANK1               50      0       0       8        0.0%
BITSFR7              0      0       0       8        0.0%
SFR7                 0      0       0       8        0.0%
BITBANK2            50      0       0       9        0.0%
BITSFR8              0      0       0       9        0.0%
SFR8                 0      0       0       9        0.0%
BANK2               50      0       0      10        0.0%
BITSFR9              0      0       0      10        0.0%
SFR9                 0      0       0      10        0.0%
BITBANK3            50      0       0      11        0.0%
BITSFR10             0      0       0      11        0.0%
SFR10                0      0       0      11        0.0%
BANK3               50      0       0      12        0.0%
BITSFR11             0      0       0      12        0.0%
SFR11                0      0       0      12        0.0%
BITBANK4            50      0       0      13        0.0%
BITSFR12             0      0       0      13        0.0%
SFR12                0      0       0      13        0.0%
BANK4               50      0       0      14        0.0%
BITSFR13             0      0       0      14        0.0%
SFR13                0      0       0      14        0.0%
BITBANK5            50      0       0      15        0.0%
BITSFR14             0      0       0      15        0.0%
SFR14                0      0       0      15        0.0%
BANK5               50      0       0      16        0.0%
BITSFR15             0      0       0      16        0.0%
SFR15                0      0       0      16        0.0%
BITBANK6            10      0       0      17        0.0%
BITSFR16             0      0       0      17        0.0%
SFR16                0      0       0      17        0.0%
BANK6               10      0       0      18        0.0%
BITSFR17             0      0       0      18        0.0%
SFR17                0      0       0      18        0.0%
BITSFR18             0      0       0      19        0.0%
SFR18                0      0       0      19        0.0%
DATA                 0      0      52      19        0.0%
BITSFR19             0      0       0      20        0.0%
SFR19                0      0       0      20        0.0%
BITSFR20             0      0       0      21        0.0%
SFR20                0      0       0      21        0.0%
BITSFR21             0      0       0      22        0.0%
SFR21                0      0       0      22        0.0%
BITSFR22             0      0       0      23        0.0%
SFR22                0      0       0      23        0.0%
BITSFR23             0      0       0      24        0.0%
SFR23                0      0       0      24        0.0%
BITSFR24             0      0       0      25        0.0%
SFR24                0      0       0      25        0.0%
BITSFR25             0      0       0      26        0.0%
SFR25                0      0       0      26        0.0%
BITSFR26             0      0       0      27        0.0%
SFR26                0      0       0      27        0.0%
BITSFR27             0      0       0      28        0.0%
SFR27                0      0       0      28        0.0%
BITSFR28             0      0       0      29        0.0%
SFR28                0      0       0      29        0.0%
BITSFR29             0      0       0      30        0.0%
SFR29                0      0       0      30        0.0%
BITSFR30             0      0       0      31        0.0%
SFR30                0      0       0      31        0.0%
BITSFR31             0      0       0      32        0.0%
SFR31                0      0       0      32        0.0%
BITSFR32             0      0       0      33        0.0%
SFR32                0      0       0      33        0.0%
BITSFR33             0      0       0      34        0.0%
SFR33                0      0       0      34        0.0%
BITSFR34             0      0       0      35        0.0%
SFR34                0      0       0      35        0.0%
BITSFR35             0      0       0      36        0.0%
SFR35                0      0       0      36        0.0%
BITSFR36             0      0       0      37        0.0%
SFR36                0      0       0      37        0.0%
BITSFR37             0      0       0      38        0.0%
SFR37                0      0       0      38        0.0%
BITSFR38             0      0       0      39        0.0%
SFR38                0      0       0      39        0.0%
BITSFR39             0      0       0      40        0.0%
SFR39                0      0       0      40        0.0%
BITSFR40             0      0       0      41        0.0%
SFR40                0      0       0      41        0.0%
BITSFR41             0      0       0      42        0.0%
SFR41                0      0       0      42        0.0%
BITSFR42             0      0       0      43        0.0%
SFR42                0      0       0      43        0.0%
BITSFR43             0      0       0      44        0.0%
SFR43                0      0       0      44        0.0%
BITSFR44             0      0       0      45        0.0%
SFR44                0      0       0      45        0.0%
BITSFR45             0      0       0      46        0.0%
SFR45                0      0       0      46        0.0%
BITSFR46             0      0       0      47        0.0%
SFR46                0      0       0      47        0.0%
BITSFR47             0      0       0      48        0.0%
SFR47                0      0       0      48        0.0%
BITSFR48             0      0       0      49        0.0%
SFR48                0      0       0      49        0.0%
BITSFR49             0      0       0      50        0.0%
SFR49                0      0       0      50        0.0%
BITSFR50             0      0       0      51        0.0%
SFR50                0      0       0      51        0.0%
BITSFR51             0      0       0      52        0.0%
SFR51                0      0       0      52        0.0%
BITSFR52             0      0       0      53        0.0%
SFR52                0      0       0      53        0.0%
BITSFR53             0      0       0      54        0.0%
SFR53                0      0       0      54        0.0%
BITSFR54             0      0       0      55        0.0%
SFR54                0      0       0      55        0.0%
BITSFR55             0      0       0      56        0.0%
SFR55                0      0       0      56        0.0%
BITSFR56             0      0       0      57        0.0%
SFR56                0      0       0      57        0.0%
BITSFR57             0      0       0      58        0.0%
SFR57                0      0       0      58        0.0%
BITSFR58             0      0       0      59        0.0%
SFR58                0      0       0      59        0.0%
BITSFR59             0      0       0      60        0.0%
SFR59                0      0       0      60        0.0%
BITSFR60             0      0       0      61        0.0%
SFR60                0      0       0      61        0.0%
BITSFR61             0      0       0      62        0.0%
SFR61                0      0       0      62        0.0%
BITSFR62             0      0       0      63        0.0%
SFR62                0      0       0      63        0.0%
BITSFR63             0      0       0      64        0.0%
SFR63                0      0       0      64        0.0%


Microchip Technology PIC Macro Assembler V2.32 build 20210201212658 
Symbol Table                                                                                   Fri Sep 24 16:25:50 2021

                                _i 007A                                l231 037D  
                              l313 0FBE                                l225 0349  
                              l306 04E8                                l323 07E3  
                              l227 0355                                l236 03E0  
                              l317 07CC                                l334 0761  
                              l326 0FD4                                l343 07B1  
                              l441 0FFF                                l361 067B  
                              l370 06A0                                l346 05E1  
                              l283 0412                                l339 07AF  
                              l372 06B4                                l356 0661  
                              l348 05E9                                l276 0401  
                              l525 06C8                                l365 0695  
                              l366 0694                                l294 046F  
                              l535 0744                                l369 069F  
                              _GIE 005F                                u980 0FB8  
                              u981 0FB7                                u990 0FBE  
                              u991 0FBD                                _isr 0004  
                              wreg 0009                               l2100 031A  
                             l2110 0327                               l2102 031E  
                             l2120 032F                               l2112 0328  
                             l2104 031F                               l2040 02E4  
                             l2210 04D4                               l2130 033A  
                             l2122 0332                               l2114 032A  
                             l2106 0323                               l2050 02F0  
                             l2042 02E9                               l1500 06E3  
                             l2140 034F                               l2132 033B  
                             l2124 0336                               l2116 032C  
                             l2108 0324                               l2060 02F8  
                             l2052 02F1                               l2044 02EA  
                             l1510 0704                               l1502 06EB  
                             l2150 0369                               l2134 0340  
                             l2126 0337                               l2118 032E  
                             l2070 02FE                               l2062 02FA  
                             l2054 02F2                               l2046 02EC  
                             l1512 0716                               l1504 06EE  
                             l1520 072C                               l1600 05F6  
                             l2160 039B                               l2152 0374  
                             l2144 035A                               l2136 0341  
                             l2128 0338                               l2080 0303  
                             l2072 02FF                               l2064 02FB  
                             l2056 02F4                               l2048 02EE  
                             l1530 0FED                               l1522 0731  
                             l1514 071E                               l1506 06F9  
                             l1610 0651                               l1602 05FB  
                             l2170 03BB                               l2162 03A4  
                             l2154 037B                               l2146 0362  
                             l2138 0347                               l2090 0308  
                             l2082 0304                               l2074 0300  
                             l2066 02FC                               l2058 02F6  
                             l1540 0FF9                               l1524 073C  
                             l1516 071F                               l1508 06FD  
                             l1620 066C                               l1612 0654  
                             l1604 063A                               l2180 03D4  
                             l2172 03C0                               l2164 03AD  
                             l2156 038B                               l2148 0367  
                             l2092 0310                               l2084 0305  
                             l2076 0301                               l2068 02FD  
                             l1518 0726                               l1630 0686  
                             l1622 066E                               l1614 065A  
                             l1606 0643                               l1710 04E6  
                             l1702 04CC                               l1550 0766  
                             l1542 0745                               l2182 03D6  
                             l2174 03C4                               l2166 03B6  
                             l2158 0392                               l2094 0315  
                             l2086 0306                               l2078 0302  
                             l1536 0FEE                               l1528 0FD6  
                             l1472 0FB8                               l1640 069D  
                             l1632 0687                               l1624 0674  
                             l1616 065F                               l1608 0648  
                             l1480 07C7                               l1712 04E7  
                             l1704 04DF                               l1552 076C  
                             l1560 0787                               l1544 074B  
                             l1720 0FC2                               l2184 03DC  
                             l2176 03CA                               l2168 03B8  
                             l2096 0316                               l2088 0307  
                             l1538 0FF5                               l1490 06B7  
                             l1466 0FAE                               l1634 068D  
                             l1626 0679                               l1618 0663  
                             l1642 06A3                               l1482 07D1  
                             l1474 07B2                               l1706 04E4  
                             l1650 03F4                               l1570 079B  
                             l1554 0771                               l1546 0750  
                             l1730 0FD1                               l1722 0FCC  
                             l2186 03E2                               l2178 03CD  
                             l2098 0318                               l1492 06BB  
                             l1468 0FB3                               l1644 06A9  
                             l1636 0692                               l1628 067D  
                             l1484 07D7                               l1476 07B8  
                             l1708 04E5                               l1660 0416  
                             l1652 03F8                               l1580 07A6  
                             l1572 079C                               l1564 078E  
                             l1556 0777                               l1548 0752  
                             l1732 0FD2                               l1724 0FCE  
                             l2188 03E9                               l1494 06CC  
                             l1646 06AD                               l1638 0698  
                             l1590 05D9                               l1486 07DD  
                             l1478 07BB                               l1670 0431  
                             l1662 041A                               l1654 03FE  
                             l1582 07A8                               l1574 07A1  
                             l1566 0794                               l1558 0780  
                             l1726 0FCF                               l1718 0FBF  
                             l1496 06D7                               l1488 06B5  
                             l1592 05DF                               l1680 0473  
                             l1672 0454                               l1664 0420  
                             l1656 0405                               l1648 03EF  
                             l1584 07AA                               l1576 07A2  
                             l1568 0797                               l1728 0FD0  
                             l1498 06DB                               l1594 05E3  
                             l1690 048E                               l1682 0477  
                             l1674 0458                               l1666 0426  
                             l1658 040B                               l1586 07AC  
                             l1578 07A3                               l1692 04B1  
                             l1684 047D                               l1676 0461  
                             l1668 042C                               l1588 07AF  
                             l1598 05EE                               l1694 04B5  
                             l1686 0483                               l1678 0468  
                             l1696 04BE                               l1688 0489  
                             l1698 04C5                               ?_isr 0070  
                             u1000 07B8                               u1001 07B7  
                             u1010 07D7                               u1011 07D6  
                             u1100 0716                               u1020 07DD  
                             u1101 0715                               u1021 07DC  
                             u1030 07E3                               u1031 07E2  
                             u1120 072C                               u1040 06BB  
                             u1200 0794                               u2000 0367  
                             u1121 072B                               u1105 0712  
                             u1041 06BA                               u1201 0793  
                             u2001 0366                               u1130 0731  
                             u1050 06CC                               u1210 05DF  
                             u2010 037B                               u1131 0730  
                             u1115 0720                               u1051 06CB  
                             u1211 05DE                               u2011 037A  
                             u1140 0FFF                               u1060 06EB  
                             u1300 066C                               u1220 05E9  
                             u2020 03C0                               u1141 0FFE  
                             u1061 06EA                               u1301 066B  
                             u1221 05E8                               u2021 03BF  
                             u1310 0674                               u1230 05EE  
                             u1150 074B                               u2030 03CA  
                             u1311 0673                               u1231 05ED  
                             u1151 074A                               u2031 03C9  
                             u1080 06FD                               u1320 0679  
                             u1240 05FB                               u1400 0411  
                             u1160 0750                               u2040 03D4  
                             u1081 06FC                               u1321 0678  
                             u1241 05FA                               u1401 0410  
                             u1161 074F                               u2041 03D3  
                             u1330 0686                               u1250 060C  
                             u1410 0420                               u1170 076C  
                             u2050 03DC                               u1075 06EF  
                             u1331 0685                               u1411 041F  
                             u1171 076B                               u2051 03DB  
                             u1340 068D                               u1260 0643  
                             u1500 04BE                               u1420 0426  
                             u1180 0780                               u2060 03E9  
                             u1341 068C                               u1261 0642  
                             u1501 04BD                               u1421 0425  
                             u1181 077F                               u2061 03E8  
                             u1350 0692                               u1270 0651  
                             u1510 04C5                               u1430 042C  
                             u1190 078D                               u1095 06FE  
                             u1351 0691                               u1271 0650  
                             u1255 0608                               u1511 04C4  
                             u1431 042B                               u1191 078C  
                             u1360 069D                               u1280 065A  
                             u1520 04CB                               u1440 0461  
                             u1361 069C                               u1281 0659  
                             u1521 04CA                               u1441 0460  
                             u1370 06A9                               u1290 065F  
                             u1450 0468                               u1371 06A8  
                             u1291 065E                               u1451 0467  
                             u1460 046E                               u1380 03FE  
                             u1461 046D                               u1381 03FD  
                             u1470 047D                               u1390 040B  
                             u1471 047C                               u1391 040A  
                             u1480 0483                               u1481 0482  
                             u1490 0489                               u1491 0488  
                             u1970 0347                               u1971 0346  
                             _PEIE 005E                               u1980 0355  
                             u1981 0354                               _INTE 38B0  
                             u1990 035A                               u1991 0359  
                             _fade 0745                               _gate 003A  
                             _main 02E4                               fsr0h 0005  
                             fsr1h 0007                               indf0 0000  
                             fsr0l 0004                               indf1 0001  
                             fsr1l 0006                               btemp 007E  
                             start 010B                ButtonDebounceInit@i 0073  
                 playNote@duration 0073                              ??_isr 0070  
                            ?_fade 0070                    __end_of___aldiv 0745  
                            ?_main 005E                              _ADRES 009B  
                            _LATA1 00C1                              _LATA2 00C2  
                            _LATC0 00D0                              _LATC1 00D1  
                            _LATC2 00D2                              _LATC3 00D3  
                            _LATC4 00D4                              _LATC5 00D5  
                            _IOCIE 38B4                              i1l244 0071  
                            i1l253 006D                              i1l245 001A  
                            i1l271 0109                              i1l256 006F  
                            _TMR0H 059D                              _TMR1H 020D  
                            _TMR1L 020C                              _PORTA 000C  
                            _WPUA0 F9C8                              _WPUA3 F9CB  
                            _WPUA4 F9CC                              _sheRa 04E9  
                            _notes 07E4                     __pbitbssCOMMON 03E0  
                            status 0003                              wtemp0 007E  
                  __initialization 010D                       __end_of_fade 07B2  
                     __end_of_main 03EF                    _chargeIndicator 05D9  
                           ??_fade 0071                             ??_main 0062  
                           _ANSELC 1F4E                             _IOCAF0 F9F8  
                           _IOCAF3 F9FB                             _IOCAF4 F9FC  
                           _IOCAN0 F9F0                             _IOCAN3 F9F3  
                           _IOCAP0 F9E8                             _IOCAN4 F9F4  
                           _IOCAP3 F9EB                             _IOCAP4 F9EC  
                           _RA1PPS 1F11                             _RA2PPS 1F12  
                           _RC0PPS 1F20                             _RC1PPS 1F21  
                           _RC2PPS 1F22                             i1l1900 0033  
                           i1l1910 0048                             i1l1902 0037  
                           i1l1920 0064                             i1l1912 004E  
                           i1l1904 0038                             i1l1930 008B  
                           i1l1922 0075                             i1l1914 0054  
                           i1l1906 003E                             i1l1940 009E  
                           i1l1932 008D                             i1l1924 007C  
                           i1l1916 005A                             i1l1908 0042  
                           i1l1950 00BA                             i1l1942 00A7  
                           i1l1926 0080                             i1l1934 008F  
                           i1l1918 005C                             i1l1960 00CA  
                           i1l1952 00BC                             i1l1944 00AB  
                           i1l1936 0093                             i1l1928 0086  
                           i1l1970 00DD                             i1l1962 00CE  
                           i1l1954 00C0                             i1l1946 00B0  
                           i1l1938 0098                             i1l1890 0016  
                           i1l1980 00F1                             i1l1972 00E3  
                           i1l1964 00D2                             i1l1956 00C4  
                           i1l1948 00B6                             i1l1892 0020  
                           i1l1884 0006                             i1l1990 0107  
                           i1l1974 00E7                             i1l1982 00F7  
                           i1l1966 00D6                             i1l1958 00C6  
                           i1l1894 0025                             i1l1886 000B  
                           i1l1984 00FB                             i1l1976 00EB  
                           i1l1968 00D8                             i1l1896 002A  
                           i1l1888 0010                             i1l1986 00FF  
                           i1l1978 00ED                             i1l1898 002D  
                           i1l1988 0103                             u170_20 004E  
                           u170_21 004D                             u171_20 0054  
                           u163_20 000B                             u171_21 0053  
                           u163_21 000A                             u180_20 0093  
                           u172_20 005A                             u164_20 0016  
                           u180_21 0092                             u172_21 0059  
                           u164_21 0015                             u181_20 0098  
                           u173_20 0062                             u165_20 0020  
                           u181_21 0097                             u173_21 005F  
                           u165_21 001F                             u190_20 00E7  
                           u182_20 009E                             u166_20 002A  
                           u190_21 00E6                             u182_21 009D  
                           u166_21 0029                             u174_24 0064  
                           u191_20 00EB                             u183_20 00B0  
                           u175_20 006A                             u167_20 0033  
                           u191_21 00EA                             u183_21 00AF  
                           u175_21 0067                             u167_21 0032  
                           u192_20 00FB                             u184_20 00B6  
                           u168_20 003E                             u192_21 00FA  
                           u184_21 00B5                             u168_21 003D  
                           u176_24 006C                             u193_20 00FF  
                           u185_20 00BA                             u177_20 0075  
                           u169_20 0048                             u193_21 00FE  
                           u185_21 00B9                             u177_21 0074  
                           u169_21 0047                             u194_20 0103  
                           u186_20 00CA                             u178_20 007C  
                           u194_21 0102                             u186_21 00C9  
                           u178_21 007B                             u187_20 00CE  
                           u179_20 0086                             u187_21 00CD  
                           u179_21 0085                             u188_20 00DD  
                           u188_21 00DC                             u189_20 00E3  
                           u189_21 00E2                             _NVMADR 081A  
                           _NVMDAT 081C                             _PWM3DC 0314  
                           _TMR0IE 38B5                             _TMR1IE 38BD  
                           _TRISA0 0090                             _TRISA1 0091  
                           _TRISA2 0092                             _TRISA3 0093  
                           _TRISA4 0094                             _TRISC0 00A0  
                           _TRISA5 0095                             _TRISC1 00A1  
                           _TRISC2 00A2                             _TRISC3 00A3  
                           _TRISC4 00A4                             _TRISC5 00A5  
                 __end_of_doTheArc 04E9                             _aPorts 0044  
                        ??___aldiv 0079                             _fadeUp 0040  
                           _noGate 0063                   __end_of_playNote 07E4  
          __end_of__initialization 0120            __end_of_chargeIndicator 06B5  
                   __pcstackCOMMON 0070                       __pidataBANK0 0002  
                    __end_of_sheRa 05D9                      __end_of_notes 0808  
            __end_of_blockingDelay 0FBF                         _abortAbort 0038  
                       __pbssBANK0 0020        __size_of_ButtonDebounceInit 002B  
                       __pmaintext 02E4                         _goToLPmode 0FBF  
                       __pintentry 0004                          ?_doTheArc 0070  
                     _clockDivider 0042                   ?_chargeIndicator 0070  
                        ?_playNote 0071                  __end_of_gargoyles 02E4  
                          ___aldiv 06B5                            __ptext1 0FBF  
                          __ptext2 0745                            __ptext3 03EF  
                          __ptext4 07B2                            __ptext5 05D9  
                          __ptext6 0FAE                            __ptext7 06B5  
                          __ptext8 0FD5                          _T1CLKbits 0211  
                          _lidOpen 002A                          _T1CONbits 020E  
                        _T2CONbits 028E                       __size_of_isr 0107  
                       ??_doTheArc 0075                   ___aldiv@dividend 0075  
                        _T2HLTbits 028F               _chargeIndicator$1408 005A  
                     _genericDelay 0032                            clrloop0 0FA9  
             end_of_initialization 0120                      _calibrationMV 0020  
                       ??_playNote 0075                        ?_goToLPmode 0070  
                        _OSCENbits 0891                   ___aldiv@quotient 0052  
                       _showCharge 002E                          _PORTAbits 000C  
ButtonDebounceInit@pulledUpButtons 0071                         _postscaler 0036  
                      _CCP1CONbits 030E                        _CCP2CONbits 0312  
              start_initialization 010D                        __end_of_isr 010B  
              __size_of_goToLPmode 0016                     _buttonDebounce 0041  
               blockingDelay@mSecs 0071             ButtonDebounceInit@port 0074  
                      __pdataBANK0 0063                        __pbssCOMMON 007A  
                        ___latbits 0001                      __pcstackBANK0 0050  
                      _chargeCycle 003E                  __size_of_doTheArc 00FA  
       __end_of_ButtonDebounceInit 1000                          _battVolts 0024  
                        _debugging 0043             __size_of_blockingDelay 0011  
                __size_of_playNote 0032                           ?___aldiv 0071  
                        _gargoyles 0124                       playNote@note 0071  
                         _T2CLKCON 0290                    ___aldiv@divisor 0071  
                  ___aldiv@counter 0050                          _playIndex 0034  
                        clear_ram0 0FA8                           _PIR0bits 070C  
                         _PIR1bits 070D                       ??_goToLPmode 0075  
         __size_of_chargeIndicator 00DC                          _poweredOn 0030  
                       _ADCON0bits 009D                         _ADCON1bits 009E  
                    _blockingDelay 0FAE                 __end_of_goToLPmode 0FD5  
                     _lowPowerMode 002C                        _gotTheTouch 0028  
                 __size_of___aldiv 0090                           _adcVolts 0022  
                       _ANSELAbits 1F38                           _doTheArc 03EF  
                   ?_blockingDelay 0071                         _T0CON0bits 059E  
                       _T0CON1bits 059F                           _charging 0026  
                         _forceArc 003C                      __size_of_fade 006D  
                    __size_of_main 010B                           _pinState 03E0  
                         _playNote 07B2                           _runIndex 003F  
                         int$flags 007E                           main@argc 005E  
                         main@argv 0060                  ??_chargeIndicator 0056  
                      _NVMCON1bits 081E                         _FVRCONbits 090C  
                      _PWM3CONbits 0316                        _PWM4CONbits 031A  
                         intlevel1 0000                         _OSCFRQbits 0893  
               _ButtonDebounceInit 0FD5                      __pstringtext1 0124  
                    __pstringtext2 04E9                      __pstringtext3 07E4  
                  ??_blockingDelay 0073                ?_ButtonDebounceInit 0071  
                     ___aldiv@sign 0051               ??_ButtonDebounceInit 0072  
