

Microchip MPLAB XC8 Assembler V2.32 build 20210201212658 
                                                                                               Fri Sep 24 09:25:15 2021

Microchip MPLAB XC8 C Compiler v2.32 (Free license) build 20210201212658 Og1 
     1                           	processor	16F15224
     2                           	pagewidth 120
     3                           	opt	flic
     4                           	psect	idataBANK0,global,class=CODE,delta=2,noexec
     5                           	psect	stringtext1,global,class=STRCODE,delta=2,noexec
     6                           	psect	stringtext2,global,class=STRCODE,delta=2,noexec
     7                           	psect	stringtext3,global,class=STRCODE,delta=2,noexec
     8                           	psect	cinit,global,class=CODE,merge=1,delta=2
     9                           	psect	bitbssCOMMON,global,bit,class=COMMON,space=1,delta=1,noexec
    10                           	psect	bssCOMMON,global,class=COMMON,space=1,delta=1,noexec
    11                           	psect	bssBANK0,global,class=BANK0,space=1,delta=1,noexec
    12                           	psect	dataBANK0,global,class=BANK0,space=1,delta=1,noexec
    13                           	psect	clrtext,global,class=CODE,delta=2
    14                           	psect	cstackCOMMON,global,class=COMMON,space=1,delta=1,noexec
    15                           	psect	cstackBANK0,global,class=BANK0,space=1,delta=1,noexec
    16                           	psect	maintext,global,class=CODE,merge=1,split=1,delta=2
    17                           	psect	text1,local,class=CODE,merge=1,delta=2
    18                           	psect	text2,local,class=CODE,merge=1,delta=2
    19                           	psect	text3,local,class=CODE,merge=1,delta=2
    20                           	psect	text4,local,class=CODE,merge=1,delta=2
    21                           	psect	text5,local,class=CODE,merge=1,delta=2
    22                           	psect	text6,local,class=CODE,merge=1,delta=2,group=2
    23                           	psect	text7,local,class=CODE,merge=1,delta=2,group=1
    24                           	psect	intentry,global,class=CODE,delta=2
    25                           	psect	config,global,abs,ovrld,class=CONFIG,space=4,delta=2,noexec
    26                           	dabs	1,0x7E,2
    27  0000                     
    28                           ; Version 2.35
    29                           ; Generated 01/06/2021 GMT
    30                           ; 
    31                           ; Copyright © 2021, Microchip Technology Inc. and its subsidiaries ("Microchip")
    32                           ; All rights reserved.
    33                           ; 
    34                           ; This software is developed by Microchip Technology Inc. and its subsidiaries ("Microch
      +                          ip").
    35                           ; 
    36                           ; Redistribution and use in source and binary forms, with or without modification, are
    37                           ; permitted provided that the following conditions are met:
    38                           ; 
    39                           ;     1. Redistributions of source code must retain the above copyright notice, this lis
      +                          t of
    40                           ;        conditions and the following disclaimer.
    41                           ; 
    42                           ;     2. Redistributions in binary form must reproduce the above copyright notice, this 
      +                          list
    43                           ;        of conditions and the following disclaimer in the documentation and/or other
    44                           ;        materials provided with the distribution. Publication is not required when
    45                           ;        this file is used in an embedded application.
    46                           ; 
    47                           ;     3. Microchip's name may not be used to endorse or promote products derived from th
      +                          is
    48                           ;        software without specific prior written permission.
    49                           ; 
    50                           ; THIS SOFTWARE IS PROVIDED BY MICROCHIP "AS IS" AND ANY EXPRESS OR IMPLIED WARRANTIES,
    51                           ; INCLUDING, BUT NOT LIMITED TO, THE IMPLIED WARRANTIES OF MERCHANTABILITY AND FITNESS F
      +                          OR
    52                           ; PURPOSE ARE DISCLAIMED.  IN NO EVENT SHALL MICROCHIP BE LIABLE FOR ANY DIRECT, INDIREC
      +                          T,
    53                           ; INCIDENTAL, SPECIAL, EXEMPLARY, OR CONSEQUENTIAL DAMAGES (INCLUDING BUT NOT LIMITED TO
    54                           ; PROCUREMENT OF SUBSTITUTE GOODS OR SERVICES; LOSS OF USE, DATA OR PROFITS; OR BUSINESS
    55                           ; INTERRUPTION) HOWSOEVER CAUSED AND ON ANY THEORY OF LIABILITY, WHETHER IN CONTRACT, ST
      +                          RICT
    56                           ; LIABILITY, OR TORT (INCLUDING NEGLIGENCE OR OTHERWISE) ARISING IN ANY WAY OUT OF THE U
      +                          SE OF
    57                           ; THIS SOFTWARE, EVEN IF ADVISED OF THE POSSIBILITY OF SUCH DAMAGE.
    58                           ; 
    59                           ; 
    60                           ; Code-generator required, PIC16F15224 Definitions
    61                           ; 
    62                           ; SFR Addresses
    63  0000                     	;# 
    64  0001                     	;# 
    65  0002                     	;# 
    66  0003                     	;# 
    67  0004                     	;# 
    68  0005                     	;# 
    69  0006                     	;# 
    70  0007                     	;# 
    71  0008                     	;# 
    72  0009                     	;# 
    73  000A                     	;# 
    74  000B                     	;# 
    75  000C                     	;# 
    76  000E                     	;# 
    77  0012                     	;# 
    78  0014                     	;# 
    79  0018                     	;# 
    80  001A                     	;# 
    81  009A                     	;# 
    82  009B                     	;# 
    83  009B                     	;# 
    84  009C                     	;# 
    85  009D                     	;# 
    86  009E                     	;# 
    87  009F                     	;# 
    88  010E                     	;# 
    89  010F                     	;# 
    90  0119                     	;# 
    91  011A                     	;# 
    92  011B                     	;# 
    93  011B                     	;# 
    94  011C                     	;# 
    95  011D                     	;# 
    96  011E                     	;# 
    97  011F                     	;# 
    98  018C                     	;# 
    99  018D                     	;# 
   100  018E                     	;# 
   101  018F                     	;# 
   102  0190                     	;# 
   103  0191                     	;# 
   104  0192                     	;# 
   105  020C                     	;# 
   106  020D                     	;# 
   107  020E                     	;# 
   108  020E                     	;# 
   109  020F                     	;# 
   110  020F                     	;# 
   111  0210                     	;# 
   112  0210                     	;# 
   113  0211                     	;# 
   114  0211                     	;# 
   115  028C                     	;# 
   116  028C                     	;# 
   117  028D                     	;# 
   118  028D                     	;# 
   119  028E                     	;# 
   120  028F                     	;# 
   121  0290                     	;# 
   122  0291                     	;# 
   123  030C                     	;# 
   124  030C                     	;# 
   125  030D                     	;# 
   126  030E                     	;# 
   127  030F                     	;# 
   128  0310                     	;# 
   129  0310                     	;# 
   130  0311                     	;# 
   131  0312                     	;# 
   132  0313                     	;# 
   133  0314                     	;# 
   134  0314                     	;# 
   135  0315                     	;# 
   136  0316                     	;# 
   137  0318                     	;# 
   138  0318                     	;# 
   139  0319                     	;# 
   140  031A                     	;# 
   141  059C                     	;# 
   142  059C                     	;# 
   143  059D                     	;# 
   144  059D                     	;# 
   145  059E                     	;# 
   146  059F                     	;# 
   147  070C                     	;# 
   148  070D                     	;# 
   149  070E                     	;# 
   150  0716                     	;# 
   151  0717                     	;# 
   152  0718                     	;# 
   153  080C                     	;# 
   154  0811                     	;# 
   155  0813                     	;# 
   156  0814                     	;# 
   157  081A                     	;# 
   158  081A                     	;# 
   159  081B                     	;# 
   160  081C                     	;# 
   161  081C                     	;# 
   162  081D                     	;# 
   163  081E                     	;# 
   164  081F                     	;# 
   165  088E                     	;# 
   166  0890                     	;# 
   167  0891                     	;# 
   168  0892                     	;# 
   169  0893                     	;# 
   170  090C                     	;# 
   171  1E8F                     	;# 
   172  1E90                     	;# 
   173  1E91                     	;# 
   174  1E92                     	;# 
   175  1E93                     	;# 
   176  1E9C                     	;# 
   177  1EA1                     	;# 
   178  1EA2                     	;# 
   179  1EC3                     	;# 
   180  1EC5                     	;# 
   181  1EC6                     	;# 
   182  1EC7                     	;# 
   183  1ECB                     	;# 
   184  1ECB                     	;# 
   185  1ECB                     	;# 
   186  1ECC                     	;# 
   187  1ECC                     	;# 
   188  1ECC                     	;# 
   189  1F10                     	;# 
   190  1F11                     	;# 
   191  1F12                     	;# 
   192  1F14                     	;# 
   193  1F15                     	;# 
   194  1F20                     	;# 
   195  1F21                     	;# 
   196  1F22                     	;# 
   197  1F23                     	;# 
   198  1F24                     	;# 
   199  1F25                     	;# 
   200  1F38                     	;# 
   201  1F39                     	;# 
   202  1F3A                     	;# 
   203  1F3B                     	;# 
   204  1F3C                     	;# 
   205  1F3D                     	;# 
   206  1F3E                     	;# 
   207  1F3F                     	;# 
   208  1F4E                     	;# 
   209  1F4F                     	;# 
   210  1F50                     	;# 
   211  1F51                     	;# 
   212  1F52                     	;# 
   213  1F53                     	;# 
   214  1F54                     	;# 
   215  1F55                     	;# 
   216  1FE4                     	;# 
   217  1FE5                     	;# 
   218  1FE6                     	;# 
   219  1FE7                     	;# 
   220  1FE8                     	;# 
   221  1FE8                     	;# 
   222  1FE9                     	;# 
   223  1FEA                     	;# 
   224  1FEB                     	;# 
   225  1FED                     	;# 
   226  1FEE                     	;# 
   227  1FEF                     	;# 
   228                           
   229                           	psect	idataBANK0
   230  07EB                     __pidataBANK0:
   231                           
   232                           ;initializer for _noGate
   233  07EB  3401               	retlw	1
   234  07EC  3400               	retlw	0
   235                           
   236                           	psect	stringtext1
   237  0133                     __pstringtext1:
   238  0133                     _gargoyles:
   239  0133  341E               	retlw	30
   240  0134  3400               	retlw	0
   241  0135  343E               	retlw	62
   242  0136  3406               	retlw	6
   243  0137  341C               	retlw	28
   244  0138  3400               	retlw	0
   245  0139  3466               	retlw	102
   246  013A  3401               	retlw	1
   247  013B  3400               	retlw	0
   248  013C  3400               	retlw	0
   249  013D  3428               	retlw	40
   250  013E  3400               	retlw	0
   251  013F  341A               	retlw	26
   252  0140  3400               	retlw	0
   253  0141  3466               	retlw	102
   254  0142  3401               	retlw	1
   255  0143  3400               	retlw	0
   256  0144  3400               	retlw	0
   257  0145  3428               	retlw	40
   258  0146  3400               	retlw	0
   259  0147  3419               	retlw	25
   260  0148  3400               	retlw	0
   261  0149  3466               	retlw	102
   262  014A  3401               	retlw	1
   263  014B  3400               	retlw	0
   264  014C  3400               	retlw	0
   265  014D  3428               	retlw	40
   266  014E  3400               	retlw	0
   267  014F  3417               	retlw	23
   268  0150  3400               	retlw	0
   269  0151  3466               	retlw	102
   270  0152  3401               	retlw	1
   271  0153  3400               	retlw	0
   272  0154  3400               	retlw	0
   273  0155  3428               	retlw	40
   274  0156  3400               	retlw	0
   275  0157  341F               	retlw	31
   276  0158  3400               	retlw	0
   277  0159  34AE               	retlw	174
   278  015A  3404               	retlw	4
   279  015B  341E               	retlw	30
   280  015C  3400               	retlw	0
   281  015D  34C6               	retlw	198
   282  015E  3400               	retlw	0
   283  015F  341C               	retlw	28
   284  0160  3400               	retlw	0
   285  0161  34C6               	retlw	198
   286  0162  3400               	retlw	0
   287  0163  3419               	retlw	25
   288  0164  3400               	retlw	0
   289  0165  3469               	retlw	105
   290  0166  3405               	retlw	5
   291  0167  3400               	retlw	0
   292  0168  3400               	retlw	0
   293  0169  3450               	retlw	80
   294  016A  3400               	retlw	0
   295  016B  341E               	retlw	30
   296  016C  3400               	retlw	0
   297  016D  343E               	retlw	62
   298  016E  3406               	retlw	6
   299  016F  341A               	retlw	26
   300  0170  3400               	retlw	0
   301  0171  347A               	retlw	122
   302  0172  3401               	retlw	1
   303  0173  3400               	retlw	0
   304  0174  3400               	retlw	0
   305  0175  3414               	retlw	20
   306  0176  3400               	retlw	0
   307  0177  341C               	retlw	28
   308  0178  3400               	retlw	0
   309  0179  347A               	retlw	122
   310  017A  3401               	retlw	1
   311  017B  3400               	retlw	0
   312  017C  3400               	retlw	0
   313  017D  3414               	retlw	20
   314  017E  3400               	retlw	0
   315  017F  341E               	retlw	30
   316  0180  3400               	retlw	0
   317  0181  347A               	retlw	122
   318  0182  3401               	retlw	1
   319  0183  3400               	retlw	0
   320  0184  3400               	retlw	0
   321  0185  3414               	retlw	20
   322  0186  3400               	retlw	0
   323  0187  341C               	retlw	28
   324  0188  3400               	retlw	0
   325  0189  347A               	retlw	122
   326  018A  3401               	retlw	1
   327  018B  3400               	retlw	0
   328  018C  3400               	retlw	0
   329  018D  3414               	retlw	20
   330  018E  3400               	retlw	0
   331  018F  341C               	retlw	28
   332  0190  3400               	retlw	0
   333  0191  34F6               	retlw	246
   334  0192  3402               	retlw	2
   335  0193  3400               	retlw	0
   336  0194  3400               	retlw	0
   337  0195  3428               	retlw	40
   338  0196  3400               	retlw	0
   339  0197  341F               	retlw	31
   340  0198  3400               	retlw	0
   341  0199  34F6               	retlw	246
   342  019A  3402               	retlw	2
   343  019B  3400               	retlw	0
   344  019C  3400               	retlw	0
   345  019D  3428               	retlw	40
   346  019E  3400               	retlw	0
   347  019F  3422               	retlw	34
   348  01A0  3400               	retlw	0
   349  01A1  3469               	retlw	105
   350  01A2  3405               	retlw	5
   351  01A3  3400               	retlw	0
   352  01A4  3400               	retlw	0
   353  01A5  3450               	retlw	80
   354  01A6  3400               	retlw	0
   355  01A7  341A               	retlw	26
   356  01A8  3400               	retlw	0
   357  01A9  340A               	retlw	10
   358  01AA  3403               	retlw	3
   359  01AB  3400               	retlw	0
   360  01AC  3400               	retlw	0
   361  01AD  3414               	retlw	20
   362  01AE  3400               	retlw	0
   363  01AF  3419               	retlw	25
   364  01B0  3400               	retlw	0
   365  01B1  347A               	retlw	122
   366  01B2  3401               	retlw	1
   367  01B3  3400               	retlw	0
   368  01B4  3400               	retlw	0
   369  01B5  3414               	retlw	20
   370  01B6  3400               	retlw	0
   371  01B7  3417               	retlw	23
   372  01B8  3400               	retlw	0
   373  01B9  3466               	retlw	102
   374  01BA  3401               	retlw	1
   375  01BB  3400               	retlw	0
   376  01BC  3400               	retlw	0
   377  01BD  3428               	retlw	40
   378  01BE  3400               	retlw	0
   379  01BF  3419               	retlw	25
   380  01C0  3400               	retlw	0
   381  01C1  341E               	retlw	30
   382  01C2  3403               	retlw	3
   383  01C3  341C               	retlw	28
   384  01C4  3400               	retlw	0
   385  01C5  34F6               	retlw	246
   386  01C6  3402               	retlw	2
   387  01C7  3400               	retlw	0
   388  01C8  3400               	retlw	0
   389  01C9  3428               	retlw	40
   390  01CA  3400               	retlw	0
   391  01CB  341C               	retlw	28
   392  01CC  3400               	retlw	0
   393  01CD  34F6               	retlw	246
   394  01CE  3402               	retlw	2
   395  01CF  3400               	retlw	0
   396  01D0  3400               	retlw	0
   397  01D1  3428               	retlw	40
   398  01D2  3400               	retlw	0
   399  01D3  341A               	retlw	26
   400  01D4  3400               	retlw	0
   401  01D5  3466               	retlw	102
   402  01D6  3401               	retlw	1
   403  01D7  3400               	retlw	0
   404  01D8  3400               	retlw	0
   405  01D9  3428               	retlw	40
   406  01DA  3400               	retlw	0
   407  01DB  3419               	retlw	25
   408  01DC  3400               	retlw	0
   409  01DD  3466               	retlw	102
   410  01DE  3401               	retlw	1
   411  01DF  3400               	retlw	0
   412  01E0  3400               	retlw	0
   413  01E1  3428               	retlw	40
   414  01E2  3400               	retlw	0
   415  01E3  341A               	retlw	26
   416  01E4  3400               	retlw	0
   417  01E5  341E               	retlw	30
   418  01E6  3403               	retlw	3
   419  01E7  341E               	retlw	30
   420  01E8  3400               	retlw	0
   421  01E9  34F6               	retlw	246
   422  01EA  3402               	retlw	2
   423  01EB  3400               	retlw	0
   424  01EC  3400               	retlw	0
   425  01ED  3428               	retlw	40
   426  01EE  3400               	retlw	0
   427  01EF  341E               	retlw	30
   428  01F0  3400               	retlw	0
   429  01F1  34F6               	retlw	246
   430  01F2  3402               	retlw	2
   431  01F3  3400               	retlw	0
   432  01F4  3400               	retlw	0
   433  01F5  3428               	retlw	40
   434  01F6  3400               	retlw	0
   435  01F7  341D               	retlw	29
   436  01F8  3400               	retlw	0
   437  01F9  3466               	retlw	102
   438  01FA  3401               	retlw	1
   439  01FB  3400               	retlw	0
   440  01FC  3400               	retlw	0
   441  01FD  3428               	retlw	40
   442  01FE  3400               	retlw	0
   443  01FF  341B               	retlw	27
   444  0200  3400               	retlw	0
   445  0201  3466               	retlw	102
   446  0202  3401               	retlw	1
   447  0203  3400               	retlw	0
   448  0204  3400               	retlw	0
   449  0205  3428               	retlw	40
   450  0206  3400               	retlw	0
   451  0207  341D               	retlw	29
   452  0208  3400               	retlw	0
   453  0209  341E               	retlw	30
   454  020A  3403               	retlw	3
   455  020B  3420               	retlw	32
   456  020C  3400               	retlw	0
   457  020D  34F6               	retlw	246
   458  020E  3402               	retlw	2
   459  020F  3400               	retlw	0
   460  0210  3400               	retlw	0
   461  0211  3428               	retlw	40
   462  0212  3400               	retlw	0
   463  0213  3420               	retlw	32
   464  0214  3400               	retlw	0
   465  0215  34F6               	retlw	246
   466  0216  3402               	retlw	2
   467  0217  3400               	retlw	0
   468  0218  3400               	retlw	0
   469  0219  3428               	retlw	40
   470  021A  3400               	retlw	0
   471  021B  341E               	retlw	30
   472  021C  3400               	retlw	0
   473  021D  3466               	retlw	102
   474  021E  3401               	retlw	1
   475  021F  3400               	retlw	0
   476  0220  3400               	retlw	0
   477  0221  3428               	retlw	40
   478  0222  3400               	retlw	0
   479  0223  341D               	retlw	29
   480  0224  3400               	retlw	0
   481  0225  3466               	retlw	102
   482  0226  3401               	retlw	1
   483  0227  3400               	retlw	0
   484  0228  3400               	retlw	0
   485  0229  3428               	retlw	40
   486  022A  3400               	retlw	0
   487  022B  3422               	retlw	34
   488  022C  3400               	retlw	0
   489  022D  34EE               	retlw	238
   490  022E  3405               	retlw	5
   491  022F  3400               	retlw	0
   492  0230  3400               	retlw	0
   493  0231  3450               	retlw	80
   494  0232  3400               	retlw	0
   495  0233  341E               	retlw	30
   496  0234  3400               	retlw	0
   497  0235  343E               	retlw	62
   498  0236  3406               	retlw	6
   499  0237  341C               	retlw	28
   500  0238  3400               	retlw	0
   501  0239  3466               	retlw	102
   502  023A  3401               	retlw	1
   503  023B  3400               	retlw	0
   504  023C  3400               	retlw	0
   505  023D  3428               	retlw	40
   506  023E  3400               	retlw	0
   507  023F  341A               	retlw	26
   508  0240  3400               	retlw	0
   509  0241  3466               	retlw	102
   510  0242  3401               	retlw	1
   511  0243  3400               	retlw	0
   512  0244  3400               	retlw	0
   513  0245  3428               	retlw	40
   514  0246  3400               	retlw	0
   515  0247  3419               	retlw	25
   516  0248  3400               	retlw	0
   517  0249  3466               	retlw	102
   518  024A  3401               	retlw	1
   519  024B  3400               	retlw	0
   520  024C  3400               	retlw	0
   521  024D  3428               	retlw	40
   522  024E  3400               	retlw	0
   523  024F  3417               	retlw	23
   524  0250  3400               	retlw	0
   525  0251  3466               	retlw	102
   526  0252  3401               	retlw	1
   527  0253  3400               	retlw	0
   528  0254  3400               	retlw	0
   529  0255  3428               	retlw	40
   530  0256  3400               	retlw	0
   531  0257  341F               	retlw	31
   532  0258  3400               	retlw	0
   533  0259  34AE               	retlw	174
   534  025A  3404               	retlw	4
   535  025B  341E               	retlw	30
   536  025C  3400               	retlw	0
   537  025D  34C6               	retlw	198
   538  025E  3400               	retlw	0
   539  025F  341C               	retlw	28
   540  0260  3400               	retlw	0
   541  0261  34C6               	retlw	198
   542  0262  3400               	retlw	0
   543  0263  3419               	retlw	25
   544  0264  3400               	retlw	0
   545  0265  3469               	retlw	105
   546  0266  3405               	retlw	5
   547  0267  3400               	retlw	0
   548  0268  3400               	retlw	0
   549  0269  3450               	retlw	80
   550  026A  3400               	retlw	0
   551  026B  341E               	retlw	30
   552  026C  3400               	retlw	0
   553  026D  343E               	retlw	62
   554  026E  3406               	retlw	6
   555  026F  341A               	retlw	26
   556  0270  3400               	retlw	0
   557  0271  347A               	retlw	122
   558  0272  3401               	retlw	1
   559  0273  3400               	retlw	0
   560  0274  3400               	retlw	0
   561  0275  3414               	retlw	20
   562  0276  3400               	retlw	0
   563  0277  341C               	retlw	28
   564  0278  3400               	retlw	0
   565  0279  347A               	retlw	122
   566  027A  3401               	retlw	1
   567  027B  3400               	retlw	0
   568  027C  3400               	retlw	0
   569  027D  3414               	retlw	20
   570  027E  3400               	retlw	0
   571  027F  341E               	retlw	30
   572  0280  3400               	retlw	0
   573  0281  347A               	retlw	122
   574  0282  3401               	retlw	1
   575  0283  3400               	retlw	0
   576  0284  3400               	retlw	0
   577  0285  3414               	retlw	20
   578  0286  3400               	retlw	0
   579  0287  341C               	retlw	28
   580  0288  3400               	retlw	0
   581  0289  347A               	retlw	122
   582  028A  3401               	retlw	1
   583  028B  3400               	retlw	0
   584  028C  3400               	retlw	0
   585  028D  3414               	retlw	20
   586  028E  3400               	retlw	0
   587  028F  341C               	retlw	28
   588  0290  3400               	retlw	0
   589  0291  34F6               	retlw	246
   590  0292  3402               	retlw	2
   591  0293  3400               	retlw	0
   592  0294  3400               	retlw	0
   593  0295  3428               	retlw	40
   594  0296  3400               	retlw	0
   595  0297  341F               	retlw	31
   596  0298  3400               	retlw	0
   597  0299  34F6               	retlw	246
   598  029A  3402               	retlw	2
   599  029B  3400               	retlw	0
   600  029C  3400               	retlw	0
   601  029D  3428               	retlw	40
   602  029E  3400               	retlw	0
   603  029F  3422               	retlw	34
   604  02A0  3400               	retlw	0
   605  02A1  34B9               	retlw	185
   606  02A2  3405               	retlw	5
   607  02A3  3400               	retlw	0
   608  02A4  3400               	retlw	0
   609  02A5  3428               	retlw	40
   610  02A6  3400               	retlw	0
   611  02A7  3423               	retlw	35
   612  02A8  3400               	retlw	0
   613  02A9  340A               	retlw	10
   614  02AA  3403               	retlw	3
   615  02AB  3400               	retlw	0
   616  02AC  3400               	retlw	0
   617  02AD  3414               	retlw	20
   618  02AE  3400               	retlw	0
   619  02AF  3423               	retlw	35
   620  02B0  3400               	retlw	0
   621  02B1  346F               	retlw	111
   622  02B2  3400               	retlw	0
   623  02B3  3400               	retlw	0
   624  02B4  3400               	retlw	0
   625  02B5  3414               	retlw	20
   626  02B6  3400               	retlw	0
   627  02B7  3423               	retlw	35
   628  02B8  3400               	retlw	0
   629  02B9  346F               	retlw	111
   630  02BA  3400               	retlw	0
   631  02BB  3400               	retlw	0
   632  02BC  3400               	retlw	0
   633  02BD  3414               	retlw	20
   634  02BE  3400               	retlw	0
   635  02BF  3423               	retlw	35
   636  02C0  3400               	retlw	0
   637  02C1  346F               	retlw	111
   638  02C2  3400               	retlw	0
   639  02C3  3400               	retlw	0
   640  02C4  3400               	retlw	0
   641  02C5  3414               	retlw	20
   642  02C6  3400               	retlw	0
   643  02C7  3423               	retlw	35
   644  02C8  3400               	retlw	0
   645  02C9  340A               	retlw	10
   646  02CA  3403               	retlw	3
   647  02CB  3400               	retlw	0
   648  02CC  3400               	retlw	0
   649  02CD  3414               	retlw	20
   650  02CE  3400               	retlw	0
   651  02CF  3423               	retlw	35
   652  02D0  3400               	retlw	0
   653  02D1  346F               	retlw	111
   654  02D2  3400               	retlw	0
   655  02D3  3400               	retlw	0
   656  02D4  3400               	retlw	0
   657  02D5  3414               	retlw	20
   658  02D6  3400               	retlw	0
   659  02D7  3423               	retlw	35
   660  02D8  3400               	retlw	0
   661  02D9  346F               	retlw	111
   662  02DA  3400               	retlw	0
   663  02DB  3400               	retlw	0
   664  02DC  3400               	retlw	0
   665  02DD  3414               	retlw	20
   666  02DE  3400               	retlw	0
   667  02DF  3423               	retlw	35
   668  02E0  3400               	retlw	0
   669  02E1  346F               	retlw	111
   670  02E2  3400               	retlw	0
   671  02E3  3400               	retlw	0
   672  02E4  3400               	retlw	0
   673  02E5  3414               	retlw	20
   674  02E6  3400               	retlw	0
   675  02E7  3423               	retlw	35
   676  02E8  3400               	retlw	0
   677  02E9  346F               	retlw	111
   678  02EA  3400               	retlw	0
   679  02EB  3400               	retlw	0
   680  02EC  3400               	retlw	0
   681  02ED  3414               	retlw	20
   682  02EE  3400               	retlw	0
   683  02EF  3423               	retlw	35
   684  02F0  3400               	retlw	0
   685  02F1  341E               	retlw	30
   686  02F2  3403               	retlw	3
   687  02F3                     __end_of_gargoyles:
   688                           
   689                           	psect	stringtext2
   690  03ED                     __pstringtext2:
   691  03ED                     _sheRa:
   692  03ED  340B               	retlw	11
   693  03EE  3400               	retlw	0
   694  03EF  34D8               	retlw	216
   695  03F0  3400               	retlw	0
   696  03F1  340D               	retlw	13
   697  03F2  3400               	retlw	0
   698  03F3  34D8               	retlw	216
   699  03F4  3400               	retlw	0
   700  03F5  340E               	retlw	14
   701  03F6  3400               	retlw	0
   702  03F7  349C               	retlw	156
   703  03F8  3401               	retlw	1
   704  03F9  3400               	retlw	0
   705  03FA  3400               	retlw	0
   706  03FB  3415               	retlw	21
   707  03FC  3400               	retlw	0
   708  03FD  3412               	retlw	18
   709  03FE  3400               	retlw	0
   710  03FF  34A7               	retlw	167
   711  0400  3401               	retlw	1
   712  0401  3400               	retlw	0
   713  0402  3400               	retlw	0
   714  0403  3415               	retlw	21
   715  0404  3400               	retlw	0
   716  0405  3413               	retlw	19
   717  0406  3400               	retlw	0
   718  0407  348B               	retlw	139
   719  0408  3402               	retlw	2
   720  0409  3412               	retlw	18
   721  040A  3400               	retlw	0
   722  040B  346B               	retlw	107
   723  040C  3400               	retlw	0
   724  040D  3410               	retlw	16
   725  040E  3400               	retlw	0
   726  040F  346B               	retlw	107
   727  0410  3400               	retlw	0
   728  0411  3412               	retlw	18
   729  0412  3400               	retlw	0
   730  0413  3464               	retlw	100
   731  0414  3403               	retlw	3
   732  0415  3400               	retlw	0
   733  0416  3400               	retlw	0
   734  0417  34B1               	retlw	177
   735  0418  3401               	retlw	1
   736  0419  340B               	retlw	11
   737  041A  3400               	retlw	0
   738  041B  34D8               	retlw	216
   739  041C  3400               	retlw	0
   740  041D  340D               	retlw	13
   741  041E  3400               	retlw	0
   742  041F  34D8               	retlw	216
   743  0420  3400               	retlw	0
   744  0421  340E               	retlw	14
   745  0422  3400               	retlw	0
   746  0423  34B1               	retlw	177
   747  0424  3401               	retlw	1
   748  0425  3412               	retlw	18
   749  0426  3400               	retlw	0
   750  0427  34B1               	retlw	177
   751  0428  3401               	retlw	1
   752  0429  3417               	retlw	23
   753  042A  3400               	retlw	0
   754  042B  349C               	retlw	156
   755  042C  3401               	retlw	1
   756  042D  3400               	retlw	0
   757  042E  3400               	retlw	0
   758  042F  3415               	retlw	21
   759  0430  3400               	retlw	0
   760  0431  3415               	retlw	21
   761  0432  3400               	retlw	0
   762  0433  349C               	retlw	156
   763  0434  3401               	retlw	1
   764  0435  3400               	retlw	0
   765  0436  3400               	retlw	0
   766  0437  3415               	retlw	21
   767  0438  3400               	retlw	0
   768  0439  3412               	retlw	18
   769  043A  3400               	retlw	0
   770  043B  3464               	retlw	100
   771  043C  3403               	retlw	3
   772  043D  3400               	retlw	0
   773  043E  3400               	retlw	0
   774  043F  34B1               	retlw	177
   775  0440  3401               	retlw	1
   776  0441  340B               	retlw	11
   777  0442  3400               	retlw	0
   778  0443  34D8               	retlw	216
   779  0444  3400               	retlw	0
   780  0445  340D               	retlw	13
   781  0446  3400               	retlw	0
   782  0447  34D8               	retlw	216
   783  0448  3400               	retlw	0
   784  0449  340E               	retlw	14
   785  044A  3400               	retlw	0
   786  044B  34B1               	retlw	177
   787  044C  3401               	retlw	1
   788  044D  3412               	retlw	18
   789  044E  3400               	retlw	0
   790  044F  34B1               	retlw	177
   791  0450  3401               	retlw	1
   792  0451  3413               	retlw	19
   793  0452  3400               	retlw	0
   794  0453  348B               	retlw	139
   795  0454  3402               	retlw	2
   796  0455  3412               	retlw	18
   797  0456  3400               	retlw	0
   798  0457  346B               	retlw	107
   799  0458  3400               	retlw	0
   800  0459  3410               	retlw	16
   801  045A  3400               	retlw	0
   802  045B  346B               	retlw	107
   803  045C  3400               	retlw	0
   804  045D  3412               	retlw	18
   805  045E  3400               	retlw	0
   806  045F  3464               	retlw	100
   807  0460  3403               	retlw	3
   808  0461  3413               	retlw	19
   809  0462  3400               	retlw	0
   810  0463  342F               	retlw	47
   811  0464  3401               	retlw	1
   812  0465  3400               	retlw	0
   813  0466  3400               	retlw	0
   814  0467  3415               	retlw	21
   815  0468  3400               	retlw	0
   816  0469  3412               	retlw	18
   817  046A  3400               	retlw	0
   818  046B  342F               	retlw	47
   819  046C  3401               	retlw	1
   820  046D  3400               	retlw	0
   821  046E  3400               	retlw	0
   822  046F  3415               	retlw	21
   823  0470  3400               	retlw	0
   824  0471  3413               	retlw	19
   825  0472  3400               	retlw	0
   826  0473  34C2               	retlw	194
   827  0474  3400               	retlw	0
   828  0475  3400               	retlw	0
   829  0476  3400               	retlw	0
   830  0477  3415               	retlw	21
   831  0478  3400               	retlw	0
   832  0479  3415               	retlw	21
   833  047A  3400               	retlw	0
   834  047B  348B               	retlw	139
   835  047C  3402               	retlw	2
   836  047D  3412               	retlw	18
   837  047E  3400               	retlw	0
   838  047F  3462               	retlw	98
   839  0480  3400               	retlw	0
   840  0481  3410               	retlw	16
   841  0482  3400               	retlw	0
   842  0483  346B               	retlw	107
   843  0484  3400               	retlw	0
   844  0485  3412               	retlw	18
   845  0486  3400               	retlw	0
   846  0487  34CA               	retlw	202
   847  0488  3406               	retlw	6
   848  0489  3400               	retlw	0
   849  048A  3400               	retlw	0
   850  048B  34B1               	retlw	177
   851  048C  3401               	retlw	1
   852  048D  3414               	retlw	20
   853  048E  3400               	retlw	0
   854  048F  34D8               	retlw	216
   855  0490  3400               	retlw	0
   856  0491  3416               	retlw	22
   857  0492  3400               	retlw	0
   858  0493  34D8               	retlw	216
   859  0494  3400               	retlw	0
   860  0495  3417               	retlw	23
   861  0496  3400               	retlw	0
   862  0497  34B1               	retlw	177
   863  0498  3401               	retlw	1
   864  0499  341B               	retlw	27
   865  049A  3400               	retlw	0
   866  049B  34B1               	retlw	177
   867  049C  3401               	retlw	1
   868  049D  341C               	retlw	28
   869  049E  3400               	retlw	0
   870  049F  348B               	retlw	139
   871  04A0  3402               	retlw	2
   872  04A1  341B               	retlw	27
   873  04A2  3400               	retlw	0
   874  04A3  346B               	retlw	107
   875  04A4  3400               	retlw	0
   876  04A5  3419               	retlw	25
   877  04A6  3400               	retlw	0
   878  04A7  346B               	retlw	107
   879  04A8  3400               	retlw	0
   880  04A9  341B               	retlw	27
   881  04AA  3400               	retlw	0
   882  04AB  344E               	retlw	78
   883  04AC  3403               	retlw	3
   884  04AD  3400               	retlw	0
   885  04AE  3400               	retlw	0
   886  04AF  3415               	retlw	21
   887  04B0  3400               	retlw	0
   888  04B1  341C               	retlw	28
   889  04B2  3400               	retlw	0
   890  04B3  342F               	retlw	47
   891  04B4  3401               	retlw	1
   892  04B5  3400               	retlw	0
   893  04B6  3400               	retlw	0
   894  04B7  3415               	retlw	21
   895  04B8  3400               	retlw	0
   896  04B9  341B               	retlw	27
   897  04BA  3400               	retlw	0
   898  04BB  342F               	retlw	47
   899  04BC  3401               	retlw	1
   900  04BD  3400               	retlw	0
   901  04BE  3400               	retlw	0
   902  04BF  3415               	retlw	21
   903  04C0  3400               	retlw	0
   904  04C1  341C               	retlw	28
   905  04C2  3400               	retlw	0
   906  04C3  34C2               	retlw	194
   907  04C4  3400               	retlw	0
   908  04C5  3400               	retlw	0
   909  04C6  3400               	retlw	0
   910  04C7  3415               	retlw	21
   911  04C8  3400               	retlw	0
   912  04C9  341E               	retlw	30
   913  04CA  3400               	retlw	0
   914  04CB  3475               	retlw	117
   915  04CC  3402               	retlw	2
   916  04CD  3400               	retlw	0
   917  04CE  3400               	retlw	0
   918  04CF  3415               	retlw	21
   919  04D0  3400               	retlw	0
   920  04D1  3420               	retlw	32
   921  04D2  3400               	retlw	0
   922  04D3  346B               	retlw	107
   923  04D4  3400               	retlw	0
   924  04D5  3422               	retlw	34
   925  04D6  3400               	retlw	0
   926  04D7  346B               	retlw	107
   927  04D8  3400               	retlw	0
   928  04D9  3423               	retlw	35
   929  04DA  3400               	retlw	0
   930  04DB  34CA               	retlw	202
   931  04DC  3406               	retlw	6
   932  04DD                     __end_of_sheRa:
   933                           
   934                           	psect	stringtext3
   935  079F                     __pstringtext3:
   936  079F                     _notes:
   937  079F  34ED               	retlw	237
   938  07A0  34E0               	retlw	224
   939  07A1  34D3               	retlw	211
   940  07A2  34C7               	retlw	199
   941  07A3  34BD               	retlw	189
   942  07A4  34B2               	retlw	178
   943  07A5  34A8               	retlw	168
   944  07A6  349E               	retlw	158
   945  07A7  3496               	retlw	150
   946  07A8  348D               	retlw	141
   947  07A9  3485               	retlw	133
   948  07AA  347D               	retlw	125
   949  07AB  3476               	retlw	118
   950  07AC  3470               	retlw	112
   951  07AD  346A               	retlw	106
   952  07AE  3463               	retlw	99
   953  07AF  345E               	retlw	94
   954  07B0  3459               	retlw	89
   955  07B1  3454               	retlw	84
   956  07B2  344F               	retlw	79
   957  07B3  344B               	retlw	75
   958  07B4  3446               	retlw	70
   959  07B5  3442               	retlw	66
   960  07B6  343F               	retlw	63
   961  07B7  343B               	retlw	59
   962  07B8  3438               	retlw	56
   963  07B9  3434               	retlw	52
   964  07BA  3432               	retlw	50
   965  07BB  342F               	retlw	47
   966  07BC  342C               	retlw	44
   967  07BD  342A               	retlw	42
   968  07BE  3427               	retlw	39
   969  07BF  3425               	retlw	37
   970  07C0  3423               	retlw	35
   971  07C1  3421               	retlw	33
   972  07C2  341F               	retlw	31
   973  07C3                     __end_of_notes:
   974  000C                     _PORTA	set	12
   975  000C                     _PORTAbits	set	12
   976  005F                     _GIE	set	95
   977  005E                     _PEIE	set	94
   978  00D5                     _LATC5	set	213
   979  00D4                     _LATC4	set	212
   980  00D3                     _LATC3	set	211
   981  00D2                     _LATC2	set	210
   982  00D1                     _LATC1	set	209
   983  00D0                     _LATC0	set	208
   984  00C2                     _LATA2	set	194
   985  00C1                     _LATA1	set	193
   986  00A5                     _TRISC5	set	165
   987  00A4                     _TRISC4	set	164
   988  00A3                     _TRISC3	set	163
   989  00A2                     _TRISC2	set	162
   990  00A1                     _TRISC1	set	161
   991  00A0                     _TRISC0	set	160
   992  0095                     _TRISA5	set	149
   993  0094                     _TRISA4	set	148
   994  0093                     _TRISA3	set	147
   995  0092                     _TRISA2	set	146
   996  0091                     _TRISA1	set	145
   997  0090                     _TRISA0	set	144
   998  009B                     _ADRES	set	155
   999  009D                     _ADCON0bits	set	157
  1000  009E                     _ADCON1bits	set	158
  1001  028F                     _T2HLTbits	set	655
  1002  028E                     _T2CONbits	set	654
  1003  0290                     _T2CLKCON	set	656
  1004  028D                     _PR2	set	653
  1005  059F                     _T0CON1bits	set	1439
  1006  059E                     _T0CON0bits	set	1438
  1007  070D                     _PIR1bits	set	1805
  1008  070C                     _PIR0bits	set	1804
  1009  38B4                     _IOCIE	set	14516
  1010  38B0                     _INTE	set	14512
  1011  38BE                     _TMR2IE	set	14526
  1012  38B5                     _TMR0IE	set	14517
  1013  081C                     _NVMDAT	set	2076
  1014  081A                     _NVMADR	set	2074
  1015  081E                     _NVMCON1bits	set	2078
  1016  0891                     _OSCENbits	set	2193
  1017  0893                     _OSCFRQbits	set	2195
  1018  090C                     _FVRCONbits	set	2316
  1019  1F4E                     _ANSELC	set	8014
  1020  1F38                     _ANSELAbits	set	7992
  1021  F9FB                     _IOCAF3	set	63995
  1022  F9F8                     _IOCAF0	set	63992
  1023  F9FD                     _IOCAF5	set	63997
  1024  F9ED                     _IOCAP5	set	63981
  1025  F9F5                     _IOCAN5	set	63989
  1026  F9EB                     _IOCAP3	set	63979
  1027  F9F3                     _IOCAN3	set	63987
  1028  F9E8                     _IOCAP0	set	63976
  1029  F9F0                     _IOCAN0	set	63984
  1030  F9CB                     _WPUA3	set	63947
  1031  F9C8                     _WPUA0	set	63944
  1032                           
  1033                           	psect	cinit
  1034  011C                     start_initialization:	
  1035                           ; #config settings
  1036                           
  1037  011C                     __initialization:
  1038                           
  1039                           ; Initialize objects allocated to BANK0
  1040  011C  3187  27EB  3181   	fcall	__pidataBANK0	;fetch initializer
  1041  011F  00E2               	movwf	__pdataBANK0& (0+127)
  1042  0120  3187  27EC  3181   	fcall	__pidataBANK0+1	;fetch initializer
  1043  0123  00E3               	movwf	(__pdataBANK0+1)& (0+127)
  1044                           
  1045                           ; Clear objects allocated to BITCOMMON
  1046  0124  01FC               	clrf	(__pbitbssCOMMON/(0+8))& (0+127)
  1047                           
  1048                           ; Clear objects allocated to COMMON
  1049  0125  01FA               	clrf	__pbssCOMMON& (0+127)
  1050  0126  01FB               	clrf	(__pbssCOMMON+1)& (0+127)
  1051                           
  1052                           ; Clear objects allocated to BANK0
  1053  0127  3020               	movlw	low __pbssBANK0
  1054  0128  0084               	movwf	4
  1055  0129  3000               	movlw	high __pbssBANK0
  1056  012A  0085               	movwf	5
  1057  012B  302F               	movlw	47
  1058  012C  3187  27E5  3181   	fcall	clear_ram0
  1059  012F                     end_of_initialization:	
  1060                           ;End of C runtime variable initialization code
  1061                           
  1062  012F                     __end_of__initialization:
  1063  012F  107E               	bcf	int$flags,0	;clear compiler interrupt flag (level 1)
  1064  0130  0140               	movlb	0
  1065  0131  3184  2CDD         	ljmp	_main	;jump to C main() function
  1066                           
  1067                           	psect	bitbssCOMMON
  1068  03E0                     __pbitbssCOMMON:
  1069  03E0                     _pinState:
  1070  03E0                     	ds	1
  1071                           
  1072                           	psect	bssCOMMON
  1073  007A                     __pbssCOMMON:
  1074  007A                     _i:
  1075  007A                     	ds	2
  1076                           
  1077                           	psect	bssBANK0
  1078  0020                     __pbssBANK0:
  1079  0020                     _calibrationMV:
  1080  0020                     	ds	2
  1081  0022                     _adcVolts:
  1082  0022                     	ds	2
  1083  0024                     _battVolts:
  1084  0024                     	ds	2
  1085  0026                     _charging:
  1086  0026                     	ds	2
  1087  0028                     _gotTheTouch:
  1088  0028                     	ds	2
  1089  002A                     _lidOpen:
  1090  002A                     	ds	2
  1091  002C                     _lowPowerMode:
  1092  002C                     	ds	2
  1093  002E                     _showCharge:
  1094  002E                     	ds	2
  1095  0030                     _poweredOn:
  1096  0030                     	ds	2
  1097  0032                     _genericDelay:
  1098  0032                     	ds	2
  1099  0034                     _playIndex:
  1100  0034                     	ds	2
  1101  0036                     _postscaler:
  1102  0036                     	ds	2
  1103  0038                     _abortAbort:
  1104  0038                     	ds	2
  1105  003A                     _gate:
  1106  003A                     	ds	2
  1107  003C                     _forceArc:
  1108  003C                     	ds	2
  1109  003E                     _chargeCycle:
  1110  003E                     	ds	1
  1111  003F                     _runIndex:
  1112  003F                     	ds	1
  1113  0040                     _buttonDebounce:
  1114  0040                     	ds	1
  1115  0041                     _clockDivider:
  1116  0041                     	ds	1
  1117  0042                     _debugging:
  1118  0042                     	ds	1
  1119  0043                     _aPorts:
  1120  0043                     	ds	12
  1121                           
  1122                           	psect	dataBANK0
  1123  0062                     __pdataBANK0:
  1124  0062                     _noGate:
  1125  0062                     	ds	2
  1126                           
  1127                           	psect	clrtext
  1128  07E5                     clear_ram0:	
  1129                           ;	Called with FSR0 containing the base address, and
  1130                           ;	WREG with the size to clear
  1131                           
  1132  07E5  0064               	clrwdt	;clear the watchdog before getting into this loop
  1133  07E6                     clrloop0:
  1134  07E6  0180               	clrf	0	;clear RAM location pointed to by FSR
  1135  07E7  3101               	addfsr 0,1
  1136  07E8  0B89               	decfsz	9,f	;Have we reached the end of clearing yet?
  1137  07E9  2FE6               	goto	clrloop0	;have we reached the end yet?
  1138  07EA  3400               	retlw	0	;all done for this memory range, return
  1139                           
  1140                           	psect	cstackCOMMON
  1141  0070                     __pcstackCOMMON:
  1142  0070                     ?_chargeIndicator:
  1143  0070                     ?_doTheArc:	
  1144                           ; 1 bytes @ 0x0
  1145                           
  1146  0070                     ?_goToLPmode:	
  1147                           ; 1 bytes @ 0x0
  1148                           
  1149  0070                     ?_isr:	
  1150                           ; 1 bytes @ 0x0
  1151                           
  1152  0070                     ??_isr:	
  1153                           ; 1 bytes @ 0x0
  1154                           
  1155                           
  1156                           ; 1 bytes @ 0x0
  1157  0070                     	ds	1
  1158  0071                     ?_ButtonDebounceInit:
  1159  0071                     ?_blockingDelay:	
  1160                           ; 1 bytes @ 0x1
  1161                           
  1162  0071                     ?_playNote:	
  1163                           ; 1 bytes @ 0x1
  1164                           
  1165  0071                     ?___aldiv:	
  1166                           ; 1 bytes @ 0x1
  1167                           
  1168  0071                     ButtonDebounceInit@pulledUpButtons:	
  1169                           ; 4 bytes @ 0x1
  1170                           
  1171  0071                     blockingDelay@mSecs:	
  1172                           ; 1 bytes @ 0x1
  1173                           
  1174  0071                     playNote@note:	
  1175                           ; 2 bytes @ 0x1
  1176                           
  1177  0071                     ___aldiv@divisor:	
  1178                           ; 2 bytes @ 0x1
  1179                           
  1180                           
  1181                           ; 4 bytes @ 0x1
  1182  0071                     	ds	1
  1183  0072                     ??_ButtonDebounceInit:
  1184                           
  1185                           ; 1 bytes @ 0x2
  1186  0072                     	ds	1
  1187  0073                     ??_blockingDelay:
  1188  0073                     ButtonDebounceInit@i:	
  1189                           ; 1 bytes @ 0x3
  1190                           
  1191  0073                     playNote@duration:	
  1192                           ; 1 bytes @ 0x3
  1193                           
  1194                           
  1195                           ; 2 bytes @ 0x3
  1196  0073                     	ds	1
  1197  0074                     ButtonDebounceInit@port:
  1198                           
  1199                           ; 1 bytes @ 0x4
  1200  0074                     	ds	1
  1201  0075                     ??_doTheArc:
  1202  0075                     ??_goToLPmode:	
  1203                           ; 1 bytes @ 0x5
  1204                           
  1205  0075                     ??_playNote:	
  1206                           ; 1 bytes @ 0x5
  1207                           
  1208  0075                     ___aldiv@dividend:	
  1209                           ; 1 bytes @ 0x5
  1210                           
  1211                           
  1212                           ; 4 bytes @ 0x5
  1213  0075                     	ds	4
  1214  0079                     ??___aldiv:
  1215                           
  1216                           ; 1 bytes @ 0x9
  1217  0079                     	ds	1
  1218                           
  1219                           	psect	cstackBANK0
  1220  004F                     __pcstackBANK0:
  1221  004F                     ___aldiv@counter:
  1222                           
  1223                           ; 1 bytes @ 0x0
  1224  004F                     	ds	1
  1225  0050                     ___aldiv@sign:
  1226                           
  1227                           ; 1 bytes @ 0x1
  1228  0050                     	ds	1
  1229  0051                     ___aldiv@quotient:
  1230                           
  1231                           ; 4 bytes @ 0x2
  1232  0051                     	ds	4
  1233  0055                     ??_chargeIndicator:
  1234                           
  1235                           ; 1 bytes @ 0x6
  1236  0055                     	ds	4
  1237  0059                     _chargeIndicator$1122:
  1238                           
  1239                           ; 4 bytes @ 0xA
  1240  0059                     	ds	4
  1241  005D                     ?_main:
  1242  005D                     main@argc:	
  1243                           ; 2 bytes @ 0xE
  1244                           
  1245                           
  1246                           ; 2 bytes @ 0xE
  1247  005D                     	ds	2
  1248  005F                     main@argv:
  1249                           
  1250                           ; 2 bytes @ 0x10
  1251  005F                     	ds	2
  1252  0061                     ??_main:
  1253                           
  1254                           ; 1 bytes @ 0x12
  1255  0061                     	ds	1
  1256                           
  1257                           	psect	maintext
  1258  04DD                     __pmaintext:	
  1259 ;;
  1260 ;;Main: autosize = 0, tempsize = 1, incstack = 0, save=0
  1261 ;;
  1262 ;; *************** function _main *****************
  1263 ;; Defined at:
  1264 ;;		line 365 in file "main.c"
  1265 ;; Parameters:    Size  Location     Type
  1266 ;;  argc            2   14[BANK0 ] int 
  1267 ;;  argv            2   16[BANK0 ] PTR PTR unsigned char 
  1268 ;; Auto vars:     Size  Location     Type
  1269 ;;		None
  1270 ;; Return value:  Size  Location     Type
  1271 ;;                  2   14[BANK0 ] int 
  1272 ;; Registers used:
  1273 ;;		wreg, fsr0l, fsr0h, fsr1l, fsr1h, status,2, status,0, pclath, cstack
  1274 ;; Tracked objects:
  1275 ;;		On entry : B3F/0
  1276 ;;		On exit  : 0/0
  1277 ;;		Unchanged: 0/0
  1278 ;; Data sizes:     COMMON   BANK0   BANK1   BANK2   BANK3   BANK4   BANK5   BANK6
  1279 ;;      Params:         0       4       0       0       0       0       0       0
  1280 ;;      Locals:         0       0       0       0       0       0       0       0
  1281 ;;      Temps:          0       1       0       0       0       0       0       0
  1282 ;;      Totals:         0       5       0       0       0       0       0       0
  1283 ;;Total ram usage:        5 bytes
  1284 ;; Hardware stack levels required when called: 3
  1285 ;; This function calls:
  1286 ;;		_ButtonDebounceInit
  1287 ;;		_blockingDelay
  1288 ;;		_chargeIndicator
  1289 ;;		_doTheArc
  1290 ;;		_goToLPmode
  1291 ;; This function is called by:
  1292 ;;		Startup code after reset
  1293 ;; This function uses a non-reentrant model
  1294 ;;
  1295                           
  1296                           
  1297                           ;psect for function _main
  1298  04DD                     _main:
  1299  04DD                     l1878:	
  1300                           ;incstack = 0
  1301                           ; Regs used in _main: [wreg-fsr1h+status,2+status,0+pclath+cstack]
  1302                           
  1303                           
  1304                           ;main.c: 369:     ANSELAbits.ANSA0 = 0;
  1305  04DD  017E               	movlb	62	; select bank62
  1306  04DE  1038               	bcf	56,0	;volatile
  1307                           
  1308                           ;main.c: 370:     ANSELAbits.ANSA1 = 0;
  1309  04DF  10B8               	bcf	56,1	;volatile
  1310                           
  1311                           ;main.c: 371:     ANSELAbits.ANSA2 = 0;
  1312  04E0  1138               	bcf	56,2	;volatile
  1313                           
  1314                           ;main.c: 373:     ANSELAbits.ANSA4 = 1;
  1315  04E1  1638               	bsf	56,4	;volatile
  1316                           
  1317                           ;main.c: 374:     ANSELAbits.ANSA5 = 0;
  1318  04E2  12B8               	bcf	56,5	;volatile
  1319  04E3                     l1880:
  1320                           
  1321                           ;main.c: 380:     ANSELC = 0x0;
  1322  04E3  01CE               	clrf	78	;volatile
  1323  04E4                     l1882:
  1324                           
  1325                           ;main.c: 384:     TRISA0 = 1;
  1326  04E4  0140               	movlb	0	; select bank0
  1327  04E5  1412               	bsf	18,0	;volatile
  1328  04E6                     l1884:
  1329                           
  1330                           ;main.c: 385:     WPUA0 = 1;
  1331  04E6  017E               	movlb	62	; select bank62
  1332  04E7  1439               	bsf	57,0	;volatile
  1333  04E8                     l1886:
  1334                           
  1335                           ;main.c: 386:     TRISA1 = 0;
  1336  04E8  0140               	movlb	0	; select bank0
  1337  04E9  1092               	bcf	18,1	;volatile
  1338  04EA                     l1888:
  1339                           
  1340                           ;main.c: 387:     TRISA2 = 0;
  1341  04EA  1112               	bcf	18,2	;volatile
  1342  04EB                     l1890:
  1343                           
  1344                           ;main.c: 388:     TRISA3 = 1;
  1345  04EB  1592               	bsf	18,3	;volatile
  1346  04EC                     l1892:
  1347                           
  1348                           ;main.c: 389:     WPUA3 = 1;
  1349  04EC  017E               	movlb	62	; select bank62
  1350  04ED  15B9               	bsf	57,3	;volatile
  1351  04EE                     l1894:
  1352                           
  1353                           ;main.c: 390:     TRISA4 = 1;
  1354  04EE  0140               	movlb	0	; select bank0
  1355  04EF  1612               	bsf	18,4	;volatile
  1356  04F0                     l1896:
  1357                           
  1358                           ;main.c: 391:     TRISA5 = 1;
  1359  04F0  1692               	bsf	18,5	;volatile
  1360  04F1                     l1898:
  1361                           
  1362                           ;main.c: 392:     TRISC0 = 0;
  1363  04F1  1014               	bcf	20,0	;volatile
  1364  04F2                     l1900:
  1365                           
  1366                           ;main.c: 393:     TRISC1 = 0;
  1367  04F2  1094               	bcf	20,1	;volatile
  1368  04F3                     l1902:
  1369                           
  1370                           ;main.c: 394:     TRISC2 = 0;
  1371  04F3  1114               	bcf	20,2	;volatile
  1372  04F4                     l1904:
  1373                           
  1374                           ;main.c: 395:     TRISC3 = 0;
  1375  04F4  1194               	bcf	20,3	;volatile
  1376  04F5                     l1906:
  1377                           
  1378                           ;main.c: 396:     TRISC4 = 0;
  1379  04F5  1214               	bcf	20,4	;volatile
  1380  04F6                     l1908:
  1381                           
  1382                           ;main.c: 397:     TRISC5 = 0;
  1383  04F6  1294               	bcf	20,5	;volatile
  1384  04F7                     l1910:
  1385                           
  1386                           ;main.c: 400:     LATA1 = 1;
  1387  04F7  1498               	bsf	24,1	;volatile
  1388  04F8                     l1912:
  1389                           
  1390                           ;main.c: 401:     LATA2 = 1;
  1391  04F8  1518               	bsf	24,2	;volatile
  1392  04F9                     l1914:
  1393                           
  1394                           ;main.c: 402:     LATC0 = 1;
  1395  04F9  141A               	bsf	26,0	;volatile
  1396  04FA                     l1916:
  1397                           
  1398                           ;main.c: 403:     LATC1 = 1;
  1399  04FA  149A               	bsf	26,1	;volatile
  1400  04FB                     l1918:
  1401                           
  1402                           ;main.c: 404:     LATC2 = 1;
  1403  04FB  151A               	bsf	26,2	;volatile
  1404  04FC                     l1920:
  1405                           
  1406                           ;main.c: 405:     LATC3 = 0;
  1407  04FC  119A               	bcf	26,3	;volatile
  1408  04FD                     l1922:
  1409                           
  1410                           ;main.c: 406:     LATC4 = 0;
  1411  04FD  121A               	bcf	26,4	;volatile
  1412  04FE                     l1924:
  1413                           
  1414                           ;main.c: 407:     LATC5 = 0;
  1415  04FE  129A               	bcf	26,5	;volatile
  1416  04FF                     l1926:
  1417                           
  1418                           ;main.c: 410:     ButtonDebounceInit(&aPorts, (0x0001) | (0x0008));
  1419  04FF  3009               	movlw	9
  1420  0500  00E1               	movwf	??_main
  1421  0501  0861               	movf	??_main,w
  1422  0502  00F1               	movwf	ButtonDebounceInit@pulledUpButtons
  1423  0503  3043               	movlw	(low (_aPorts| 0))& (0+255)
  1424  0504  3187  2774  3184   	fcall	_ButtonDebounceInit
  1425  0507                     l1928:
  1426                           
  1427                           ;main.c: 417:     OSCFRQbits.FRQ = 0b101;
  1428  0507  0151               	movlb	17	; select bank17
  1429  0508  0813               	movf	19,w	;volatile
  1430  0509  39F8               	andlw	-8
  1431  050A  3805               	iorlw	5
  1432  050B  0093               	movwf	19	;volatile
  1433  050C                     l1930:
  1434                           
  1435                           ;main.c: 418:     OSCENbits.HFOEN = 1;
  1436  050C  1711               	bsf	17,6	;volatile
  1437  050D                     l1932:
  1438                           
  1439                           ;main.c: 422:     T0CON0bits.MD16 = 0;
  1440  050D  014B               	movlb	11	; select bank11
  1441  050E  121E               	bcf	30,4	;volatile
  1442  050F                     l1934:
  1443                           
  1444                           ;main.c: 423:     T0CON0bits.OUTPS = 0b0000;
  1445  050F  30F0               	movlw	-16
  1446  0510  059E               	andwf	30,f	;volatile
  1447  0511                     l1936:
  1448                           
  1449                           ;main.c: 424:     T0CON1bits.CS = 0b010;
  1450  0511  081F               	movf	31,w	;volatile
  1451  0512  391F               	andlw	-225
  1452  0513  3840               	iorlw	64
  1453  0514  009F               	movwf	31	;volatile
  1454  0515                     l1938:
  1455                           
  1456                           ;main.c: 425:     T0CON1bits.ASYNC = 0;
  1457  0515  121F               	bcf	31,4	;volatile
  1458  0516                     l1940:
  1459                           
  1460                           ;main.c: 426:     T0CON1bits.CKPS = 0b0001;
  1461  0516  081F               	movf	31,w	;volatile
  1462  0517  39F0               	andlw	-16
  1463  0518  3801               	iorlw	1
  1464  0519  009F               	movwf	31	;volatile
  1465  051A                     l1942:
  1466                           
  1467                           ;main.c: 427:     T0CON0bits.EN = 1;
  1468  051A  179E               	bsf	30,7	;volatile
  1469  051B                     l1944:
  1470                           
  1471                           ;main.c: 430:     PR2 = 0xFF;
  1472  051B  30FF               	movlw	255
  1473  051C  0145               	movlb	5	; select bank5
  1474  051D  008D               	movwf	13	;volatile
  1475  051E                     l1946:
  1476                           
  1477                           ;main.c: 431:     T2CLKCON = 0b001;
  1478  051E  3001               	movlw	1
  1479  051F  0090               	movwf	16	;volatile
  1480  0520                     l1948:
  1481                           
  1482                           ;main.c: 432:     T2CONbits.T2CKPS = 0b110;
  1483  0520  080E               	movf	14,w	;volatile
  1484  0521  398F               	andlw	-113
  1485  0522  3860               	iorlw	96
  1486  0523  008E               	movwf	14	;volatile
  1487  0524                     l1950:
  1488                           
  1489                           ;main.c: 433:     T2HLTbits.PSYNC = 1;
  1490  0524  178F               	bsf	15,7	;volatile
  1491  0525                     l1952:
  1492                           
  1493                           ;main.c: 434:     T2CONbits.TMR2ON = 1;
  1494  0525  178E               	bsf	14,7	;volatile
  1495  0526                     l1954:
  1496                           
  1497                           ;main.c: 437:     TMR0IE = 1;
  1498  0526  014E               	movlb	14	; select bank14
  1499  0527  1696               	bsf	22,5	;volatile
  1500  0528                     l1956:
  1501                           
  1502                           ;main.c: 438:     TMR2IE = 1;
  1503  0528  1717               	bsf	23,6	;volatile
  1504  0529                     l1958:
  1505                           
  1506                           ;main.c: 441:     FVRCONbits.ADFVR = 0b01;
  1507  0529  0152               	movlb	18	; select bank18
  1508  052A  080C               	movf	12,w	;volatile
  1509  052B  39FC               	andlw	-4
  1510  052C  3801               	iorlw	1
  1511  052D  008C               	movwf	12	;volatile
  1512  052E                     l1960:
  1513                           
  1514                           ;main.c: 442:     FVRCONbits.FVREN = 1;
  1515  052E  178C               	bsf	12,7	;volatile
  1516  052F                     l1962:
  1517                           
  1518                           ;main.c: 446:     if (!debugging) NVMCON1bits.NVMREGS = 1;
  1519  052F  0140               	movlb	0	; select bank0
  1520  0530  0842               	movf	_debugging,w
  1521  0531  1D03               	btfss	3,2
  1522  0532  2D34               	goto	u1851
  1523  0533  2D35               	goto	u1850
  1524  0534                     u1851:
  1525  0534  2D37               	goto	l191
  1526  0535                     u1850:
  1527  0535                     l1964:
  1528  0535  0150               	movlb	16	; select bank16
  1529  0536  171E               	bsf	30,6	;volsfr
  1530  0537                     l191:
  1531                           
  1532                           ;main.c: 447:     NVMADR = 0x8118;
  1533  0537  3081               	movlw	129
  1534  0538  0150               	movlb	16	; select bank16
  1535  0539  009B               	movwf	27	;volatile
  1536  053A  3018               	movlw	24
  1537  053B  009A               	movwf	26	;volatile
  1538                           
  1539                           ;main.c: 448:     NVMCON1bits.RD = 1;
  1540  053C  141E               	bsf	30,0	;volsfr
  1541  053D                     l192:	
  1542                           ;main.c: 449:     while (NVMCON1bits.RD == 1);
  1543                           
  1544  053D  181E               	btfsc	30,0	;volsfr
  1545  053E  2D40               	goto	u1861
  1546  053F  2D41               	goto	u1860
  1547  0540                     u1861:
  1548  0540  2D3D               	goto	l192
  1549  0541                     u1860:
  1550  0541                     l1966:
  1551                           
  1552                           ;main.c: 450:     calibrationMV = NVMDAT;
  1553  0541  081D               	movf	29,w	;volatile
  1554  0542  0140               	movlb	0	; select bank0
  1555  0543  00A1               	movwf	_calibrationMV+1
  1556  0544  0150               	movlb	16	; select bank16
  1557  0545  081C               	movf	28,w	;volatile
  1558  0546  0140               	movlb	0	; select bank0
  1559  0547  00A0               	movwf	_calibrationMV
  1560  0548                     l1968:
  1561                           
  1562                           ;main.c: 451:     if (!debugging) NVMCON1bits.NVMREGS = 0;
  1563  0548  0842               	movf	_debugging,w
  1564  0549  1D03               	btfss	3,2
  1565  054A  2D4C               	goto	u1871
  1566  054B  2D4D               	goto	u1870
  1567  054C                     u1871:
  1568  054C  2D4F               	goto	l1972
  1569  054D                     u1870:
  1570  054D                     l1970:
  1571  054D  0150               	movlb	16	; select bank16
  1572  054E  131E               	bcf	30,6	;volsfr
  1573  054F                     l1972:
  1574                           
  1575                           ;main.c: 454:     ADCON1bits.CS = 0b110;
  1576  054F  0141               	movlb	1	; select bank1
  1577  0550  081E               	movf	30,w	;volatile
  1578  0551  398F               	andlw	-113
  1579  0552  3860               	iorlw	96
  1580  0553  009E               	movwf	30	;volatile
  1581                           
  1582                           ;main.c: 455:     ADCON1bits.PREF = 0b00;
  1583  0554  30FC               	movlw	-4
  1584  0555  059E               	andwf	30,f	;volatile
  1585                           
  1586                           ;main.c: 456:     ADCON0bits.CHS = 0b011110;
  1587  0556  081D               	movf	29,w	;volatile
  1588  0557  3903               	andlw	-253
  1589  0558  3878               	iorlw	120
  1590  0559  009D               	movwf	29	;volatile
  1591  055A                     l1974:
  1592                           
  1593                           ;main.c: 457:     ADCON1bits.FM = 1;
  1594  055A  179E               	bsf	30,7	;volatile
  1595                           
  1596                           ;main.c: 460:     if (!debugging) ADCON0bits.ON = 1;
  1597  055B  0140               	movlb	0	; select bank0
  1598  055C  0842               	movf	_debugging,w
  1599  055D  1D03               	btfss	3,2
  1600  055E  2D60               	goto	u1881
  1601  055F  2D61               	goto	u1880
  1602  0560                     u1881:
  1603  0560  2D63               	goto	l196
  1604  0561                     u1880:
  1605  0561                     l1976:
  1606  0561  0141               	movlb	1	; select bank1
  1607  0562  141D               	bsf	29,0	;volatile
  1608  0563                     l196:
  1609                           
  1610                           ;main.c: 473:     IOCAN0 = 1;
  1611  0563  017E               	movlb	62	; select bank62
  1612  0564  143E               	bsf	62,0	;volatile
  1613                           
  1614                           ;main.c: 474:     IOCAP0 = 1;
  1615  0565  143D               	bsf	61,0	;volatile
  1616                           
  1617                           ;main.c: 475:     IOCAN3 = 1;
  1618  0566  15BE               	bsf	62,3	;volatile
  1619                           
  1620                           ;main.c: 476:     IOCAP3 = 1;
  1621  0567  15BD               	bsf	61,3	;volatile
  1622                           
  1623                           ;main.c: 477:     IOCAN5 = 1;
  1624  0568  16BE               	bsf	62,5	;volatile
  1625                           
  1626                           ;main.c: 478:     IOCAP5 = 1;
  1627  0569  16BD               	bsf	61,5	;volatile
  1628                           
  1629                           ;main.c: 479:     INTE = 0;
  1630  056A  014E               	movlb	14	; select bank14
  1631  056B  1016               	bcf	22,0	;volatile
  1632                           
  1633                           ;main.c: 481:     PEIE = 1;
  1634  056C  170B               	bsf	11,6	;volatile
  1635                           
  1636                           ;main.c: 482:     IOCIE = 1;
  1637  056D  1616               	bsf	22,4	;volatile
  1638                           
  1639                           ;main.c: 483:     GIE = 1;
  1640  056E  178B               	bsf	11,7	;volatile
  1641                           
  1642                           ;main.c: 486:     LATC2 = 0;
  1643  056F  0140               	movlb	0	; select bank0
  1644  0570  111A               	bcf	26,2	;volatile
  1645  0571                     l1978:
  1646                           
  1647                           ;main.c: 487:     blockingDelay(100);
  1648  0571  3064               	movlw	100
  1649  0572  00F1               	movwf	blockingDelay@mSecs
  1650  0573  3000               	movlw	0
  1651  0574  00F2               	movwf	blockingDelay@mSecs+1
  1652  0575  3187  27D9  3184   	fcall	_blockingDelay
  1653  0578                     l1980:
  1654                           
  1655                           ;main.c: 488:     LATC2 = 1;
  1656  0578  0140               	movlb	0	; select bank0
  1657  0579  151A               	bsf	26,2	;volatile
  1658                           
  1659                           ;main.c: 489:     blockingDelay(100);
  1660  057A  3064               	movlw	100
  1661  057B  00F1               	movwf	blockingDelay@mSecs
  1662  057C  3000               	movlw	0
  1663  057D  00F2               	movwf	blockingDelay@mSecs+1
  1664  057E  3187  27D9  3184   	fcall	_blockingDelay
  1665  0581                     l1982:
  1666                           
  1667                           ;main.c: 490:     LATC2 = 0;
  1668  0581  0140               	movlb	0	; select bank0
  1669  0582  111A               	bcf	26,2	;volatile
  1670                           
  1671                           ;main.c: 491:     blockingDelay(100);
  1672  0583  3064               	movlw	100
  1673  0584  00F1               	movwf	blockingDelay@mSecs
  1674  0585  3000               	movlw	0
  1675  0586  00F2               	movwf	blockingDelay@mSecs+1
  1676  0587  3187  27D9  3184   	fcall	_blockingDelay
  1677  058A                     l1984:
  1678                           
  1679                           ;main.c: 492:     LATC2 = 1;
  1680  058A  0140               	movlb	0	; select bank0
  1681  058B  151A               	bsf	26,2	;volatile
  1682                           
  1683                           ;main.c: 493:     blockingDelay(100);
  1684  058C  3064               	movlw	100
  1685  058D  00F1               	movwf	blockingDelay@mSecs
  1686  058E  3000               	movlw	0
  1687  058F  00F2               	movwf	blockingDelay@mSecs+1
  1688  0590  3187  27D9  3184   	fcall	_blockingDelay
  1689  0593                     l1986:
  1690                           
  1691                           ;main.c: 494:     LATC2 = 0;
  1692  0593  0140               	movlb	0	; select bank0
  1693  0594  111A               	bcf	26,2	;volatile
  1694                           
  1695                           ;main.c: 495:     blockingDelay(100);
  1696  0595  3064               	movlw	100
  1697  0596  00F1               	movwf	blockingDelay@mSecs
  1698  0597  3000               	movlw	0
  1699  0598  00F2               	movwf	blockingDelay@mSecs+1
  1700  0599  3187  27D9  3184   	fcall	_blockingDelay
  1701  059C                     l1988:
  1702                           
  1703                           ;main.c: 496:     LATC2 = 1;
  1704  059C  0140               	movlb	0	; select bank0
  1705  059D  151A               	bsf	26,2	;volatile
  1706  059E                     l1990:
  1707                           
  1708                           ;main.c: 502:         forceArc = 0;
  1709  059E  0140               	movlb	0	; select bank0
  1710  059F  01BC               	clrf	_forceArc
  1711  05A0  01BD               	clrf	_forceArc+1
  1712  05A1                     l1992:
  1713                           
  1714                           ;main.c: 503:         if (showCharge) chargeIndicator();
  1715  05A1  082E               	movf	_showCharge,w
  1716  05A2  042F               	iorwf	_showCharge+1,w
  1717  05A3  1903               	btfsc	3,2
  1718  05A4  2DA6               	goto	u1891
  1719  05A5  2DA7               	goto	u1890
  1720  05A6                     u1891:
  1721  05A6  2DAA               	goto	l1996
  1722  05A7                     u1890:
  1723  05A7                     l1994:
  1724  05A7  3185  25CC  3184   	fcall	_chargeIndicator
  1725  05AA                     l1996:
  1726                           
  1727                           ;main.c: 504:         if (poweredOn) {
  1728  05AA  0140               	movlb	0	; select bank0
  1729  05AB  0830               	movf	_poweredOn,w
  1730  05AC  0431               	iorwf	_poweredOn+1,w
  1731  05AD  1903               	btfsc	3,2
  1732  05AE  2DB0               	goto	u1901
  1733  05AF  2DB1               	goto	u1900
  1734  05B0                     u1901:
  1735  05B0  2DBD               	goto	l199
  1736  05B1                     u1900:
  1737  05B1                     l1998:
  1738                           
  1739                           ;main.c: 506:             LATC2 = 0;
  1740  05B1  111A               	bcf	26,2	;volatile
  1741                           
  1742                           ;main.c: 508:             LATC3 = 1;
  1743  05B2  159A               	bsf	26,3	;volatile
  1744  05B3                     l2000:
  1745                           
  1746                           ;main.c: 509:             if (gotTheTouch) doTheArc();
  1747  05B3  0828               	movf	_gotTheTouch,w
  1748  05B4  0429               	iorwf	_gotTheTouch+1,w
  1749  05B5  1903               	btfsc	3,2
  1750  05B6  2DB8               	goto	u1911
  1751  05B7  2DB9               	goto	u1910
  1752  05B8                     u1911:
  1753  05B8  2DBF               	goto	l2004
  1754  05B9                     u1910:
  1755  05B9                     l2002:
  1756  05B9  3182  22F3  3184   	fcall	_doTheArc
  1757  05BC  2DBF               	goto	l2004
  1758  05BD                     l199:
  1759                           
  1760                           ;main.c: 512:             LATC2 = 1;
  1761  05BD  151A               	bsf	26,2	;volatile
  1762                           
  1763                           ;main.c: 514:             LATC3 = 0;
  1764  05BE  119A               	bcf	26,3	;volatile
  1765  05BF                     l2004:
  1766                           
  1767                           ;main.c: 516:         if (lowPowerMode) goToLPmode();
  1768  05BF  0140               	movlb	0	; select bank0
  1769  05C0  082C               	movf	_lowPowerMode,w
  1770  05C1  042D               	iorwf	_lowPowerMode+1,w
  1771  05C2  1903               	btfsc	3,2
  1772  05C3  2DC5               	goto	u1921
  1773  05C4  2DC6               	goto	u1920
  1774  05C5                     u1921:
  1775  05C5  2D9E               	goto	l1990
  1776  05C6                     u1920:
  1777  05C6                     l2006:
  1778  05C6  3187  27C3  3184   	fcall	_goToLPmode
  1779  05C9  2D9E               	goto	l1990
  1780  05CA  3181  291A         	ljmp	start
  1781  05CC                     __end_of_main:
  1782                           
  1783                           	psect	text1
  1784  07C3                     __ptext1:	
  1785 ;; *************** function _goToLPmode *****************
  1786 ;; Defined at:
  1787 ;;		line 741 in file "main.c"
  1788 ;; Parameters:    Size  Location     Type
  1789 ;;		None
  1790 ;; Auto vars:     Size  Location     Type
  1791 ;;		None
  1792 ;; Return value:  Size  Location     Type
  1793 ;;                  1    wreg      void 
  1794 ;; Registers used:
  1795 ;;		wreg, fsr0l, fsr0h, status,2, status,0, pclath, cstack
  1796 ;; Tracked objects:
  1797 ;;		On entry : 0/0
  1798 ;;		On exit  : 0/0
  1799 ;;		Unchanged: 0/0
  1800 ;; Data sizes:     COMMON   BANK0   BANK1   BANK2   BANK3   BANK4   BANK5   BANK6
  1801 ;;      Params:         0       0       0       0       0       0       0       0
  1802 ;;      Locals:         0       0       0       0       0       0       0       0
  1803 ;;      Temps:          0       0       0       0       0       0       0       0
  1804 ;;      Totals:         0       0       0       0       0       0       0       0
  1805 ;;Total ram usage:        0 bytes
  1806 ;; Hardware stack levels used: 1
  1807 ;; Hardware stack levels required when called: 2
  1808 ;; This function calls:
  1809 ;;		_playNote
  1810 ;; This function is called by:
  1811 ;;		_main
  1812 ;; This function uses a non-reentrant model
  1813 ;;
  1814                           
  1815                           
  1816                           ;psect for function _goToLPmode
  1817  07C3                     _goToLPmode:
  1818  07C3                     l1564:	
  1819                           ;incstack = 0
  1820                           ; Regs used in _goToLPmode: [wreg-fsr0h+status,2+status,0+pclath+cstack]
  1821                           
  1822                           
  1823                           ;main.c: 742:     forceArc = 0;
  1824  07C3  0140               	movlb	0	; select bank0
  1825  07C4  01BC               	clrf	_forceArc
  1826  07C5  01BD               	clrf	_forceArc+1
  1827  07C6                     l1566:
  1828                           
  1829                           ;main.c: 743:     playNote(0, 100);
  1830  07C6  3000               	movlw	0
  1831  07C7  00F1               	movwf	playNote@note
  1832  07C8  00F2               	movwf	playNote@note+1
  1833  07C9  3064               	movlw	100
  1834  07CA  00F3               	movwf	playNote@duration
  1835  07CB  3000               	movlw	0
  1836  07CC  00F4               	movwf	playNote@duration+1
  1837  07CD  3187  2742  3187   	fcall	_playNote
  1838  07D0                     l1568:
  1839                           
  1840                           ;main.c: 745:     LATC3 = 0;
  1841  07D0  0140               	movlb	0	; select bank0
  1842  07D1  119A               	bcf	26,3	;volatile
  1843  07D2                     l1570:
  1844                           
  1845                           ;main.c: 748:     LATA1 = 1;
  1846  07D2  1498               	bsf	24,1	;volatile
  1847  07D3                     l1572:
  1848                           
  1849                           ;main.c: 749:     LATA2 = 1;
  1850  07D3  1518               	bsf	24,2	;volatile
  1851  07D4                     l1574:
  1852                           
  1853                           ;main.c: 750:     LATC0 = 1;
  1854  07D4  141A               	bsf	26,0	;volatile
  1855  07D5                     l1576:
  1856                           
  1857                           ;main.c: 751:     LATC1 = 1;
  1858  07D5  149A               	bsf	26,1	;volatile
  1859  07D6                     l1578:
  1860                           
  1861                           ;main.c: 752:     LATC2 = 1;
  1862  07D6  151A               	bsf	26,2	;volatile
  1863  07D7  0063               	sleep	;# 
  1864  07D8                     l289:
  1865  07D8  0008               	return
  1866  07D9                     __end_of_goToLPmode:
  1867                           
  1868                           	psect	text2
  1869  02F3                     __ptext2:	
  1870 ;; *************** function _doTheArc *****************
  1871 ;; Defined at:
  1872 ;;		line 665 in file "main.c"
  1873 ;; Parameters:    Size  Location     Type
  1874 ;;		None
  1875 ;; Auto vars:     Size  Location     Type
  1876 ;;		None
  1877 ;; Return value:  Size  Location     Type
  1878 ;;                  1    wreg      void 
  1879 ;; Registers used:
  1880 ;;		wreg, fsr0l, fsr0h, status,2, status,0, pclath, cstack
  1881 ;; Tracked objects:
  1882 ;;		On entry : 0/0
  1883 ;;		On exit  : 0/0
  1884 ;;		Unchanged: 0/0
  1885 ;; Data sizes:     COMMON   BANK0   BANK1   BANK2   BANK3   BANK4   BANK5   BANK6
  1886 ;;      Params:         0       0       0       0       0       0       0       0
  1887 ;;      Locals:         0       0       0       0       0       0       0       0
  1888 ;;      Temps:          2       0       0       0       0       0       0       0
  1889 ;;      Totals:         2       0       0       0       0       0       0       0
  1890 ;;Total ram usage:        2 bytes
  1891 ;; Hardware stack levels used: 1
  1892 ;; Hardware stack levels required when called: 2
  1893 ;; This function calls:
  1894 ;;		_playNote
  1895 ;; This function is called by:
  1896 ;;		_main
  1897 ;; This function uses a non-reentrant model
  1898 ;;
  1899                           
  1900                           
  1901                           ;psect for function _doTheArc
  1902  02F3                     _doTheArc:
  1903  02F3                     l1494:	
  1904                           ;incstack = 0
  1905                           ; Regs used in _doTheArc: [wreg-fsr0h+status,2+status,0+pclath+cstack]
  1906                           
  1907                           
  1908                           ;main.c: 667:     forceArc = 1;
  1909  02F3  3001               	movlw	1
  1910  02F4  0140               	movlb	0	; select bank0
  1911  02F5  00BC               	movwf	_forceArc
  1912  02F6  3000               	movlw	0
  1913  02F7  00BD               	movwf	_forceArc+1
  1914  02F8                     l1496:
  1915                           
  1916                           ;main.c: 668:     runIndex++;
  1917  02F8  3001               	movlw	1
  1918  02F9  00F5               	movwf	??_doTheArc
  1919  02FA  0875               	movf	??_doTheArc,w
  1920  02FB  07BF               	addwf	_runIndex,f
  1921  02FC                     l1498:
  1922                           
  1923                           ;main.c: 669:     if (runIndex > 3) runIndex = 1;
  1924  02FC  3004               	movlw	4
  1925  02FD  023F               	subwf	_runIndex,w
  1926  02FE  1C03               	skipc
  1927  02FF  2B01               	goto	u1261
  1928  0300  2B02               	goto	u1260
  1929  0301                     u1261:
  1930  0301  2BD0               	goto	l1548
  1931  0302                     u1260:
  1932  0302                     l1500:
  1933  0302  01BF               	clrf	_runIndex
  1934  0303  0ABF               	incf	_runIndex,f
  1935  0304  2BD0               	goto	l1548
  1936  0305                     l240:	
  1937                           ;main.c: 671:         case 1:
  1938                           
  1939                           
  1940                           ;main.c: 673:             LATA1 = 0;
  1941  0305  1098               	bcf	24,1	;volatile
  1942                           
  1943                           ;main.c: 674:             LATA2 = 1;
  1944  0306  1518               	bsf	24,2	;volatile
  1945                           
  1946                           ;main.c: 675:             LATC0 = 1;
  1947  0307  141A               	bsf	26,0	;volatile
  1948                           
  1949                           ;main.c: 676:             LATC1 = 1;
  1950  0308  149A               	bsf	26,1	;volatile
  1951  0309                     l1502:	
  1952                           ;main.c: 677:             while (gotTheTouch && poweredOn);
  1953                           
  1954  0309  0828               	movf	_gotTheTouch,w
  1955  030A  0429               	iorwf	_gotTheTouch+1,w
  1956  030B  1903               	btfsc	3,2
  1957  030C  2B0E               	goto	u1271
  1958  030D  2B0F               	goto	u1270
  1959  030E                     u1271:
  1960  030E  2BE3               	goto	l1550
  1961  030F                     u1270:
  1962  030F                     l1504:
  1963  030F  0830               	movf	_poweredOn,w
  1964  0310  0431               	iorwf	_poweredOn+1,w
  1965  0311  1D03               	btfss	3,2
  1966  0312  2B14               	goto	u1281
  1967  0313  2B15               	goto	u1280
  1968  0314                     u1281:
  1969  0314  2B09               	goto	l1502
  1970  0315                     u1280:
  1971  0315  2BE3               	goto	l1550
  1972  0316                     l247:	
  1973                           ;main.c: 680:         case 2:
  1974                           
  1975                           
  1976                           ;main.c: 682:             LATA1 = 1;
  1977  0316  1498               	bsf	24,1	;volatile
  1978                           
  1979                           ;main.c: 683:             LATA2 = 0;
  1980  0317  1118               	bcf	24,2	;volatile
  1981                           
  1982                           ;main.c: 684:             LATC0 = 1;
  1983  0318  141A               	bsf	26,0	;volatile
  1984                           
  1985                           ;main.c: 685:             LATC1 = 1;
  1986  0319  149A               	bsf	26,1	;volatile
  1987  031A                     l1506:
  1988                           
  1989                           ;main.c: 687:             genericDelay = 1000;
  1990  031A  30E8               	movlw	232
  1991  031B  00B2               	movwf	_genericDelay
  1992  031C  3003               	movlw	3
  1993  031D  00B3               	movwf	_genericDelay+1
  1994  031E                     l1508:	
  1995                           ;main.c: 688:             while (genericDelay && poweredOn && gotTheTouch);
  1996                           
  1997  031E  0832               	movf	_genericDelay,w
  1998  031F  0433               	iorwf	_genericDelay+1,w
  1999  0320  1903               	btfsc	3,2
  2000  0321  2B23               	goto	u1291
  2001  0322  2B24               	goto	u1290
  2002  0323                     u1291:
  2003  0323  2B30               	goto	l1514
  2004  0324                     u1290:
  2005  0324                     l1510:
  2006  0324  0830               	movf	_poweredOn,w
  2007  0325  0431               	iorwf	_poweredOn+1,w
  2008  0326  1903               	btfsc	3,2
  2009  0327  2B29               	goto	u1301
  2010  0328  2B2A               	goto	u1300
  2011  0329                     u1301:
  2012  0329  2B30               	goto	l1514
  2013  032A                     u1300:
  2014  032A                     l1512:
  2015  032A  0828               	movf	_gotTheTouch,w
  2016  032B  0429               	iorwf	_gotTheTouch+1,w
  2017  032C  1D03               	btfss	3,2
  2018  032D  2B2F               	goto	u1311
  2019  032E  2B30               	goto	u1310
  2020  032F                     u1311:
  2021  032F  2B1E               	goto	l1508
  2022  0330                     u1310:
  2023  0330                     l1514:
  2024                           
  2025                           ;main.c: 689:             forceArc = 0;
  2026  0330  01BC               	clrf	_forceArc
  2027  0331  01BD               	clrf	_forceArc+1
  2028                           
  2029                           ;main.c: 690:             for (i = 0; i < sizeof (sheRa) && gotTheTouch && poweredOn; i+
      +                          +) playNote(sheRa[i][0], sheRa[i][1]);
  2030  0332  01FA               	clrf	_i
  2031  0333  01FB               	clrf	_i+1
  2032  0334  2B5C               	goto	l1520
  2033  0335                     l1516:
  2034  0335  087B               	movf	_i+1,w
  2035  0336  0085               	movwf	5
  2036  0337  087A               	movf	_i,w
  2037  0338  0084               	movwf	4
  2038  0339  3584               	lslf	4,f
  2039  033A  0D85               	rlf	5,f
  2040  033B  3584               	lslf	4,f
  2041  033C  0D85               	rlf	5,f
  2042  033D  30ED               	movlw	low (_sheRa| (0+32768))
  2043  033E  0784               	addwf	4,f
  2044  033F  3083               	movlw	high (_sheRa| (0+32768))
  2045  0340  3D85               	addwfc	5,f
  2046  0341  3F00               	moviw [0]fsr0
  2047  0342  00F1               	movwf	playNote@note
  2048  0343  3F01               	moviw [1]fsr0
  2049  0344  00F2               	movwf	playNote@note+1
  2050  0345  087B               	movf	_i+1,w
  2051  0346  0085               	movwf	5
  2052  0347  087A               	movf	_i,w
  2053  0348  0084               	movwf	4
  2054  0349  3584               	lslf	4,f
  2055  034A  0D85               	rlf	5,f
  2056  034B  3584               	lslf	4,f
  2057  034C  0D85               	rlf	5,f
  2058  034D  30EF               	movlw	low ((_sheRa+2)| (0+32768))
  2059  034E  0784               	addwf	4,f
  2060  034F  3083               	movlw	high ((_sheRa+2)| (0+32768))
  2061  0350  3D85               	addwfc	5,f
  2062  0351  3F00               	moviw [0]fsr0
  2063  0352  00F3               	movwf	playNote@duration
  2064  0353  3F01               	moviw [1]fsr0
  2065  0354  00F4               	movwf	playNote@duration+1
  2066  0355  3187  2742  3182   	fcall	_playNote
  2067  0358                     l1518:
  2068  0358  3001               	movlw	1
  2069  0359  07FA               	addwf	_i,f
  2070  035A  3000               	movlw	0
  2071  035B  3DFB               	addwfc	_i+1,f
  2072  035C                     l1520:
  2073  035C  3000               	movlw	0
  2074  035D  027B               	subwf	_i+1,w
  2075  035E  30F0               	movlw	240
  2076  035F  1903               	skipnz
  2077  0360  027A               	subwf	_i,w
  2078  0361  1803               	skipnc
  2079  0362  2B64               	goto	u1321
  2080  0363  2B65               	goto	u1320
  2081  0364                     u1321:
  2082  0364  2BE3               	goto	l1550
  2083  0365                     u1320:
  2084  0365                     l1522:
  2085  0365  0140               	movlb	0	; select bank0
  2086  0366  0828               	movf	_gotTheTouch,w
  2087  0367  0429               	iorwf	_gotTheTouch+1,w
  2088  0368  1903               	btfsc	3,2
  2089  0369  2B6B               	goto	u1331
  2090  036A  2B6C               	goto	u1330
  2091  036B                     u1331:
  2092  036B  2BE3               	goto	l1550
  2093  036C                     u1330:
  2094  036C                     l1524:
  2095  036C  0830               	movf	_poweredOn,w
  2096  036D  0431               	iorwf	_poweredOn+1,w
  2097  036E  1D03               	btfss	3,2
  2098  036F  2B71               	goto	u1341
  2099  0370  2B72               	goto	u1340
  2100  0371                     u1341:
  2101  0371  2B35               	goto	l1516
  2102  0372                     u1340:
  2103  0372  2BE3               	goto	l1550
  2104  0373                     l258:	
  2105                           ;main.c: 693:         case 3:
  2106                           
  2107                           
  2108                           ;main.c: 695:             LATA1 = 1;
  2109  0373  1498               	bsf	24,1	;volatile
  2110                           
  2111                           ;main.c: 696:             LATA2 = 1;
  2112  0374  1518               	bsf	24,2	;volatile
  2113                           
  2114                           ;main.c: 697:             LATC0 = 0;
  2115  0375  101A               	bcf	26,0	;volatile
  2116                           
  2117                           ;main.c: 698:             LATC1 = 1;
  2118  0376  149A               	bsf	26,1	;volatile
  2119  0377                     l1526:
  2120                           
  2121                           ;main.c: 700:             genericDelay = 1000;
  2122  0377  30E8               	movlw	232
  2123  0378  00B2               	movwf	_genericDelay
  2124  0379  3003               	movlw	3
  2125  037A  00B3               	movwf	_genericDelay+1
  2126  037B                     l1528:	
  2127                           ;main.c: 701:             while (genericDelay && poweredOn && gotTheTouch);
  2128                           
  2129  037B  0832               	movf	_genericDelay,w
  2130  037C  0433               	iorwf	_genericDelay+1,w
  2131  037D  1903               	btfsc	3,2
  2132  037E  2B80               	goto	u1351
  2133  037F  2B81               	goto	u1350
  2134  0380                     u1351:
  2135  0380  2B8D               	goto	l1534
  2136  0381                     u1350:
  2137  0381                     l1530:
  2138  0381  0830               	movf	_poweredOn,w
  2139  0382  0431               	iorwf	_poweredOn+1,w
  2140  0383  1903               	btfsc	3,2
  2141  0384  2B86               	goto	u1361
  2142  0385  2B87               	goto	u1360
  2143  0386                     u1361:
  2144  0386  2B8D               	goto	l1534
  2145  0387                     u1360:
  2146  0387                     l1532:
  2147  0387  0828               	movf	_gotTheTouch,w
  2148  0388  0429               	iorwf	_gotTheTouch+1,w
  2149  0389  1D03               	btfss	3,2
  2150  038A  2B8C               	goto	u1371
  2151  038B  2B8D               	goto	u1370
  2152  038C                     u1371:
  2153  038C  2B7B               	goto	l1528
  2154  038D                     u1370:
  2155  038D                     l1534:
  2156                           
  2157                           ;main.c: 702:             forceArc = 0;
  2158  038D  01BC               	clrf	_forceArc
  2159  038E  01BD               	clrf	_forceArc+1
  2160                           
  2161                           ;main.c: 703:             for (i = 0; i < sizeof (gargoyles) && gotTheTouch && poweredOn
      +                          ; i++) playNote(gargoyles[i][0], gargoyles[i][1]);
  2162  038F  01FA               	clrf	_i
  2163  0390  01FB               	clrf	_i+1
  2164  0391  2BB9               	goto	l1540
  2165  0392                     l1536:
  2166  0392  087B               	movf	_i+1,w
  2167  0393  0085               	movwf	5
  2168  0394  087A               	movf	_i,w
  2169  0395  0084               	movwf	4
  2170  0396  3584               	lslf	4,f
  2171  0397  0D85               	rlf	5,f
  2172  0398  3584               	lslf	4,f
  2173  0399  0D85               	rlf	5,f
  2174  039A  3033               	movlw	low (_gargoyles| (0+32768))
  2175  039B  0784               	addwf	4,f
  2176  039C  3081               	movlw	high (_gargoyles| (0+32768))
  2177  039D  3D85               	addwfc	5,f
  2178  039E  3F00               	moviw [0]fsr0
  2179  039F  00F1               	movwf	playNote@note
  2180  03A0  3F01               	moviw [1]fsr0
  2181  03A1  00F2               	movwf	playNote@note+1
  2182  03A2  087B               	movf	_i+1,w
  2183  03A3  0085               	movwf	5
  2184  03A4  087A               	movf	_i,w
  2185  03A5  0084               	movwf	4
  2186  03A6  3584               	lslf	4,f
  2187  03A7  0D85               	rlf	5,f
  2188  03A8  3584               	lslf	4,f
  2189  03A9  0D85               	rlf	5,f
  2190  03AA  3035               	movlw	low ((_gargoyles+2)| (0+32768))
  2191  03AB  0784               	addwf	4,f
  2192  03AC  3081               	movlw	high ((_gargoyles+2)| (0+32768))
  2193  03AD  3D85               	addwfc	5,f
  2194  03AE  3F00               	moviw [0]fsr0
  2195  03AF  00F3               	movwf	playNote@duration
  2196  03B0  3F01               	moviw [1]fsr0
  2197  03B1  00F4               	movwf	playNote@duration+1
  2198  03B2  3187  2742  3182   	fcall	_playNote
  2199  03B5                     l1538:
  2200  03B5  3001               	movlw	1
  2201  03B6  07FA               	addwf	_i,f
  2202  03B7  3000               	movlw	0
  2203  03B8  3DFB               	addwfc	_i+1,f
  2204  03B9                     l1540:
  2205  03B9  3001               	movlw	1
  2206  03BA  027B               	subwf	_i+1,w
  2207  03BB  30C0               	movlw	192
  2208  03BC  1903               	skipnz
  2209  03BD  027A               	subwf	_i,w
  2210  03BE  1803               	skipnc
  2211  03BF  2BC1               	goto	u1381
  2212  03C0  2BC2               	goto	u1380
  2213  03C1                     u1381:
  2214  03C1  2BE3               	goto	l1550
  2215  03C2                     u1380:
  2216  03C2                     l1542:
  2217  03C2  0140               	movlb	0	; select bank0
  2218  03C3  0828               	movf	_gotTheTouch,w
  2219  03C4  0429               	iorwf	_gotTheTouch+1,w
  2220  03C5  1903               	btfsc	3,2
  2221  03C6  2BC8               	goto	u1391
  2222  03C7  2BC9               	goto	u1390
  2223  03C8                     u1391:
  2224  03C8  2BE3               	goto	l1550
  2225  03C9                     u1390:
  2226  03C9                     l1544:
  2227  03C9  0830               	movf	_poweredOn,w
  2228  03CA  0431               	iorwf	_poweredOn+1,w
  2229  03CB  1D03               	btfss	3,2
  2230  03CC  2BCE               	goto	u1401
  2231  03CD  2BCF               	goto	u1400
  2232  03CE                     u1401:
  2233  03CE  2B92               	goto	l1536
  2234  03CF                     u1400:
  2235  03CF  2BE3               	goto	l1550
  2236  03D0                     l1548:
  2237  03D0  083F               	movf	_runIndex,w
  2238  03D1  00F5               	movwf	??_doTheArc
  2239  03D2  01F6               	clrf	??_doTheArc+1
  2240                           
  2241                           ; Switch on 2 bytes has been partitioned into a top level switch of size 1, and 1 sub-sw
      +                          itches
  2242                           ; Switch size 1, requested type "simple"
  2243                           ; Number of cases is 1, Range of values is 0 to 0
  2244                           ; switch strategies available:
  2245                           ; Name         Instructions Cycles
  2246                           ; simple_byte            4     3 (average)
  2247                           ; direct_byte            8     6 (fixed)
  2248                           ; jumptable            260     6 (fixed)
  2249                           ;	Chosen strategy is simple_byte
  2250  03D3  0876               	movf	??_doTheArc+1,w
  2251  03D4  3A00               	xorlw	0	; case 0
  2252  03D5  1903               	skipnz
  2253  03D6  2BD8               	goto	l2028
  2254  03D7  2BE3               	goto	l1550
  2255  03D8                     l2028:
  2256                           
  2257                           ; Switch size 1, requested type "simple"
  2258                           ; Number of cases is 3, Range of values is 1 to 3
  2259                           ; switch strategies available:
  2260                           ; Name         Instructions Cycles
  2261                           ; simple_byte           10     6 (average)
  2262                           ; direct_byte           15     9 (fixed)
  2263                           ; jumptable            263     9 (fixed)
  2264                           ;	Chosen strategy is simple_byte
  2265  03D8  0875               	movf	??_doTheArc,w
  2266  03D9  3A01               	xorlw	1	; case 1
  2267  03DA  1903               	skipnz
  2268  03DB  2B05               	goto	l240
  2269  03DC  3A03               	xorlw	3	; case 2
  2270  03DD  1903               	skipnz
  2271  03DE  2B16               	goto	l247
  2272  03DF  3A01               	xorlw	1	; case 3
  2273  03E0  1903               	skipnz
  2274  03E1  2B73               	goto	l258
  2275  03E2  2BE3               	goto	l1550
  2276  03E3                     l1550:
  2277                           
  2278                           ;main.c: 710:     forceArc = 0;
  2279  03E3  0140               	movlb	0	; select bank0
  2280  03E4  01BC               	clrf	_forceArc
  2281  03E5  01BD               	clrf	_forceArc+1
  2282                           
  2283                           ;main.c: 711:     gotTheTouch = 0;
  2284  03E6  01A8               	clrf	_gotTheTouch
  2285  03E7  01A9               	clrf	_gotTheTouch+1
  2286  03E8                     l1552:
  2287                           
  2288                           ;main.c: 713:     LATA1 = 1;
  2289  03E8  1498               	bsf	24,1	;volatile
  2290  03E9                     l1554:
  2291                           
  2292                           ;main.c: 714:     LATA2 = 1;
  2293  03E9  1518               	bsf	24,2	;volatile
  2294  03EA                     l1556:
  2295                           
  2296                           ;main.c: 715:     LATC0 = 1;
  2297  03EA  141A               	bsf	26,0	;volatile
  2298  03EB                     l1558:
  2299                           
  2300                           ;main.c: 716:     LATC1 = 1;
  2301  03EB  149A               	bsf	26,1	;volatile
  2302  03EC                     l270:
  2303  03EC  0008               	return
  2304  03ED                     __end_of_doTheArc:
  2305                           
  2306                           	psect	text3
  2307  0742                     __ptext3:	
  2308 ;; *************** function _playNote *****************
  2309 ;; Defined at:
  2310 ;;		line 728 in file "main.c"
  2311 ;; Parameters:    Size  Location     Type
  2312 ;;  note            2    1[COMMON] unsigned int 
  2313 ;;  duration        2    3[COMMON] unsigned int 
  2314 ;; Auto vars:     Size  Location     Type
  2315 ;;		None
  2316 ;; Return value:  Size  Location     Type
  2317 ;;                  1    wreg      void 
  2318 ;; Registers used:
  2319 ;;		wreg, fsr0l, fsr0h, status,2, status,0, pclath
  2320 ;; Tracked objects:
  2321 ;;		On entry : 0/0
  2322 ;;		On exit  : 0/0
  2323 ;;		Unchanged: 0/0
  2324 ;; Data sizes:     COMMON   BANK0   BANK1   BANK2   BANK3   BANK4   BANK5   BANK6
  2325 ;;      Params:         4       0       0       0       0       0       0       0
  2326 ;;      Locals:         0       0       0       0       0       0       0       0
  2327 ;;      Temps:          0       0       0       0       0       0       0       0
  2328 ;;      Totals:         4       0       0       0       0       0       0       0
  2329 ;;Total ram usage:        4 bytes
  2330 ;; Hardware stack levels used: 1
  2331 ;; Hardware stack levels required when called: 1
  2332 ;; This function calls:
  2333 ;;		Nothing
  2334 ;; This function is called by:
  2335 ;;		_doTheArc
  2336 ;;		_goToLPmode
  2337 ;; This function uses a non-reentrant model
  2338 ;;
  2339                           
  2340                           
  2341                           ;psect for function _playNote
  2342  0742                     _playNote:
  2343  0742                     l1364:	
  2344                           ;incstack = 0
  2345                           ; Regs used in _playNote: [wreg-fsr0h+status,2+status,0+pclath]
  2346                           
  2347                           
  2348                           ;main.c: 729:     if (note > 0) {
  2349  0742  0871               	movf	playNote@note,w
  2350  0743  0472               	iorwf	playNote@note+1,w
  2351  0744  1903               	btfsc	3,2
  2352  0745  2F47               	goto	u931
  2353  0746  2F48               	goto	u930
  2354  0747                     u931:
  2355  0747  2F57               	goto	l1370
  2356  0748                     u930:
  2357  0748                     l1366:
  2358                           
  2359                           ;main.c: 730:         noGate = 0;
  2360  0748  0140               	movlb	0	; select bank0
  2361  0749  01E2               	clrf	_noGate
  2362  074A  01E3               	clrf	_noGate+1
  2363  074B                     l1368:
  2364                           
  2365                           ;main.c: 731:         PR2 = notes[note];
  2366  074B  0872               	movf	playNote@note+1,w
  2367  074C  0085               	movwf	5
  2368  074D  0871               	movf	playNote@note,w
  2369  074E  0084               	movwf	4
  2370  074F  309F               	movlw	low (_notes| (0+32768))
  2371  0750  0784               	addwf	4,f
  2372  0751  3087               	movlw	high (_notes| (0+32768))
  2373  0752  3D85               	addwfc	5,f
  2374  0753  0800               	movf	0,w	;code access
  2375  0754  0145               	movlb	5	; select bank5
  2376  0755  008D               	movwf	13	;volatile
  2377                           
  2378                           ;main.c: 732:     } else {
  2379  0756  2F5C               	goto	l280
  2380  0757                     l1370:
  2381                           
  2382                           ;main.c: 733:         noGate = 1;
  2383  0757  3001               	movlw	1
  2384  0758  0140               	movlb	0	; select bank0
  2385  0759  00E2               	movwf	_noGate
  2386  075A  3000               	movlw	0
  2387  075B  00E3               	movwf	_noGate+1
  2388  075C                     l280:	
  2389                           ;main.c: 734:     }
  2390                           
  2391                           
  2392                           ;main.c: 735:     genericDelay = duration;
  2393  075C  0874               	movf	playNote@duration+1,w
  2394  075D  0140               	movlb	0	; select bank0
  2395  075E  00B3               	movwf	_genericDelay+1
  2396  075F  0873               	movf	playNote@duration,w
  2397  0760  00B2               	movwf	_genericDelay
  2398  0761                     l1372:	
  2399                           ;main.c: 736:     while (genericDelay && poweredOn && gotTheTouch);
  2400                           
  2401  0761  0832               	movf	_genericDelay,w
  2402  0762  0433               	iorwf	_genericDelay+1,w
  2403  0763  1903               	btfsc	3,2
  2404  0764  2F66               	goto	u941
  2405  0765  2F67               	goto	u940
  2406  0766                     u941:
  2407  0766  2F73               	goto	l286
  2408  0767                     u940:
  2409  0767                     l1374:
  2410  0767  0830               	movf	_poweredOn,w
  2411  0768  0431               	iorwf	_poweredOn+1,w
  2412  0769  1903               	btfsc	3,2
  2413  076A  2F6C               	goto	u951
  2414  076B  2F6D               	goto	u950
  2415  076C                     u951:
  2416  076C  2F73               	goto	l286
  2417  076D                     u950:
  2418  076D                     l1376:
  2419  076D  0828               	movf	_gotTheTouch,w
  2420  076E  0429               	iorwf	_gotTheTouch+1,w
  2421  076F  1D03               	btfss	3,2
  2422  0770  2F72               	goto	u961
  2423  0771  2F73               	goto	u960
  2424  0772                     u961:
  2425  0772  2F61               	goto	l1372
  2426  0773                     u960:
  2427  0773                     l286:
  2428  0773  0008               	return
  2429  0774                     __end_of_playNote:
  2430                           
  2431                           	psect	text4
  2432  05CC                     __ptext4:	
  2433 ;; *************** function _chargeIndicator *****************
  2434 ;; Defined at:
  2435 ;;		line 771 in file "main.c"
  2436 ;; Parameters:    Size  Location     Type
  2437 ;;		None
  2438 ;; Auto vars:     Size  Location     Type
  2439 ;;		None
  2440 ;; Return value:  Size  Location     Type
  2441 ;;                  1    wreg      void 
  2442 ;; Registers used:
  2443 ;;		wreg, status,2, status,0, pclath, cstack
  2444 ;; Tracked objects:
  2445 ;;		On entry : 0/0
  2446 ;;		On exit  : 0/0
  2447 ;;		Unchanged: 0/0
  2448 ;; Data sizes:     COMMON   BANK0   BANK1   BANK2   BANK3   BANK4   BANK5   BANK6
  2449 ;;      Params:         0       0       0       0       0       0       0       0
  2450 ;;      Locals:         0       4       0       0       0       0       0       0
  2451 ;;      Temps:          0       4       0       0       0       0       0       0
  2452 ;;      Totals:         0       8       0       0       0       0       0       0
  2453 ;;Total ram usage:        8 bytes
  2454 ;; Hardware stack levels used: 1
  2455 ;; Hardware stack levels required when called: 2
  2456 ;; This function calls:
  2457 ;;		___aldiv
  2458 ;;		_blockingDelay
  2459 ;; This function is called by:
  2460 ;;		_main
  2461 ;; This function uses a non-reentrant model
  2462 ;;
  2463                           
  2464                           
  2465                           ;psect for function _chargeIndicator
  2466  05CC                     _chargeIndicator:
  2467  05CC                     l1432:	
  2468                           ;incstack = 0
  2469                           ; Regs used in _chargeIndicator: [wreg+status,2+status,0+pclath+cstack]
  2470                           
  2471                           
  2472                           ;main.c: 773:     if (!debugging) ADCON0bits.ON = 1;
  2473  05CC  0140               	movlb	0	; select bank0
  2474  05CD  0842               	movf	_debugging,w
  2475  05CE  1D03               	btfss	3,2
  2476  05CF  2DD1               	goto	u1081
  2477  05D0  2DD2               	goto	u1080
  2478  05D1                     u1081:
  2479  05D1  2DD4               	goto	l295
  2480  05D2                     u1080:
  2481  05D2                     l1434:
  2482  05D2  0141               	movlb	1	; select bank1
  2483  05D3  141D               	bsf	29,0	;volatile
  2484  05D4                     l295:
  2485                           
  2486                           ;main.c: 779:     ADCON0bits.GO = 1;
  2487  05D4  0141               	movlb	1	; select bank1
  2488  05D5  149D               	bsf	29,1	;volatile
  2489  05D6                     l1436:
  2490                           
  2491                           ;main.c: 780:     if (!debugging) while (ADCON0bits.GO == 1);
  2492  05D6  0140               	movlb	0	; select bank0
  2493  05D7  0842               	movf	_debugging,w
  2494  05D8  1D03               	btfss	3,2
  2495  05D9  2DDB               	goto	u1091
  2496  05DA  2DDC               	goto	u1090
  2497  05DB                     u1091:
  2498  05DB  2DE1               	goto	l1440
  2499  05DC                     u1090:
  2500  05DC                     l297:
  2501  05DC  0141               	movlb	1	; select bank1
  2502  05DD  189D               	btfsc	29,1	;volatile
  2503  05DE  2DE0               	goto	u1101
  2504  05DF  2DE1               	goto	u1100
  2505  05E0                     u1101:
  2506  05E0  2DDC               	goto	l297
  2507  05E1                     u1100:
  2508  05E1                     l1440:
  2509                           
  2510                           ;main.c: 781:     adcVolts = ADRES;
  2511  05E1  0141               	movlb	1	; select bank1
  2512  05E2  081C               	movf	28,w	;volatile
  2513  05E3  0140               	movlb	0	; select bank0
  2514  05E4  00A3               	movwf	_adcVolts+1
  2515  05E5  0141               	movlb	1	; select bank1
  2516  05E6  081B               	movf	27,w	;volatile
  2517  05E7  0140               	movlb	0	; select bank0
  2518  05E8  00A2               	movwf	_adcVolts
  2519  05E9                     l1442:
  2520                           
  2521                           ;main.c: 782:     if (!debugging) battVolts = ((calibrationMV * 1024L) / adcVolts) / 10L
      +                          ;
  2522  05E9  0842               	movf	_debugging,w
  2523  05EA  1D03               	btfss	3,2
  2524  05EB  2DED               	goto	u1111
  2525  05EC  2DEE               	goto	u1110
  2526  05ED                     u1111:
  2527  05ED  2E2D               	goto	l1446
  2528  05EE                     u1110:
  2529  05EE                     l1444:
  2530  05EE  0822               	movf	_adcVolts,w
  2531  05EF  00F1               	movwf	___aldiv@divisor
  2532  05F0  0823               	movf	_adcVolts+1,w
  2533  05F1  00F2               	movwf	___aldiv@divisor+1
  2534  05F2  01F3               	clrf	___aldiv@divisor+2
  2535  05F3  01F4               	clrf	___aldiv@divisor+3
  2536  05F4  0820               	movf	_calibrationMV,w
  2537  05F5  00D5               	movwf	??_chargeIndicator
  2538  05F6  0821               	movf	_calibrationMV+1,w
  2539  05F7  00D6               	movwf	??_chargeIndicator+1
  2540  05F8  01D7               	clrf	??_chargeIndicator+2
  2541  05F9  01D8               	clrf	??_chargeIndicator+3
  2542  05FA  300A               	movlw	10
  2543  05FB                     u1125:
  2544  05FB  35D5               	lslf	??_chargeIndicator,f
  2545  05FC  0DD6               	rlf	??_chargeIndicator+1,f
  2546  05FD  0DD7               	rlf	??_chargeIndicator+2,f
  2547  05FE  0DD8               	rlf	??_chargeIndicator+3,f
  2548  05FF                     u1120:
  2549  05FF  0B89               	decfsz	9,f
  2550  0600  2DFB               	goto	u1125
  2551  0601  0858               	movf	??_chargeIndicator+3,w
  2552  0602  00F8               	movwf	___aldiv@dividend+3
  2553  0603  0857               	movf	??_chargeIndicator+2,w
  2554  0604  00F7               	movwf	___aldiv@dividend+2
  2555  0605  0856               	movf	??_chargeIndicator+1,w
  2556  0606  00F6               	movwf	___aldiv@dividend+1
  2557  0607  0855               	movf	??_chargeIndicator,w
  2558  0608  00F5               	movwf	___aldiv@dividend
  2559  0609  3186  26B2  3185   	fcall	___aldiv
  2560  060C  0874               	movf	?___aldiv+3,w
  2561  060D  0140               	movlb	0	; select bank0
  2562  060E  00DC               	movwf	_chargeIndicator$1122+3
  2563  060F  0873               	movf	?___aldiv+2,w
  2564  0610  00DB               	movwf	_chargeIndicator$1122+2
  2565  0611  0872               	movf	?___aldiv+1,w
  2566  0612  00DA               	movwf	_chargeIndicator$1122+1
  2567  0613  0871               	movf	?___aldiv,w
  2568  0614  00D9               	movwf	_chargeIndicator$1122
  2569  0615  3000               	movlw	0
  2570  0616  00F4               	movwf	___aldiv@divisor+3
  2571  0617  3000               	movlw	0
  2572  0618  00F3               	movwf	___aldiv@divisor+2
  2573  0619  3000               	movlw	0
  2574  061A  00F2               	movwf	___aldiv@divisor+1
  2575  061B  300A               	movlw	10
  2576  061C  00F1               	movwf	___aldiv@divisor
  2577  061D  085C               	movf	_chargeIndicator$1122+3,w
  2578  061E  00F8               	movwf	___aldiv@dividend+3
  2579  061F  085B               	movf	_chargeIndicator$1122+2,w
  2580  0620  00F7               	movwf	___aldiv@dividend+2
  2581  0621  085A               	movf	_chargeIndicator$1122+1,w
  2582  0622  00F6               	movwf	___aldiv@dividend+1
  2583  0623  0859               	movf	_chargeIndicator$1122,w
  2584  0624  00F5               	movwf	___aldiv@dividend
  2585  0625  3186  26B2  3185   	fcall	___aldiv
  2586  0628  0872               	movf	?___aldiv+1,w
  2587  0629  0140               	movlb	0	; select bank0
  2588  062A  00A5               	movwf	_battVolts+1
  2589  062B  0871               	movf	?___aldiv,w
  2590  062C  00A4               	movwf	_battVolts
  2591  062D                     l1446:
  2592                           
  2593                           ;main.c: 784:     if (battVolts > 415) {
  2594  062D  3001               	movlw	1
  2595  062E  0225               	subwf	_battVolts+1,w
  2596  062F  30A0               	movlw	160
  2597  0630  1903               	skipnz
  2598  0631  0224               	subwf	_battVolts,w
  2599  0632  1C03               	skipc
  2600  0633  2E35               	goto	u1131
  2601  0634  2E36               	goto	u1130
  2602  0635                     u1131:
  2603  0635  2E45               	goto	l1454
  2604  0636                     u1130:
  2605  0636                     l1448:
  2606                           
  2607                           ;main.c: 787:         LATA1 = 0;
  2608  0636  1098               	bcf	24,1	;volatile
  2609                           
  2610                           ;main.c: 788:         LATA2 = 0;
  2611  0637  1118               	bcf	24,2	;volatile
  2612                           
  2613                           ;main.c: 789:         LATC0 = 0;
  2614  0638  101A               	bcf	26,0	;volatile
  2615                           
  2616                           ;main.c: 790:         LATC1 = 0;
  2617  0639  109A               	bcf	26,1	;volatile
  2618  063A                     l1450:
  2619                           
  2620                           ;main.c: 791:         if (charging) lowPowerMode = 1;
  2621  063A  0826               	movf	_charging,w
  2622  063B  0427               	iorwf	_charging+1,w
  2623  063C  1903               	btfsc	3,2
  2624  063D  2E3F               	goto	u1141
  2625  063E  2E40               	goto	u1140
  2626  063F                     u1141:
  2627  063F  2EA0               	goto	l1488
  2628  0640                     u1140:
  2629  0640                     l1452:
  2630  0640  3001               	movlw	1
  2631  0641  00AC               	movwf	_lowPowerMode
  2632  0642  3000               	movlw	0
  2633  0643  00AD               	movwf	_lowPowerMode+1
  2634  0644  2EA0               	goto	l1488
  2635  0645                     l1454:
  2636  0645  3001               	movlw	1
  2637  0646  0225               	subwf	_battVolts+1,w
  2638  0647  308F               	movlw	143
  2639  0648  1903               	skipnz
  2640  0649  0224               	subwf	_battVolts,w
  2641  064A  1C03               	skipc
  2642  064B  2E4D               	goto	u1151
  2643  064C  2E4E               	goto	u1150
  2644  064D                     u1151:
  2645  064D  2E60               	goto	l1464
  2646  064E                     u1150:
  2647  064E                     l1456:
  2648                           
  2649                           ;main.c: 795:         LATA1 = 0;
  2650  064E  1098               	bcf	24,1	;volatile
  2651                           
  2652                           ;main.c: 796:         LATA2 = 0;
  2653  064F  1118               	bcf	24,2	;volatile
  2654                           
  2655                           ;main.c: 797:         LATC0 = 0;
  2656  0650  101A               	bcf	26,0	;volatile
  2657  0651                     l1458:
  2658                           
  2659                           ;main.c: 798:         if (charging) {
  2660  0651  0826               	movf	_charging,w
  2661  0652  0427               	iorwf	_charging+1,w
  2662  0653  1903               	btfsc	3,2
  2663  0654  2E56               	goto	u1161
  2664  0655  2E57               	goto	u1160
  2665  0656                     u1161:
  2666  0656  2EA0               	goto	l1488
  2667  0657                     u1160:
  2668  0657                     l1460:
  2669                           
  2670                           ;main.c: 799:             if (chargeCycle) LATC1 = 0;
  2671  0657  083E               	movf	_chargeCycle,w
  2672  0658  1903               	btfsc	3,2
  2673  0659  2E5B               	goto	u1171
  2674  065A  2E5C               	goto	u1170
  2675  065B                     u1171:
  2676  065B  2E5E               	goto	l306
  2677  065C                     u1170:
  2678  065C                     l1462:
  2679  065C  109A               	bcf	26,1	;volatile
  2680  065D  2EA0               	goto	l1488
  2681  065E                     l306:	
  2682                           ;main.c: 800:             else LATC1 = 1;
  2683                           
  2684  065E  149A               	bsf	26,1	;volatile
  2685  065F  2EA0               	goto	l1488
  2686  0660                     l1464:
  2687  0660  3001               	movlw	1
  2688  0661  0225               	subwf	_battVolts+1,w
  2689  0662  3081               	movlw	129
  2690  0663  1903               	skipnz
  2691  0664  0224               	subwf	_battVolts,w
  2692  0665  1C03               	skipc
  2693  0666  2E68               	goto	u1181
  2694  0667  2E69               	goto	u1180
  2695  0668                     u1181:
  2696  0668  2E7A               	goto	l1474
  2697  0669                     u1180:
  2698  0669                     l1466:
  2699                           
  2700                           ;main.c: 805:         LATA1 = 0;
  2701  0669  1098               	bcf	24,1	;volatile
  2702                           
  2703                           ;main.c: 806:         LATA2 = 0;
  2704  066A  1118               	bcf	24,2	;volatile
  2705  066B                     l1468:
  2706                           
  2707                           ;main.c: 807:         if (charging) {
  2708  066B  0826               	movf	_charging,w
  2709  066C  0427               	iorwf	_charging+1,w
  2710  066D  1903               	btfsc	3,2
  2711  066E  2E70               	goto	u1191
  2712  066F  2E71               	goto	u1190
  2713  0670                     u1191:
  2714  0670  2E5E               	goto	l306
  2715  0671                     u1190:
  2716  0671                     l1470:
  2717                           
  2718                           ;main.c: 808:             if (chargeCycle) LATC0 = 0;
  2719  0671  083E               	movf	_chargeCycle,w
  2720  0672  1903               	btfsc	3,2
  2721  0673  2E75               	goto	u1201
  2722  0674  2E76               	goto	u1200
  2723  0675                     u1201:
  2724  0675  2E78               	goto	l311
  2725  0676                     u1200:
  2726  0676                     l1472:
  2727  0676  101A               	bcf	26,0	;volatile
  2728  0677  2E5E               	goto	l306
  2729  0678                     l311:	
  2730                           ;main.c: 809:             else LATC0 = 1;
  2731                           
  2732  0678  141A               	bsf	26,0	;volatile
  2733  0679  2E5E               	goto	l306
  2734  067A                     l1474:
  2735  067A  3001               	movlw	1
  2736  067B  0225               	subwf	_battVolts+1,w
  2737  067C  3078               	movlw	120
  2738  067D  1903               	skipnz
  2739  067E  0224               	subwf	_battVolts,w
  2740  067F  1C03               	skipc
  2741  0680  2E82               	goto	u1211
  2742  0681  2E83               	goto	u1210
  2743  0682                     u1211:
  2744  0682  2E95               	goto	l1484
  2745  0683                     u1210:
  2746  0683                     l1476:
  2747                           
  2748                           ;main.c: 815:         LATA1 = 0;
  2749  0683  1098               	bcf	24,1	;volatile
  2750  0684                     l1478:
  2751                           
  2752                           ;main.c: 816:         if (charging) {
  2753  0684  0826               	movf	_charging,w
  2754  0685  0427               	iorwf	_charging+1,w
  2755  0686  1903               	btfsc	3,2
  2756  0687  2E89               	goto	u1221
  2757  0688  2E8A               	goto	u1220
  2758  0689                     u1221:
  2759  0689  2E92               	goto	l315
  2760  068A                     u1220:
  2761  068A                     l1480:
  2762                           
  2763                           ;main.c: 817:             if (chargeCycle) LATA2 = 0;
  2764  068A  083E               	movf	_chargeCycle,w
  2765  068B  1903               	btfsc	3,2
  2766  068C  2E8E               	goto	u1231
  2767  068D  2E8F               	goto	u1230
  2768  068E                     u1231:
  2769  068E  2E91               	goto	l316
  2770  068F                     u1230:
  2771  068F                     l1482:
  2772  068F  1118               	bcf	24,2	;volatile
  2773  0690  2E92               	goto	l315
  2774  0691                     l316:	
  2775                           ;main.c: 818:             else LATA2 = 1;
  2776                           
  2777  0691  1518               	bsf	24,2	;volatile
  2778  0692                     l315:	
  2779                           ;main.c: 819:         }
  2780                           
  2781                           
  2782                           ;main.c: 820:         LATC0 = 1;
  2783  0692  141A               	bsf	26,0	;volatile
  2784                           
  2785                           ;main.c: 821:         LATC1 = 1;
  2786  0693  149A               	bsf	26,1	;volatile
  2787                           
  2788                           ;main.c: 822:     } else {
  2789  0694  2EA0               	goto	l1488
  2790  0695                     l1484:
  2791                           
  2792                           ;main.c: 824:         if (chargeCycle) LATA1 = 0;
  2793  0695  083E               	movf	_chargeCycle,w
  2794  0696  1903               	btfsc	3,2
  2795  0697  2E99               	goto	u1241
  2796  0698  2E9A               	goto	u1240
  2797  0699                     u1241:
  2798  0699  2E9C               	goto	l319
  2799  069A                     u1240:
  2800  069A                     l1486:
  2801  069A  1098               	bcf	24,1	;volatile
  2802  069B  2E9D               	goto	l320
  2803  069C                     l319:	
  2804                           ;main.c: 825:         else LATA1 = 1;
  2805                           
  2806  069C  1498               	bsf	24,1	;volatile
  2807  069D                     l320:
  2808                           
  2809                           ;main.c: 826:         LATA2 = 1;
  2810  069D  1518               	bsf	24,2	;volatile
  2811                           
  2812                           ;main.c: 827:         LATC0 = 1;
  2813  069E  141A               	bsf	26,0	;volatile
  2814                           
  2815                           ;main.c: 828:         LATC1 = 1;
  2816  069F  149A               	bsf	26,1	;volatile
  2817  06A0                     l1488:
  2818                           
  2819                           ;main.c: 830:     if (charging) {
  2820  06A0  0826               	movf	_charging,w
  2821  06A1  0427               	iorwf	_charging+1,w
  2822  06A2  1903               	btfsc	3,2
  2823  06A3  2EA5               	goto	u1251
  2824  06A4  2EA6               	goto	u1250
  2825  06A5                     u1251:
  2826  06A5  2EB1               	goto	l322
  2827  06A6                     u1250:
  2828  06A6                     l1490:
  2829                           
  2830                           ;main.c: 831:         chargeCycle ^= 1;
  2831  06A6  3001               	movlw	1
  2832  06A7  00D5               	movwf	??_chargeIndicator
  2833  06A8  0855               	movf	??_chargeIndicator,w
  2834  06A9  06BE               	xorwf	_chargeCycle,f
  2835  06AA                     l1492:
  2836                           
  2837                           ;main.c: 833:         blockingDelay(500);
  2838  06AA  30F4               	movlw	244
  2839  06AB  00F1               	movwf	blockingDelay@mSecs
  2840  06AC  3001               	movlw	1
  2841  06AD  00F2               	movwf	blockingDelay@mSecs+1
  2842  06AE  3187  27D9  3185   	fcall	_blockingDelay
  2843  06B1                     l322:
  2844  06B1  0008               	return
  2845  06B2                     __end_of_chargeIndicator:
  2846                           
  2847                           	psect	text5
  2848  07D9                     __ptext5:	
  2849 ;; *************** function _blockingDelay *****************
  2850 ;; Defined at:
  2851 ;;		line 721 in file "main.c"
  2852 ;; Parameters:    Size  Location     Type
  2853 ;;  mSecs           2    1[COMMON] unsigned int 
  2854 ;; Auto vars:     Size  Location     Type
  2855 ;;		None
  2856 ;; Return value:  Size  Location     Type
  2857 ;;                  1    wreg      void 
  2858 ;; Registers used:
  2859 ;;		wreg, status,2, status,0
  2860 ;; Tracked objects:
  2861 ;;		On entry : 0/0
  2862 ;;		On exit  : 0/0
  2863 ;;		Unchanged: 0/0
  2864 ;; Data sizes:     COMMON   BANK0   BANK1   BANK2   BANK3   BANK4   BANK5   BANK6
  2865 ;;      Params:         2       0       0       0       0       0       0       0
  2866 ;;      Locals:         0       0       0       0       0       0       0       0
  2867 ;;      Temps:          0       0       0       0       0       0       0       0
  2868 ;;      Totals:         2       0       0       0       0       0       0       0
  2869 ;;Total ram usage:        2 bytes
  2870 ;; Hardware stack levels used: 1
  2871 ;; Hardware stack levels required when called: 1
  2872 ;; This function calls:
  2873 ;;		Nothing
  2874 ;; This function is called by:
  2875 ;;		_main
  2876 ;;		_chargeIndicator
  2877 ;; This function uses a non-reentrant model
  2878 ;;
  2879                           
  2880                           
  2881                           ;psect for function _blockingDelay
  2882  07D9                     _blockingDelay:
  2883  07D9                     l1360:	
  2884                           ;incstack = 0
  2885                           ; Regs used in _blockingDelay: [wreg+status,2+status,0]
  2886                           
  2887                           
  2888                           ;main.c: 722:     genericDelay = mSecs;
  2889  07D9  0872               	movf	blockingDelay@mSecs+1,w
  2890  07DA  0140               	movlb	0	; select bank0
  2891  07DB  00B3               	movwf	_genericDelay+1
  2892  07DC  0871               	movf	blockingDelay@mSecs,w
  2893  07DD  00B2               	movwf	_genericDelay
  2894  07DE                     l1362:	
  2895                           ;main.c: 723:     while (genericDelay > 0);
  2896                           
  2897  07DE  0832               	movf	_genericDelay,w
  2898  07DF  0433               	iorwf	_genericDelay+1,w
  2899  07E0  1D03               	btfss	3,2
  2900  07E1  2FE3               	goto	u921
  2901  07E2  2FE4               	goto	u920
  2902  07E3                     u921:
  2903  07E3  2FDE               	goto	l1362
  2904  07E4                     u920:
  2905  07E4                     l276:
  2906  07E4  0008               	return
  2907  07E5                     __end_of_blockingDelay:
  2908                           
  2909                           	psect	text6
  2910  06B2                     __ptext6:	
  2911 ;; *************** function ___aldiv *****************
  2912 ;; Defined at:
  2913 ;;		line 5 in file "C:\Program Files\Microchip\xc8\v2.32\pic\sources\c99\common\aldiv.c"
  2914 ;; Parameters:    Size  Location     Type
  2915 ;;  divisor         4    1[COMMON] long 
  2916 ;;  dividend        4    5[COMMON] long 
  2917 ;; Auto vars:     Size  Location     Type
  2918 ;;  quotient        4    2[BANK0 ] long 
  2919 ;;  sign            1    1[BANK0 ] unsigned char 
  2920 ;;  counter         1    0[BANK0 ] unsigned char 
  2921 ;; Return value:  Size  Location     Type
  2922 ;;                  4    1[COMMON] long 
  2923 ;; Registers used:
  2924 ;;		wreg, status,2, status,0
  2925 ;; Tracked objects:
  2926 ;;		On entry : 0/0
  2927 ;;		On exit  : 0/0
  2928 ;;		Unchanged: 0/0
  2929 ;; Data sizes:     COMMON   BANK0   BANK1   BANK2   BANK3   BANK4   BANK5   BANK6
  2930 ;;      Params:         8       0       0       0       0       0       0       0
  2931 ;;      Locals:         0       6       0       0       0       0       0       0
  2932 ;;      Temps:          1       0       0       0       0       0       0       0
  2933 ;;      Totals:         9       6       0       0       0       0       0       0
  2934 ;;Total ram usage:       15 bytes
  2935 ;; Hardware stack levels used: 1
  2936 ;; Hardware stack levels required when called: 1
  2937 ;; This function calls:
  2938 ;;		Nothing
  2939 ;; This function is called by:
  2940 ;;		_chargeIndicator
  2941 ;; This function uses a non-reentrant model
  2942 ;;
  2943                           
  2944                           
  2945                           ;psect for function ___aldiv
  2946  06B2                     ___aldiv:
  2947  06B2                     l1378:	
  2948                           ;incstack = 0
  2949                           ; Regs used in ___aldiv: [wreg+status,2+status,0]
  2950                           
  2951  06B2  0140               	movlb	0	; select bank0
  2952  06B3  01D0               	clrf	___aldiv@sign
  2953  06B4                     l1380:
  2954  06B4  1FF4               	btfss	___aldiv@divisor+3,7
  2955  06B5  2EB7               	goto	u971
  2956  06B6  2EB8               	goto	u970
  2957  06B7                     u971:
  2958  06B7  2EC5               	goto	l475
  2959  06B8                     u970:
  2960  06B8                     l1382:
  2961  06B8  09F1               	comf	___aldiv@divisor,f
  2962  06B9  09F2               	comf	___aldiv@divisor+1,f
  2963  06BA  09F3               	comf	___aldiv@divisor+2,f
  2964  06BB  09F4               	comf	___aldiv@divisor+3,f
  2965  06BC  0AF1               	incf	___aldiv@divisor,f
  2966  06BD  1903               	skipnz
  2967  06BE  0AF2               	incf	___aldiv@divisor+1,f
  2968  06BF  1903               	skipnz
  2969  06C0  0AF3               	incf	___aldiv@divisor+2,f
  2970  06C1  1903               	skipnz
  2971  06C2  0AF4               	incf	___aldiv@divisor+3,f
  2972  06C3  01D0               	clrf	___aldiv@sign
  2973  06C4  0AD0               	incf	___aldiv@sign,f
  2974  06C5                     l475:
  2975  06C5  1FF8               	btfss	___aldiv@dividend+3,7
  2976  06C6  2EC8               	goto	u981
  2977  06C7  2EC9               	goto	u980
  2978  06C8                     u981:
  2979  06C8  2ED8               	goto	l1388
  2980  06C9                     u980:
  2981  06C9                     l1384:
  2982  06C9  09F5               	comf	___aldiv@dividend,f
  2983  06CA  09F6               	comf	___aldiv@dividend+1,f
  2984  06CB  09F7               	comf	___aldiv@dividend+2,f
  2985  06CC  09F8               	comf	___aldiv@dividend+3,f
  2986  06CD  0AF5               	incf	___aldiv@dividend,f
  2987  06CE  1903               	skipnz
  2988  06CF  0AF6               	incf	___aldiv@dividend+1,f
  2989  06D0  1903               	skipnz
  2990  06D1  0AF7               	incf	___aldiv@dividend+2,f
  2991  06D2  1903               	skipnz
  2992  06D3  0AF8               	incf	___aldiv@dividend+3,f
  2993  06D4                     l1386:
  2994  06D4  3001               	movlw	1
  2995  06D5  00F9               	movwf	??___aldiv
  2996  06D6  0879               	movf	??___aldiv,w
  2997  06D7  06D0               	xorwf	___aldiv@sign,f
  2998  06D8                     l1388:
  2999  06D8  3000               	movlw	0
  3000  06D9  00D4               	movwf	___aldiv@quotient+3
  3001  06DA  3000               	movlw	0
  3002  06DB  00D3               	movwf	___aldiv@quotient+2
  3003  06DC  3000               	movlw	0
  3004  06DD  00D2               	movwf	___aldiv@quotient+1
  3005  06DE  3000               	movlw	0
  3006  06DF  00D1               	movwf	___aldiv@quotient
  3007  06E0                     l1390:
  3008  06E0  0874               	movf	___aldiv@divisor+3,w
  3009  06E1  0473               	iorwf	___aldiv@divisor+2,w
  3010  06E2  0472               	iorwf	___aldiv@divisor+1,w
  3011  06E3  0471               	iorwf	___aldiv@divisor,w
  3012  06E4  1903               	skipnz
  3013  06E5  2EE7               	goto	u991
  3014  06E6  2EE8               	goto	u990
  3015  06E7                     u991:
  3016  06E7  2F29               	goto	l1410
  3017  06E8                     u990:
  3018  06E8                     l1392:
  3019  06E8  01CF               	clrf	___aldiv@counter
  3020  06E9  0ACF               	incf	___aldiv@counter,f
  3021  06EA  2EF6               	goto	l1396
  3022  06EB                     l1394:
  3023  06EB  3001               	movlw	1
  3024  06EC                     u1005:
  3025  06EC  35F1               	lslf	___aldiv@divisor,f
  3026  06ED  0DF2               	rlf	___aldiv@divisor+1,f
  3027  06EE  0DF3               	rlf	___aldiv@divisor+2,f
  3028  06EF  0DF4               	rlf	___aldiv@divisor+3,f
  3029  06F0  0B89               	decfsz	9,f
  3030  06F1  2EEC               	goto	u1005
  3031  06F2  3001               	movlw	1
  3032  06F3  00F9               	movwf	??___aldiv
  3033  06F4  0879               	movf	??___aldiv,w
  3034  06F5  07CF               	addwf	___aldiv@counter,f
  3035  06F6                     l1396:
  3036  06F6  1FF4               	btfss	___aldiv@divisor+3,7
  3037  06F7  2EF9               	goto	u1011
  3038  06F8  2EFA               	goto	u1010
  3039  06F9                     u1011:
  3040  06F9  2EEB               	goto	l1394
  3041  06FA                     u1010:
  3042  06FA                     l1398:
  3043  06FA  3001               	movlw	1
  3044  06FB                     u1025:
  3045  06FB  35D1               	lslf	___aldiv@quotient,f
  3046  06FC  0DD2               	rlf	___aldiv@quotient+1,f
  3047  06FD  0DD3               	rlf	___aldiv@quotient+2,f
  3048  06FE  0DD4               	rlf	___aldiv@quotient+3,f
  3049  06FF  0B89               	decfsz	9,f
  3050  0700  2EFB               	goto	u1025
  3051  0701                     l1400:
  3052  0701  0874               	movf	___aldiv@divisor+3,w
  3053  0702  0278               	subwf	___aldiv@dividend+3,w
  3054  0703  1D03               	skipz
  3055  0704  2F0F               	goto	u1035
  3056  0705  0873               	movf	___aldiv@divisor+2,w
  3057  0706  0277               	subwf	___aldiv@dividend+2,w
  3058  0707  1D03               	skipz
  3059  0708  2F0F               	goto	u1035
  3060  0709  0872               	movf	___aldiv@divisor+1,w
  3061  070A  0276               	subwf	___aldiv@dividend+1,w
  3062  070B  1D03               	skipz
  3063  070C  2F0F               	goto	u1035
  3064  070D  0871               	movf	___aldiv@divisor,w
  3065  070E  0275               	subwf	___aldiv@dividend,w
  3066  070F                     u1035:
  3067  070F  1C03               	skipc
  3068  0710  2F12               	goto	u1031
  3069  0711  2F13               	goto	u1030
  3070  0712                     u1031:
  3071  0712  2F1C               	goto	l1406
  3072  0713                     u1030:
  3073  0713                     l1402:
  3074  0713  0871               	movf	___aldiv@divisor,w
  3075  0714  02F5               	subwf	___aldiv@dividend,f
  3076  0715  0872               	movf	___aldiv@divisor+1,w
  3077  0716  3BF6               	subwfb	___aldiv@dividend+1,f
  3078  0717  0873               	movf	___aldiv@divisor+2,w
  3079  0718  3BF7               	subwfb	___aldiv@dividend+2,f
  3080  0719  0874               	movf	___aldiv@divisor+3,w
  3081  071A  3BF8               	subwfb	___aldiv@dividend+3,f
  3082  071B                     l1404:
  3083  071B  1451               	bsf	___aldiv@quotient,0
  3084  071C                     l1406:
  3085  071C  3001               	movlw	1
  3086  071D                     u1045:
  3087  071D  36F4               	lsrf	___aldiv@divisor+3,f
  3088  071E  0CF3               	rrf	___aldiv@divisor+2,f
  3089  071F  0CF2               	rrf	___aldiv@divisor+1,f
  3090  0720  0CF1               	rrf	___aldiv@divisor,f
  3091  0721  0B89               	decfsz	9,f
  3092  0722  2F1D               	goto	u1045
  3093  0723                     l1408:
  3094  0723  3001               	movlw	1
  3095  0724  02CF               	subwf	___aldiv@counter,f
  3096  0725  1D03               	btfss	3,2
  3097  0726  2F28               	goto	u1051
  3098  0727  2F29               	goto	u1050
  3099  0728                     u1051:
  3100  0728  2EFA               	goto	l1398
  3101  0729                     u1050:
  3102  0729                     l1410:
  3103  0729  0850               	movf	___aldiv@sign,w
  3104  072A  1903               	btfsc	3,2
  3105  072B  2F2D               	goto	u1061
  3106  072C  2F2E               	goto	u1060
  3107  072D                     u1061:
  3108  072D  2F39               	goto	l1414
  3109  072E                     u1060:
  3110  072E                     l1412:
  3111  072E  09D1               	comf	___aldiv@quotient,f
  3112  072F  09D2               	comf	___aldiv@quotient+1,f
  3113  0730  09D3               	comf	___aldiv@quotient+2,f
  3114  0731  09D4               	comf	___aldiv@quotient+3,f
  3115  0732  0AD1               	incf	___aldiv@quotient,f
  3116  0733  1903               	skipnz
  3117  0734  0AD2               	incf	___aldiv@quotient+1,f
  3118  0735  1903               	skipnz
  3119  0736  0AD3               	incf	___aldiv@quotient+2,f
  3120  0737  1903               	skipnz
  3121  0738  0AD4               	incf	___aldiv@quotient+3,f
  3122  0739                     l1414:
  3123  0739  0854               	movf	___aldiv@quotient+3,w
  3124  073A  00F4               	movwf	?___aldiv+3
  3125  073B  0853               	movf	___aldiv@quotient+2,w
  3126  073C  00F3               	movwf	?___aldiv+2
  3127  073D  0852               	movf	___aldiv@quotient+1,w
  3128  073E  00F2               	movwf	?___aldiv+1
  3129  073F  0851               	movf	___aldiv@quotient,w
  3130  0740  00F1               	movwf	?___aldiv
  3131  0741                     l485:
  3132  0741  0008               	return
  3133  0742                     __end_of___aldiv:
  3134                           
  3135                           	psect	text7
  3136  0774                     __ptext7:	
  3137 ;; *************** function _ButtonDebounceInit *****************
  3138 ;; Defined at:
  3139 ;;		line 56 in file "source/button_debounce.c"
  3140 ;; Parameters:    Size  Location     Type
  3141 ;;  port            1    wreg     PTR struct .
  3142 ;;		 -> aPorts(12), 
  3143 ;;  pulledUpButt    1    1[COMMON] unsigned char 
  3144 ;; Auto vars:     Size  Location     Type
  3145 ;;  port            1    4[COMMON] PTR struct .
  3146 ;;		 -> aPorts(12), 
  3147 ;;  i               1    3[COMMON] unsigned char 
  3148 ;; Return value:  Size  Location     Type
  3149 ;;                  1    wreg      void 
  3150 ;; Registers used:
  3151 ;;		wreg, fsr1l, fsr1h, status,2, status,0
  3152 ;; Tracked objects:
  3153 ;;		On entry : 0/0
  3154 ;;		On exit  : 0/0
  3155 ;;		Unchanged: 0/0
  3156 ;; Data sizes:     COMMON   BANK0   BANK1   BANK2   BANK3   BANK4   BANK5   BANK6
  3157 ;;      Params:         1       0       0       0       0       0       0       0
  3158 ;;      Locals:         2       0       0       0       0       0       0       0
  3159 ;;      Temps:          1       0       0       0       0       0       0       0
  3160 ;;      Totals:         4       0       0       0       0       0       0       0
  3161 ;;Total ram usage:        4 bytes
  3162 ;; Hardware stack levels used: 1
  3163 ;; Hardware stack levels required when called: 1
  3164 ;; This function calls:
  3165 ;;		Nothing
  3166 ;; This function is called by:
  3167 ;;		_main
  3168 ;; This function uses a non-reentrant model
  3169 ;;
  3170                           
  3171                           
  3172                           ;psect for function _ButtonDebounceInit
  3173  0774                     _ButtonDebounceInit:
  3174                           
  3175                           ;incstack = 0
  3176                           ; Regs used in _ButtonDebounceInit: [wreg+fsr1l+fsr1h+status,2+status,0]
  3177                           ;ButtonDebounceInit@port stored from wreg
  3178  0774  00F4               	movwf	ButtonDebounceInit@port
  3179  0775                     l1418:
  3180                           
  3181                           ;source/button_debounce.c: 56: ButtonDebounceInit(Debouncer *port, uint8_t pulledUpButto
      +                          ns);source/button_debounce.c: 57: {;source/button_debounce.c: 58:     uint8_t i;;source/
      +                          button_debounce.c: 60:     port->index = 0;
  3182  0775  0874               	movf	ButtonDebounceInit@port,w
  3183  0776  3E08               	addlw	8
  3184  0777  0086               	movwf	6
  3185  0778  0187               	clrf	7
  3186  0779  0181               	clrf	1
  3187                           
  3188                           ;source/button_debounce.c: 61:     port->debouncedState = 0x00;
  3189  077A  0874               	movf	ButtonDebounceInit@port,w
  3190  077B  3E09               	addlw	9
  3191  077C  0086               	movwf	6
  3192  077D  0187               	clrf	7
  3193  077E  0181               	clrf	1
  3194                           
  3195                           ;source/button_debounce.c: 62:     port->changed = 0x00;
  3196  077F  0874               	movf	ButtonDebounceInit@port,w
  3197  0780  3E0A               	addlw	10
  3198  0781  0086               	movwf	6
  3199  0782  0187               	clrf	7
  3200  0783  0181               	clrf	1
  3201                           
  3202                           ;source/button_debounce.c: 63:     port->pullType = pulledUpButtons;
  3203  0784  0871               	movf	ButtonDebounceInit@pulledUpButtons,w
  3204  0785  00F2               	movwf	??_ButtonDebounceInit
  3205  0786  0874               	movf	ButtonDebounceInit@port,w
  3206  0787  3E0B               	addlw	11
  3207  0788  0086               	movwf	6
  3208  0789  0187               	clrf	7
  3209  078A  0872               	movf	??_ButtonDebounceInit,w
  3210  078B  0081               	movwf	1
  3211  078C                     l1420:
  3212                           
  3213                           ;source/button_debounce.c: 66:     for(i = 0; i < 8; i++)
  3214  078C  01F3               	clrf	ButtonDebounceInit@i
  3215  078D                     l1426:
  3216                           
  3217                           ;source/button_debounce.c: 67:     {;source/button_debounce.c: 68:         port->state[i
      +                          ] = 0x00;
  3218  078D  0873               	movf	ButtonDebounceInit@i,w
  3219  078E  0774               	addwf	ButtonDebounceInit@port,w
  3220  078F  00F2               	movwf	??_ButtonDebounceInit
  3221  0790  0872               	movf	??_ButtonDebounceInit,w
  3222  0791  0086               	movwf	6
  3223  0792  0187               	clrf	7
  3224  0793  0181               	clrf	1
  3225  0794                     l1428:
  3226                           
  3227                           ;source/button_debounce.c: 69:     }
  3228  0794  3001               	movlw	1
  3229  0795  00F2               	movwf	??_ButtonDebounceInit
  3230  0796  0872               	movf	??_ButtonDebounceInit,w
  3231  0797  07F3               	addwf	ButtonDebounceInit@i,f
  3232  0798                     l1430:
  3233  0798  3008               	movlw	8
  3234  0799  0273               	subwf	ButtonDebounceInit@i,w
  3235  079A  1C03               	skipc
  3236  079B  2F9D               	goto	u1071
  3237  079C  2F9E               	goto	u1070
  3238  079D                     u1071:
  3239  079D  2F8D               	goto	l1426
  3240  079E                     u1070:
  3241  079E                     l391:
  3242  079E  0008               	return
  3243  079F                     __end_of_ButtonDebounceInit:
  3244                           
  3245                           	psect	intentry
  3246  0004                     __pintentry:	
  3247 ;; *************** function _isr *****************
  3248 ;; Defined at:
  3249 ;;		line 538 in file "main.c"
  3250 ;; Parameters:    Size  Location     Type
  3251 ;;		None
  3252 ;; Auto vars:     Size  Location     Type
  3253 ;;		None
  3254 ;; Return value:  Size  Location     Type
  3255 ;;                  1    wreg      void 
  3256 ;; Registers used:
  3257 ;;		wreg, status,2, status,0
  3258 ;; Tracked objects:
  3259 ;;		On entry : 0/0
  3260 ;;		On exit  : 0/0
  3261 ;;		Unchanged: 0/0
  3262 ;; Data sizes:     COMMON   BANK0   BANK1   BANK2   BANK3   BANK4   BANK5   BANK6
  3263 ;;      Params:         0       0       0       0       0       0       0       0
  3264 ;;      Locals:         0       0       0       0       0       0       0       0
  3265 ;;      Temps:          1       0       0       0       0       0       0       0
  3266 ;;      Totals:         1       0       0       0       0       0       0       0
  3267 ;;Total ram usage:        1 bytes
  3268 ;; Hardware stack levels used: 1
  3269 ;; This function calls:
  3270 ;;		Nothing
  3271 ;; This function is called by:
  3272 ;;		Interrupt level 1
  3273 ;; This function uses a non-reentrant model
  3274 ;;
  3275                           
  3276  0004                     _isr:
  3277                           
  3278                           ;incstack = 0
  3279  0004  147E               	bsf	int$flags,0	;set compiler interrupt flag (level 1)
  3280                           
  3281                           ; Regs used in _isr: [wreg+status,2+status,0]
  3282  0005  3180               	pagesel	$
  3283  0006                     i1l1710:
  3284                           
  3285                           ;main.c: 541:     if (PIR0bits.IOCIF) {
  3286  0006  014E               	movlb	14	; select bank14
  3287  0007  1E0C               	btfss	12,4	;volatile
  3288  0008  280A               	goto	u149_21
  3289  0009  280B               	goto	u149_20
  3290  000A                     u149_21:
  3291  000A  2887               	goto	i1l1774
  3292  000B                     u149_20:
  3293  000B                     i1l1712:
  3294                           
  3295                           ;main.c: 545:         if (IOCAF5) {
  3296  000B  017E               	movlb	62	; select bank62
  3297  000C  1EBF               	btfss	63,5	;volatile
  3298  000D  280F               	goto	u150_21
  3299  000E  2810               	goto	u150_20
  3300  000F                     u150_21:
  3301  000F  282B               	goto	i1l1728
  3302  0010                     u150_20:
  3303  0010                     i1l1714:
  3304                           
  3305                           ;main.c: 546:             IOCAF5 = 0;
  3306  0010  12BF               	bcf	63,5	;volatile
  3307                           
  3308                           ;main.c: 548:             if (PORTAbits.RA5) {
  3309  0011  0140               	movlb	0	; select bank0
  3310  0012  1E8C               	btfss	12,5	;volatile
  3311  0013  2815               	goto	u151_21
  3312  0014  2816               	goto	u151_20
  3313  0015                     u151_21:
  3314  0015  2821               	goto	i1l1724
  3315  0016                     u151_20:
  3316  0016                     i1l1716:
  3317                           
  3318                           ;main.c: 550:                 poweredOn = 0;
  3319  0016  01B0               	clrf	_poweredOn
  3320  0017  01B1               	clrf	_poweredOn+1
  3321  0018                     i1l1718:
  3322                           
  3323                           ;main.c: 551:                 showCharge = 1;
  3324  0018  3001               	movlw	1
  3325  0019  00AE               	movwf	_showCharge
  3326  001A  3000               	movlw	0
  3327  001B  00AF               	movwf	_showCharge+1
  3328  001C                     i1l1720:
  3329                           
  3330                           ;main.c: 552:                 gotTheTouch = 0;
  3331  001C  01A8               	clrf	_gotTheTouch
  3332  001D  01A9               	clrf	_gotTheTouch+1
  3333  001E                     i1l1722:
  3334                           
  3335                           ;main.c: 553:                 lowPowerMode = 0;
  3336  001E  01AC               	clrf	_lowPowerMode
  3337  001F  01AD               	clrf	_lowPowerMode+1
  3338                           
  3339                           ;main.c: 554:             } else {
  3340  0020  282B               	goto	i1l1728
  3341  0021                     i1l1724:
  3342                           
  3343                           ;main.c: 556:                 poweredOn = 0;
  3344  0021  01B0               	clrf	_poweredOn
  3345  0022  01B1               	clrf	_poweredOn+1
  3346                           
  3347                           ;main.c: 557:                 showCharge = 0;
  3348  0023  01AE               	clrf	_showCharge
  3349  0024  01AF               	clrf	_showCharge+1
  3350                           
  3351                           ;main.c: 558:                 gotTheTouch = 0;
  3352  0025  01A8               	clrf	_gotTheTouch
  3353  0026  01A9               	clrf	_gotTheTouch+1
  3354  0027                     i1l1726:
  3355                           
  3356                           ;main.c: 559:                 lowPowerMode = 1;
  3357  0027  3001               	movlw	1
  3358  0028  00AC               	movwf	_lowPowerMode
  3359  0029  3000               	movlw	0
  3360  002A  00AD               	movwf	_lowPowerMode+1
  3361  002B                     i1l1728:
  3362                           
  3363                           ;main.c: 565:         if (IOCAF0) {
  3364  002B  017E               	movlb	62	; select bank62
  3365  002C  1C3F               	btfss	63,0	;volatile
  3366  002D  282F               	goto	u152_21
  3367  002E  2830               	goto	u152_20
  3368  002F                     u152_21:
  3369  002F  2856               	goto	i1l1750
  3370  0030                     u152_20:
  3371  0030                     i1l1730:
  3372                           
  3373                           ;main.c: 566:             IOCAF0 = 0;
  3374  0030  103F               	bcf	63,0	;volatile
  3375                           
  3376                           ;main.c: 568:             if (!PORTAbits.RA0 && !PORTAbits.RA5) {
  3377  0031  0140               	movlb	0	; select bank0
  3378  0032  180C               	btfsc	12,0	;volatile
  3379  0033  2835               	goto	u153_21
  3380  0034  2836               	goto	u153_20
  3381  0035                     u153_21:
  3382  0035  2844               	goto	i1l1740
  3383  0036                     u153_20:
  3384  0036                     i1l1732:
  3385  0036  1A8C               	btfsc	12,5	;volatile
  3386  0037  2839               	goto	u154_21
  3387  0038  283A               	goto	u154_20
  3388  0039                     u154_21:
  3389  0039  2844               	goto	i1l1740
  3390  003A                     u154_20:
  3391  003A                     i1l1734:
  3392                           
  3393                           ;main.c: 569:                 lowPowerMode = 0;
  3394  003A  01AC               	clrf	_lowPowerMode
  3395  003B  01AD               	clrf	_lowPowerMode+1
  3396  003C                     i1l1736:
  3397                           
  3398                           ;main.c: 570:                 poweredOn = 1;
  3399  003C  3001               	movlw	1
  3400  003D  00B0               	movwf	_poweredOn
  3401  003E  3000               	movlw	0
  3402  003F  00B1               	movwf	_poweredOn+1
  3403  0040                     i1l1738:
  3404                           
  3405                           ;main.c: 571:                 showCharge = 1;
  3406  0040  3001               	movlw	1
  3407  0041  00AE               	movwf	_showCharge
  3408  0042  3000               	movlw	0
  3409  0043  00AF               	movwf	_showCharge+1
  3410  0044                     i1l1740:
  3411                           
  3412                           ;main.c: 574:             if (PORTAbits.RA0 && !PORTAbits.RA5) {
  3413  0044  1C0C               	btfss	12,0	;volatile
  3414  0045  2847               	goto	u155_21
  3415  0046  2848               	goto	u155_20
  3416  0047                     u155_21:
  3417  0047  2856               	goto	i1l1750
  3418  0048                     u155_20:
  3419  0048                     i1l1742:
  3420  0048  1A8C               	btfsc	12,5	;volatile
  3421  0049  284B               	goto	u156_21
  3422  004A  284C               	goto	u156_20
  3423  004B                     u156_21:
  3424  004B  2856               	goto	i1l1750
  3425  004C                     u156_20:
  3426  004C                     i1l1744:
  3427                           
  3428                           ;main.c: 576:                 showCharge = 0;
  3429  004C  01AE               	clrf	_showCharge
  3430  004D  01AF               	clrf	_showCharge+1
  3431                           
  3432                           ;main.c: 577:                 poweredOn = 0;
  3433  004E  01B0               	clrf	_poweredOn
  3434  004F  01B1               	clrf	_poweredOn+1
  3435  0050                     i1l1746:
  3436                           
  3437                           ;main.c: 578:                 lowPowerMode = 1;
  3438  0050  3001               	movlw	1
  3439  0051  00AC               	movwf	_lowPowerMode
  3440  0052  3000               	movlw	0
  3441  0053  00AD               	movwf	_lowPowerMode+1
  3442  0054                     i1l1748:
  3443                           
  3444                           ;main.c: 579:                 forceArc = 0;
  3445  0054  01BC               	clrf	_forceArc
  3446  0055  01BD               	clrf	_forceArc+1
  3447  0056                     i1l1750:
  3448                           
  3449                           ;main.c: 584:         if (IOCAF3) {
  3450  0056  017E               	movlb	62	; select bank62
  3451  0057  1DBF               	btfss	63,3	;volatile
  3452  0058  285A               	goto	u157_21
  3453  0059  285B               	goto	u157_20
  3454  005A                     u157_21:
  3455  005A  2887               	goto	i1l1774
  3456  005B                     u157_20:
  3457  005B                     i1l1752:
  3458                           
  3459                           ;main.c: 585:             IOCAF3 = 0;
  3460  005B  11BF               	bcf	63,3	;volatile
  3461                           
  3462                           ;main.c: 587:             if (!PORTAbits.RA3 && !PORTAbits.RA0 && !PORTAbits.RA5) {
  3463  005C  0140               	movlb	0	; select bank0
  3464  005D  198C               	btfsc	12,3	;volatile
  3465  005E  2860               	goto	u158_21
  3466  005F  2861               	goto	u158_20
  3467  0060                     u158_21:
  3468  0060  2875               	goto	i1l1764
  3469  0061                     u158_20:
  3470  0061                     i1l1754:
  3471  0061  180C               	btfsc	12,0	;volatile
  3472  0062  2864               	goto	u159_21
  3473  0063  2865               	goto	u159_20
  3474  0064                     u159_21:
  3475  0064  2875               	goto	i1l1764
  3476  0065                     u159_20:
  3477  0065                     i1l1756:
  3478  0065  1A8C               	btfsc	12,5	;volatile
  3479  0066  2868               	goto	u160_21
  3480  0067  2869               	goto	u160_20
  3481  0068                     u160_21:
  3482  0068  2875               	goto	i1l1764
  3483  0069                     u160_20:
  3484  0069                     i1l1758:
  3485                           
  3486                           ;main.c: 588:                 lowPowerMode = 0;
  3487  0069  01AC               	clrf	_lowPowerMode
  3488  006A  01AD               	clrf	_lowPowerMode+1
  3489  006B                     i1l1760:
  3490                           
  3491                           ;main.c: 589:                 poweredOn = 1;
  3492  006B  3001               	movlw	1
  3493  006C  00B0               	movwf	_poweredOn
  3494  006D  3000               	movlw	0
  3495  006E  00B1               	movwf	_poweredOn+1
  3496  006F                     i1l1762:
  3497                           
  3498                           ;main.c: 590:                 showCharge = 0;
  3499  006F  01AE               	clrf	_showCharge
  3500  0070  01AF               	clrf	_showCharge+1
  3501                           
  3502                           ;main.c: 591:                 gotTheTouch = 1;
  3503  0071  3001               	movlw	1
  3504  0072  00A8               	movwf	_gotTheTouch
  3505  0073  3000               	movlw	0
  3506  0074  00A9               	movwf	_gotTheTouch+1
  3507  0075                     i1l1764:
  3508                           
  3509                           ;main.c: 594:             if (PORTAbits.RA3 && !PORTAbits.RA0 && !PORTAbits.RA5) {
  3510  0075  1D8C               	btfss	12,3	;volatile
  3511  0076  2878               	goto	u161_21
  3512  0077  2879               	goto	u161_20
  3513  0078                     u161_21:
  3514  0078  2887               	goto	i1l1774
  3515  0079                     u161_20:
  3516  0079                     i1l1766:
  3517  0079  180C               	btfsc	12,0	;volatile
  3518  007A  287C               	goto	u162_21
  3519  007B  287D               	goto	u162_20
  3520  007C                     u162_21:
  3521  007C  2887               	goto	i1l1774
  3522  007D                     u162_20:
  3523  007D                     i1l1768:
  3524  007D  1A8C               	btfsc	12,5	;volatile
  3525  007E  2880               	goto	u163_21
  3526  007F  2881               	goto	u163_20
  3527  0080                     u163_21:
  3528  0080  2887               	goto	i1l1774
  3529  0081                     u163_20:
  3530  0081                     i1l1770:
  3531                           
  3532                           ;main.c: 598:                 showCharge = 1;
  3533  0081  3001               	movlw	1
  3534  0082  00AE               	movwf	_showCharge
  3535  0083  3000               	movlw	0
  3536  0084  00AF               	movwf	_showCharge+1
  3537  0085                     i1l1772:
  3538                           
  3539                           ;main.c: 599:                 gotTheTouch = 0;
  3540  0085  01A8               	clrf	_gotTheTouch
  3541  0086  01A9               	clrf	_gotTheTouch+1
  3542  0087                     i1l1774:
  3543                           
  3544                           ;main.c: 609:     if (PIR1bits.TMR2IF) {
  3545  0087  014E               	movlb	14	; select bank14
  3546  0088  1F0D               	btfss	13,6	;volatile
  3547  0089  288B               	goto	u164_21
  3548  008A  288C               	goto	u164_20
  3549  008B                     u164_21:
  3550  008B  28B2               	goto	i1l1792
  3551  008C                     u164_20:
  3552  008C                     i1l1776:
  3553                           
  3554                           ;main.c: 610:         if (!noGate && poweredOn && gotTheTouch) {
  3555  008C  0140               	movlb	0	; select bank0
  3556  008D  0862               	movf	_noGate,w
  3557  008E  0463               	iorwf	_noGate+1,w
  3558  008F  1D03               	btfss	3,2
  3559  0090  2892               	goto	u165_21
  3560  0091  2893               	goto	u165_20
  3561  0092                     u165_21:
  3562  0092  28AE               	goto	i1l1788
  3563  0093                     u165_20:
  3564  0093                     i1l1778:
  3565  0093  0830               	movf	_poweredOn,w
  3566  0094  0431               	iorwf	_poweredOn+1,w
  3567  0095  1903               	btfsc	3,2
  3568  0096  2898               	goto	u166_21
  3569  0097  2899               	goto	u166_20
  3570  0098                     u166_21:
  3571  0098  28AE               	goto	i1l1788
  3572  0099                     u166_20:
  3573  0099                     i1l1780:
  3574  0099  0828               	movf	_gotTheTouch,w
  3575  009A  0429               	iorwf	_gotTheTouch+1,w
  3576  009B  1903               	btfsc	3,2
  3577  009C  289E               	goto	u167_21
  3578  009D  289F               	goto	u167_20
  3579  009E                     u167_21:
  3580  009E  28AE               	goto	i1l1788
  3581  009F                     u167_20:
  3582  009F                     i1l1782:
  3583                           
  3584                           ;main.c: 611:             postscaler ^= 1;
  3585  009F  3001               	movlw	1
  3586  00A0  06B6               	xorwf	_postscaler,f
  3587  00A1  3000               	movlw	0
  3588  00A2  06B7               	xorwf	_postscaler+1,f
  3589  00A3                     i1l1784:
  3590                           
  3591                           ;main.c: 612:             if (postscaler) {
  3592  00A3  0836               	movf	_postscaler,w
  3593  00A4  0437               	iorwf	_postscaler+1,w
  3594  00A5  1903               	btfsc	3,2
  3595  00A6  28A8               	goto	u168_21
  3596  00A7  28A9               	goto	u168_20
  3597  00A8                     u168_21:
  3598  00A8  28B0               	goto	i1l1790
  3599  00A9                     u168_20:
  3600  00A9                     i1l1786:
  3601                           
  3602                           ;main.c: 613:                 gate ^= 1;
  3603  00A9  3001               	movlw	1
  3604  00AA  06BA               	xorwf	_gate,f
  3605  00AB  3000               	movlw	0
  3606  00AC  06BB               	xorwf	_gate+1,f
  3607  00AD  28B0               	goto	i1l1790
  3608  00AE                     i1l1788:
  3609                           
  3610                           ;main.c: 616:             gate = 0;
  3611  00AE  01BA               	clrf	_gate
  3612  00AF  01BB               	clrf	_gate+1
  3613  00B0                     i1l1790:
  3614                           
  3615                           ;main.c: 618:         PIR1bits.TMR2IF = 0;
  3616  00B0  014E               	movlb	14	; select bank14
  3617  00B1  130D               	bcf	13,6	;volatile
  3618  00B2                     i1l1792:
  3619                           
  3620                           ;main.c: 623:     if (PIR0bits.TMR0IF) {
  3621  00B2  1E8C               	btfss	12,5	;volatile
  3622  00B3  28B5               	goto	u169_21
  3623  00B4  28B6               	goto	u169_20
  3624  00B5                     u169_21:
  3625  00B5  2918               	goto	i1l235
  3626  00B6                     u169_20:
  3627  00B6                     i1l1794:
  3628                           
  3629                           ;main.c: 624:         if (clockDivider < 15) {
  3630  00B6  300F               	movlw	15
  3631  00B7  0140               	movlb	0	; select bank0
  3632  00B8  0241               	subwf	_clockDivider,w
  3633  00B9  1803               	skipnc
  3634  00BA  28BC               	goto	u170_21
  3635  00BB  28BD               	goto	u170_20
  3636  00BC                     u170_21:
  3637  00BC  28CC               	goto	i1l1802
  3638  00BD                     u170_20:
  3639  00BD                     i1l1796:
  3640                           
  3641                           ;main.c: 625:             if (debugging) clockDivider = 15;
  3642  00BD  0842               	movf	_debugging,w
  3643  00BE  1903               	btfsc	3,2
  3644  00BF  28C1               	goto	u171_21
  3645  00C0  28C2               	goto	u171_20
  3646  00C1                     u171_21:
  3647  00C1  28C7               	goto	i1l1800
  3648  00C2                     u171_20:
  3649  00C2                     i1l1798:
  3650  00C2  300F               	movlw	15
  3651  00C3  00F0               	movwf	??_isr
  3652  00C4  0870               	movf	??_isr,w
  3653  00C5  00C1               	movwf	_clockDivider
  3654  00C6  28E9               	goto	i1l1816
  3655  00C7                     i1l1800:
  3656  00C7  3001               	movlw	1
  3657  00C8  00F0               	movwf	??_isr
  3658  00C9  0870               	movf	??_isr,w
  3659  00CA  07C1               	addwf	_clockDivider,f
  3660  00CB  28E9               	goto	i1l1816
  3661  00CC                     i1l1802:
  3662                           
  3663                           ;main.c: 629:             if (debugging) genericDelay = 0;
  3664  00CC  0842               	movf	_debugging,w
  3665  00CD  1903               	btfsc	3,2
  3666  00CE  28D0               	goto	u172_21
  3667  00CF  28D1               	goto	u172_20
  3668  00D0                     u172_21:
  3669  00D0  28D4               	goto	i1l1806
  3670  00D1                     u172_20:
  3671  00D1                     i1l1804:
  3672  00D1  01B2               	clrf	_genericDelay
  3673  00D2  01B3               	clrf	_genericDelay+1
  3674  00D3  28DE               	goto	i1l1810
  3675  00D4                     i1l1806:
  3676  00D4  0832               	movf	_genericDelay,w
  3677  00D5  0433               	iorwf	_genericDelay+1,w
  3678  00D6  1903               	btfsc	3,2
  3679  00D7  28D9               	goto	u173_21
  3680  00D8  28DA               	goto	u173_20
  3681  00D9                     u173_21:
  3682  00D9  28DE               	goto	i1l1810
  3683  00DA                     u173_20:
  3684  00DA                     i1l1808:
  3685  00DA  3001               	movlw	1
  3686  00DB  02B2               	subwf	_genericDelay,f
  3687  00DC  3000               	movlw	0
  3688  00DD  3BB3               	subwfb	_genericDelay+1,f
  3689  00DE                     i1l1810:
  3690                           
  3691                           ;main.c: 631:             clockDivider = 0;
  3692  00DE  01C1               	clrf	_clockDivider
  3693  00DF                     i1l1812:
  3694                           
  3695                           ;main.c: 634:             if (buttonDebounce < 5) buttonDebounce++;
  3696  00DF  3005               	movlw	5
  3697  00E0  0240               	subwf	_buttonDebounce,w
  3698  00E1  1803               	skipnc
  3699  00E2  28E4               	goto	u174_21
  3700  00E3  28E5               	goto	u174_20
  3701  00E4                     u174_21:
  3702  00E4  28E9               	goto	i1l1816
  3703  00E5                     u174_20:
  3704  00E5                     i1l1814:
  3705  00E5  3001               	movlw	1
  3706  00E6  00F0               	movwf	??_isr
  3707  00E7  0870               	movf	??_isr,w
  3708  00E8  07C0               	addwf	_buttonDebounce,f
  3709  00E9                     i1l1816:
  3710                           
  3711                           ;main.c: 651:         if ((gate || forceArc) && poweredOn && gotTheTouch) {
  3712  00E9  083A               	movf	_gate,w
  3713  00EA  043B               	iorwf	_gate+1,w
  3714  00EB  1D03               	btfss	3,2
  3715  00EC  28EE               	goto	u175_21
  3716  00ED  28EF               	goto	u175_20
  3717  00EE                     u175_21:
  3718  00EE  28F5               	goto	i1l1820
  3719  00EF                     u175_20:
  3720  00EF                     i1l1818:
  3721  00EF  083C               	movf	_forceArc,w
  3722  00F0  043D               	iorwf	_forceArc+1,w
  3723  00F1  1903               	btfsc	3,2
  3724  00F2  28F4               	goto	u176_21
  3725  00F3  28F5               	goto	u176_20
  3726  00F4                     u176_21:
  3727  00F4  2914               	goto	i1l231
  3728  00F5                     u176_20:
  3729  00F5                     i1l1820:
  3730  00F5  0830               	movf	_poweredOn,w
  3731  00F6  0431               	iorwf	_poweredOn+1,w
  3732  00F7  1903               	btfsc	3,2
  3733  00F8  28FA               	goto	u177_21
  3734  00F9  28FB               	goto	u177_20
  3735  00FA                     u177_21:
  3736  00FA  2914               	goto	i1l231
  3737  00FB                     u177_20:
  3738  00FB                     i1l1822:
  3739  00FB  0828               	movf	_gotTheTouch,w
  3740  00FC  0429               	iorwf	_gotTheTouch+1,w
  3741  00FD  1903               	btfsc	3,2
  3742  00FE  2900               	goto	u178_21
  3743  00FF  2901               	goto	u178_20
  3744  0100                     u178_21:
  3745  0100  2914               	goto	i1l231
  3746  0101                     u178_20:
  3747  0101                     i1l1824:
  3748                           
  3749                           ;main.c: 652:             pinState ^= 1;
  3750  0101  3001               	movlw	(0+1) shl (_pinState& (0+7))
  3751  0102  06FC               	xorwf	_pinState/(0+8),f
  3752  0103                     i1l1826:
  3753                           
  3754                           ;main.c: 653:             LATC4 = pinState;
  3755  0103  187C               	btfsc	_pinState/(0+8),_pinState& (0+7)
  3756  0104  2906               	goto	u179_21
  3757  0105  2909               	goto	u179_20
  3758  0106                     u179_21:
  3759  0106  0140               	movlb	0	; select bank0
  3760  0107  161A               	bsf	26,4	;volatile
  3761  0108  290B               	goto	u180_24
  3762  0109                     u179_20:
  3763  0109  0140               	movlb	0	; select bank0
  3764  010A  121A               	bcf	26,4	;volatile
  3765  010B                     u180_24:
  3766  010B                     i1l1828:
  3767                           
  3768                           ;main.c: 654:             LATC5 = (pinState^1);
  3769  010B  1C7C               	btfss	_pinState/(0+8),_pinState& (0+7)
  3770  010C  290E               	goto	u181_21
  3771  010D  2911               	goto	u181_20
  3772  010E                     u181_21:
  3773  010E  0140               	movlb	0	; select bank0
  3774  010F  169A               	bsf	26,5	;volatile
  3775  0110  2913               	goto	u182_24
  3776  0111                     u181_20:
  3777  0111  0140               	movlb	0	; select bank0
  3778  0112  129A               	bcf	26,5	;volatile
  3779  0113                     u182_24:
  3780                           
  3781                           ;main.c: 655:         } else {
  3782  0113  2916               	goto	i1l234
  3783  0114                     i1l231:
  3784                           
  3785                           ;main.c: 656:             LATC4 = 0;
  3786  0114  121A               	bcf	26,4	;volatile
  3787                           
  3788                           ;main.c: 657:             LATC5 = 0;
  3789  0115  129A               	bcf	26,5	;volatile
  3790  0116                     i1l234:	
  3791                           ;main.c: 658:         }
  3792                           
  3793                           
  3794                           ;main.c: 659:         PIR0bits.TMR0IF = 0;
  3795  0116  014E               	movlb	14	; select bank14
  3796  0117  128C               	bcf	12,5	;volatile
  3797  0118                     i1l235:
  3798  0118  107E               	bcf	int$flags,0	;clear compiler interrupt flag (level 1)
  3799  0119  0009               	retfie
  3800  011A                     __end_of_isr:
  3801  007E                     btemp	set	126	;btemp
  3802  007E                     int$flags	set	126
  3803  007E                     wtemp0	set	126
  3804                           
  3805                           	psect	config
  3806                           
  3807                           ;Config register CONFIG1 @ 0x8007
  3808                           ;	External Oscillator Mode Selection bits
  3809                           ;	FEXTOSC = 0x3, unprogrammed default
  3810                           ;	Power-up Default Value for COSC bits
  3811                           ;	RSTOSC = 0x0, user specified literal
  3812                           ;	Clock Out Enable bit
  3813                           ;	CLKOUTEN = 0x1, user specified literal
  3814                           ;	VDD Range Analog Calibration Selection bit
  3815                           ;	VDDAR = 0x1, unprogrammed default
  3816  8007                     	org	32775
  3817  8007  3FCF               	dw	16335
  3818                           
  3819                           ;Config register CONFIG2 @ 0x8008
  3820                           ;	Master Clear Enable bit
  3821                           ;	MCLRE = 0x0, user specified literal
  3822                           ;	Power-up Timer Selection bits
  3823                           ;	PWRTS = 0x3, unprogrammed default
  3824                           ;	WDT Operating Mode bits
  3825                           ;	WDTE = 0x0, user specified literal
  3826                           ;	Brown-out Reset Enable bits
  3827                           ;	BOREN = 0x0, user specified literal
  3828                           ;	Brown-out Reset Voltage Selection bit
  3829                           ;	BORV = LO, Brown-out Reset Voltage (VBOR) set to 1.9V
  3830                           ;	PPSLOCKED One-Way Set Enable bit
  3831                           ;	PPS1WAY = 0x1, unprogrammed default
  3832                           ;	Stack Overflow/Underflow Reset Enable bit
  3833                           ;	STVREN = ON, Stack Overflow or Underflow will cause a reset
  3834  8008                     	org	32776
  3835  8008  3F26               	dw	16166
  3836                           
  3837                           ;Config register CONFIG4 @ 0x800A
  3838                           ;	Boot Block Size Selection bits
  3839                           ;	BBSIZE = 0x7, unprogrammed default
  3840                           ;	Boot Block Enable bit
  3841                           ;	BBEN = 0x1, unprogrammed default
  3842                           ;	SAF Enable bit
  3843                           ;	SAFEN = 0x1, unprogrammed default
  3844                           ;	Application Block Write Protection bit
  3845                           ;	WRTAPP = 0x1, unprogrammed default
  3846                           ;	Boot Block Write Protection bit
  3847                           ;	WRTB = 0x1, unprogrammed default
  3848                           ;	Configuration Registers Write Protection bit
  3849                           ;	WRTC = 0x1, unprogrammed default
  3850                           ;	Storage Area Flash (SAF) Write Protection bit
  3851                           ;	WRTSAF = OFF, SAF is not write-protected
  3852                           ;	Low Voltage Programming Enable bit
  3853                           ;	LVP = OFF, High Voltage on MCLR/Vpp must be used for programming
  3854  800A                     	org	32778
  3855  800A  1FFF               	dw	8191
  3856                           
  3857                           ;Config register CONFIG5 @ 0x800B
  3858                           ;	User Program Flash Memory Code Protection bit
  3859                           ;	CP = OFF, User Program Flash Memory code protection is disabled
  3860  800B                     	org	32779
  3861  800B  3FFF               	dw	16383

Data Sizes:
    Strings     0
    Constant    724
    Data        2
    BSS         49
    Persistent  32
    Stack       0

Auto Spaces:
    Space          Size  Autos    Used
    COMMON           14     10      13
    BANK0            80     19      68
    BANK1            80      0       0
    BANK2            80      0       0
    BANK3            80      0       0
    BANK4            80      0       0
    BANK5            80      0       0
    BANK6            16      0       0

Pointer List with Targets:

    ButtonDebounceInit@port	PTR struct . size(1) Largest target is 12
		 -> aPorts(BANK0[12]), 


Critical Paths under _main in COMMON

    _goToLPmode->_playNote
    _doTheArc->_playNote
    _chargeIndicator->___aldiv

Critical Paths under _isr in COMMON

    None.

Critical Paths under _main in BANK0

    _main->_chargeIndicator
    _chargeIndicator->___aldiv

Critical Paths under _isr in BANK0

    None.

Critical Paths under _main in BANK1

    None.

Critical Paths under _isr in BANK1

    None.

Critical Paths under _main in BANK2

    None.

Critical Paths under _isr in BANK2

    None.

Critical Paths under _main in BANK3

    None.

Critical Paths under _isr in BANK3

    None.

Critical Paths under _main in BANK4

    None.

Critical Paths under _isr in BANK4

    None.

Critical Paths under _main in BANK5

    None.

Critical Paths under _isr in BANK5

    None.

Critical Paths under _main in BANK6

    None.

Critical Paths under _isr in BANK6

    None.

Call Graph Tables:

 ---------------------------------------------------------------------------------
 (Depth) Function   	        Calls       Base Space   Used Autos Params    Refs
 ---------------------------------------------------------------------------------
 (0) _main                                                 5     1      4    2936
                                             14 BANK0      5     1      4
                 _ButtonDebounceInit
                      _blockingDelay
                    _chargeIndicator
                           _doTheArc
                         _goToLPmode
 ---------------------------------------------------------------------------------
 (1) _goToLPmode                                           0     0      0     522
                           _playNote
 ---------------------------------------------------------------------------------
 (1) _doTheArc                                             2     2      0     522
                                              5 COMMON     2     2      0
                           _playNote
 ---------------------------------------------------------------------------------
 (2) _playNote                                             4     0      4     522
                                              1 COMMON     4     0      4
 ---------------------------------------------------------------------------------
 (1) _chargeIndicator                                      8     8      0    1105
                                              6 BANK0      8     8      0
                            ___aldiv
                      _blockingDelay
 ---------------------------------------------------------------------------------
 (2) _blockingDelay                                        2     0      2     478
                                              1 COMMON     2     0      2
 ---------------------------------------------------------------------------------
 (2) ___aldiv                                             15     7      8     604
                                              1 COMMON     9     1      8
                                              0 BANK0      6     6      0
 ---------------------------------------------------------------------------------
 (1) _ButtonDebounceInit                                   4     3      1     309
                                              1 COMMON     4     3      1
 ---------------------------------------------------------------------------------
 Estimated maximum stack depth 2
 ---------------------------------------------------------------------------------
 (Depth) Function   	        Calls       Base Space   Used Autos Params    Refs
 ---------------------------------------------------------------------------------
 (3) _isr                                                  1     1      0       0
                                              0 COMMON     1     1      0
 ---------------------------------------------------------------------------------
 Estimated maximum stack depth 3
 ---------------------------------------------------------------------------------

 Call Graph Graphs:

 _main (ROOT)
   _ButtonDebounceInit
   _blockingDelay
   _chargeIndicator
     ___aldiv
     _blockingDelay
   _doTheArc
     _playNote
   _goToLPmode
     _playNote

 _isr (ROOT)

 Address spaces:
Name               Size   Autos  Total    Cost      Usage
BIGRAM             1F0      0       0       0        0.0%
NULL                 0      0       0       0        0.0%
CODE                 0      0       0       0        0.0%
BITCOMMON            E      0       1       1        7.1%
BITSFR0              0      0       0       1        0.0%
SFR0                 0      0       0       1        0.0%
COMMON               E      A       D       2       92.9%
BITSFR1              0      0       0       2        0.0%
SFR1                 0      0       0       2        0.0%
BITSFR2              0      0       0       3        0.0%
SFR2                 0      0       0       3        0.0%
STACK                0      0       0       3        0.0%
BITSFR3              0      0       0       4        0.0%
SFR3                 0      0       0       4        0.0%
ABS                  0      0      51       4        0.0%
BITBANK0            50      0       0       5        0.0%
BITSFR4              0      0       0       5        0.0%
SFR4                 0      0       0       5        0.0%
BANK0               50     13      44       6       85.0%
BITSFR5              0      0       0       6        0.0%
SFR5                 0      0       0       6        0.0%
BITBANK1            50      0       0       7        0.0%
BITSFR6              0      0       0       7        0.0%
SFR6                 0      0       0       7        0.0%
BANK1               50      0       0       8        0.0%
BITSFR7              0      0       0       8        0.0%
SFR7                 0      0       0       8        0.0%
BITBANK2            50      0       0       9        0.0%
BITSFR8              0      0       0       9        0.0%
SFR8                 0      0       0       9        0.0%
BANK2               50      0       0      10        0.0%
BITSFR9              0      0       0      10        0.0%
SFR9                 0      0       0      10        0.0%
BITBANK3            50      0       0      11        0.0%
BITSFR10             0      0       0      11        0.0%
SFR10                0      0       0      11        0.0%
BANK3               50      0       0      12        0.0%
BITSFR11             0      0       0      12        0.0%
SFR11                0      0       0      12        0.0%
BITBANK4            50      0       0      13        0.0%
BITSFR12             0      0       0      13        0.0%
SFR12                0      0       0      13        0.0%
BANK4               50      0       0      14        0.0%
BITSFR13             0      0       0      14        0.0%
SFR13                0      0       0      14        0.0%
BITBANK5            50      0       0      15        0.0%
BITSFR14             0      0       0      15        0.0%
SFR14                0      0       0      15        0.0%
BANK5               50      0       0      16        0.0%
BITSFR15             0      0       0      16        0.0%
SFR15                0      0       0      16        0.0%
BITBANK6            10      0       0      17        0.0%
BITSFR16             0      0       0      17        0.0%
SFR16                0      0       0      17        0.0%
BANK6               10      0       0      18        0.0%
BITSFR17             0      0       0      18        0.0%
SFR17                0      0       0      18        0.0%
BITSFR18             0      0       0      19        0.0%
SFR18                0      0       0      19        0.0%
DATA                 0      0      51      19        0.0%
BITSFR19             0      0       0      20        0.0%
SFR19                0      0       0      20        0.0%
BITSFR20             0      0       0      21        0.0%
SFR20                0      0       0      21        0.0%
BITSFR21             0      0       0      22        0.0%
SFR21                0      0       0      22        0.0%
BITSFR22             0      0       0      23        0.0%
SFR22                0      0       0      23        0.0%
BITSFR23             0      0       0      24        0.0%
SFR23                0      0       0      24        0.0%
BITSFR24             0      0       0      25        0.0%
SFR24                0      0       0      25        0.0%
BITSFR25             0      0       0      26        0.0%
SFR25                0      0       0      26        0.0%
BITSFR26             0      0       0      27        0.0%
SFR26                0      0       0      27        0.0%
BITSFR27             0      0       0      28        0.0%
SFR27                0      0       0      28        0.0%
BITSFR28             0      0       0      29        0.0%
SFR28                0      0       0      29        0.0%
BITSFR29             0      0       0      30        0.0%
SFR29                0      0       0      30        0.0%
BITSFR30             0      0       0      31        0.0%
SFR30                0      0       0      31        0.0%
BITSFR31             0      0       0      32        0.0%
SFR31                0      0       0      32        0.0%
BITSFR32             0      0       0      33        0.0%
SFR32                0      0       0      33        0.0%
BITSFR33             0      0       0      34        0.0%
SFR33                0      0       0      34        0.0%
BITSFR34             0      0       0      35        0.0%
SFR34                0      0       0      35        0.0%
BITSFR35             0      0       0      36        0.0%
SFR35                0      0       0      36        0.0%
BITSFR36             0      0       0      37        0.0%
SFR36                0      0       0      37        0.0%
BITSFR37             0      0       0      38        0.0%
SFR37                0      0       0      38        0.0%
BITSFR38             0      0       0      39        0.0%
SFR38                0      0       0      39        0.0%
BITSFR39             0      0       0      40        0.0%
SFR39                0      0       0      40        0.0%
BITSFR40             0      0       0      41        0.0%
SFR40                0      0       0      41        0.0%
BITSFR41             0      0       0      42        0.0%
SFR41                0      0       0      42        0.0%
BITSFR42             0      0       0      43        0.0%
SFR42                0      0       0      43        0.0%
BITSFR43             0      0       0      44        0.0%
SFR43                0      0       0      44        0.0%
BITSFR44             0      0       0      45        0.0%
SFR44                0      0       0      45        0.0%
BITSFR45             0      0       0      46        0.0%
SFR45                0      0       0      46        0.0%
BITSFR46             0      0       0      47        0.0%
SFR46                0      0       0      47        0.0%
BITSFR47             0      0       0      48        0.0%
SFR47                0      0       0      48        0.0%
BITSFR48             0      0       0      49        0.0%
SFR48                0      0       0      49        0.0%
BITSFR49             0      0       0      50        0.0%
SFR49                0      0       0      50        0.0%
BITSFR50             0      0       0      51        0.0%
SFR50                0      0       0      51        0.0%
BITSFR51             0      0       0      52        0.0%
SFR51                0      0       0      52        0.0%
BITSFR52             0      0       0      53        0.0%
SFR52                0      0       0      53        0.0%
BITSFR53             0      0       0      54        0.0%
SFR53                0      0       0      54        0.0%
BITSFR54             0      0       0      55        0.0%
SFR54                0      0       0      55        0.0%
BITSFR55             0      0       0      56        0.0%
SFR55                0      0       0      56        0.0%
BITSFR56             0      0       0      57        0.0%
SFR56                0      0       0      57        0.0%
BITSFR57             0      0       0      58        0.0%
SFR57                0      0       0      58        0.0%
BITSFR58             0      0       0      59        0.0%
SFR58                0      0       0      59        0.0%
BITSFR59             0      0       0      60        0.0%
SFR59                0      0       0      60        0.0%
BITSFR60             0      0       0      61        0.0%
SFR60                0      0       0      61        0.0%
BITSFR61             0      0       0      62        0.0%
SFR61                0      0       0      62        0.0%
BITSFR62             0      0       0      63        0.0%
SFR62                0      0       0      63        0.0%
BITSFR63             0      0       0      64        0.0%
SFR63                0      0       0      64        0.0%


Microchip Technology PIC Macro Assembler V2.32 build 20210201212658 
Symbol Table                                                                                   Fri Sep 24 09:25:15 2021

                                _i 007A                                l311 0678  
                              l320 069D                                l240 0305  
                              l322 06B1                                l306 065E  
                              l315 0692                                l316 0691  
                              l270 03EC                                l319 069C  
                              l247 0316                                l191 0537  
                              l280 075C                                l192 053D  
                              l258 0373                                l276 07E4  
                              l196 0563                                l286 0773  
                              l391 079E                                l295 05D4  
                              l199 05BD                                l297 05DC  
                              l289 07D8                                l475 06C5  
                              l485 0741                                _GIE 005F  
                              _PR2 028D                                u920 07E4  
                              u921 07E3                                u930 0748  
                              u931 0747                                u940 0767  
                              u941 0766                                u950 076D  
                              u951 076C                                u960 0773  
                              u961 0772                                u970 06B8  
                              u971 06B7                                u980 06C9  
                              u981 06C8                                u990 06E8  
                              u991 06E7                                _isr 0004  
                              wreg 0009                               l2000 05B3  
                             l2002 05B9                               l2004 05BF  
                             l2006 05C6                               l1400 0701  
                             l1402 0713                               l1410 0729  
                             l1420 078C                               l1412 072E  
                             l1404 071B                               l2028 03D8  
                             l1500 0302                               l1430 0798  
                             l1414 0739                               l1406 071C  
                             l1510 0324                               l1502 0309  
                             l1408 0723                               l1360 07D9  
                             l1440 05E1                               l1432 05CC  
                             l1520 035C                               l1512 032A  
                             l1504 030F                               l1426 078D  
                             l1418 0775                               l1362 07DE  
                             l1450 063A                               l1442 05E9  
                             l1434 05D2                               l1370 0757  
                             l1530 0381                               l1522 0365  
                             l1514 0330                               l1506 031A  
                             l1428 0794                               l1380 06B4  
                             l1460 0657                               l1452 0640  
                             l1444 05EE                               l1436 05D6  
                             l1372 0761                               l1364 0742  
                             l1540 03B9                               l1532 0387  
                             l1524 036C                               l1516 0335  
                             l1508 031E                               l1390 06E0  
                             l1382 06B8                               l1470 0671  
                             l1462 065C                               l1454 0645  
                             l1446 062D                               l1374 0767  
                             l1366 0748                               l1542 03C2  
                             l1534 038D                               l1526 0377  
                             l1518 0358                               l1550 03E3  
                             l1392 06E8                               l1384 06C9  
                             l1480 068A                               l1472 0676  
                             l1456 064E                               l1464 0660  
                             l1448 0636                               l1376 076D  
                             l1368 074B                               l1552 03E8  
                             l1544 03C9                               l1536 0392  
                             l1528 037B                               l1394 06EB  
                             l1386 06D4                               l1378 06B2  
                             l1490 06A6                               l1482 068F  
                             l1466 0669                               l1474 067A  
                             l1458 0651                               l1554 03E9  
                             l1538 03B5                               l1570 07D2  
                             l1396 06F6                               l1388 06D8  
                             l1492 06AA                               l1476 0683  
                             l1484 0695                               l1468 066B  
                             l1556 03EA                               l1548 03D0  
                             l1572 07D3                               l1564 07C3  
                             l1900 04F2                               l1398 06FA  
                             l1486 069A                               l1478 0684  
                             l1558 03EB                               l1494 02F3  
                             l1574 07D4                               l1566 07C6  
                             l1910 04F7                               l1902 04F3  
                             l1488 06A0                               l1496 02F8  
                             l1576 07D5                               l1568 07D0  
                             l1920 04FC                               l1912 04F8  
                             l1904 04F4                               l1498 02FC  
                             l1578 07D6                               l1930 050C  
                             l1922 04FD                               l1914 04F9  
                             l1906 04F5                               l1940 0516  
                             l1932 050D                               l1924 04FE  
                             l1916 04FA                               l1908 04F6  
                             l1950 0524                               l1942 051A  
                             l1934 050F                               l1926 04FF  
                             l1918 04FB                               l1960 052E  
                             l1952 0525                               l1944 051B  
                             l1936 0511                               l1928 0507  
                             l1880 04E3                               l1970 054D  
                             l1962 052F                               l1954 0526  
                             l1946 051E                               l1938 0515  
                             l1890 04EB                               l1882 04E4  
                             l1980 0578                               l1972 054F  
                             l1964 0535                               l1956 0528  
                             l1948 0520                               l1892 04EC  
                             l1884 04E6                               l1990 059E  
                             l1982 0581                               l1974 055A  
                             l1966 0541                               l1958 0529  
                             l1894 04EE                               l1886 04E8  
                             l1878 04DD                               l1992 05A1  
                             l1984 058A                               l1976 0561  
                             l1968 0548                               l1896 04F0  
                             l1888 04EA                               l1994 05A7  
                             l1986 0593                               l1978 0571  
                             l1898 04F1                               l1996 05AA  
                             l1988 059C                               l1998 05B1  
                             ?_isr 0070                               u1010 06FA  
                             u1011 06F9                               u1100 05E1  
                             u1005 06EC                               u1101 05E0  
                             u1030 0713                               u1110 05EE  
                             u1031 0712                               u1111 05ED  
                             u1200 0676                               u1120 05FF  
                             u1025 06FB                               u1201 0675  
                             u1050 0729                               u1210 0683  
                             u1130 0636                               u1051 0728  
                             u1035 070F                               u1211 0682  
                             u1131 0635                               u1060 072E  
                             u1220 068A                               u1140 0640  
                             u1300 032A                               u1061 072D  
                             u1045 071D                               u1221 0689  
                             u1141 063F                               u1125 05FB  
                             u1301 0329                               u1070 079E  
                             u1230 068F                               u1150 064E  
                             u1310 0330                               u1071 079D  
                             u1231 068E                               u1151 064D  
                             u1311 032F                               u1240 069A  
                             u1160 0657                               u1080 05D2  
                             u1400 03CF                               u1320 0365  
                             u1241 0699                               u1161 0656  
                             u1081 05D1                               u1401 03CE  
                             u1321 0364                               u1250 06A6  
                             u1170 065C                               u1090 05DC  
                             u1330 036C                               u1251 06A5  
                             u1171 065B                               u1091 05DB  
                             u1331 036B                               u1180 0669  
                             u1340 0372                               u1260 0302  
                             u1181 0668                               u1341 0371  
                             u1261 0301                               u1190 0671  
                             u1350 0381                               u1270 030F  
                             u1191 0670                               u1351 0380  
                             u1271 030E                               u1360 0387  
                             u1280 0315                               u1361 0386  
                             u1281 0314                               u1370 038D  
                             u1290 0324                               u1371 038C  
                             u1291 0323                               u1380 03C2  
                             u1381 03C1                               u1390 03C9  
                             u1391 03C8                               u1900 05B1  
                             u1901 05B0                               u1910 05B9  
                             u1911 05B8                               u1920 05C6  
                             u1921 05C5                               u1850 0535  
                             u1851 0534                               u1860 0541  
                             u1861 0540                               u1870 054D  
                             u1871 054C                               u1880 0561  
                             u1881 0560                               u1890 05A7  
                             u1891 05A6                               _PEIE 005E  
                             _INTE 38B0                               _gate 003A  
                             _main 04DD                               fsr0h 0005  
                             fsr1h 0007                               indf0 0000  
                             fsr0l 0004                               indf1 0001  
                             fsr1l 0006                               btemp 007E  
                             start 011A                ButtonDebounceInit@i 0073  
                 playNote@duration 0073                              ??_isr 0070  
                  __end_of___aldiv 0742                              ?_main 005D  
                            _ADRES 009B                              _LATA1 00C1  
                            _LATA2 00C2                              _LATC0 00D0  
                            _LATC1 00D1                              _LATC2 00D2  
                            _LATC3 00D3                              _LATC4 00D4  
                            _LATC5 00D5                              _IOCIE 38B4  
                            i1l231 0114                              i1l234 0116  
                            i1l235 0118                              _PORTA 000C  
                            _WPUA0 F9C8                              _WPUA3 F9CB  
                            _sheRa 03ED                              _notes 079F  
                   __pbitbssCOMMON 03E0                              status 0003  
                            wtemp0 007E                    __initialization 011C  
                     __end_of_main 05CC                    _chargeIndicator 05CC  
                           ??_main 0061                             _ANSELC 1F4E  
                           _IOCAF0 F9F8                             _IOCAF3 F9FB  
                           _IOCAF5 F9FD                             _IOCAN0 F9F0  
                           _IOCAN3 F9F3                             _IOCAP0 F9E8  
                           _IOCAN5 F9F5                             _IOCAP3 F9EB  
                           _IOCAP5 F9ED                             i1l1710 0006  
                           i1l1800 00C7                             i1l1720 001C  
                           i1l1712 000B                             i1l1810 00DE  
                           i1l1802 00CC                             i1l1730 0030  
                           i1l1722 001E                             i1l1714 0010  
                           i1l1820 00F5                             i1l1812 00DF  
                           i1l1804 00D1                             i1l1732 0036  
                           i1l1740 0044                             i1l1716 0016  
                           i1l1724 0021                             i1l1822 00FB  
                           i1l1814 00E5                             i1l1806 00D4  
                           i1l1742 0048                             i1l1734 003A  
                           i1l1750 0056                             i1l1726 0027  
                           i1l1718 0018                             i1l1824 0101  
                           i1l1808 00DA                             i1l1816 00E9  
                           i1l1760 006B                             i1l1752 005B  
                           i1l1744 004C                             i1l1736 003C  
                           i1l1728 002B                             i1l1826 0103  
                           i1l1818 00EF                             i1l1770 0081  
                           i1l1762 006F                             i1l1754 0061  
                           i1l1746 0050                             i1l1738 0040  
                           i1l1828 010B                             i1l1780 0099  
                           i1l1772 0085                             i1l1756 0065  
                           i1l1764 0075                             i1l1748 0054  
                           i1l1790 00B0                             i1l1782 009F  
                           i1l1766 0079                             i1l1758 0069  
                           i1l1774 0087                             i1l1784 00A3  
                           i1l1776 008C                             i1l1792 00B2  
                           i1l1768 007D                             i1l1794 00B6  
                           i1l1786 00A9                             i1l1778 0093  
                           i1l1796 00BD                             i1l1788 00AE  
                           i1l1798 00C2                             u150_20 0010  
                           u150_21 000F                             u151_20 0016  
                           u151_21 0015                             u160_20 0069  
                           u152_20 0030                             u160_21 0068  
                           u152_21 002F                             u161_20 0079  
                           u153_20 0036                             u161_21 0078  
                           u153_21 0035                             u170_20 00BD  
                           u162_20 007D                             u154_20 003A  
                           u170_21 00BC                             u162_21 007C  
                           u154_21 0039                             u171_20 00C2  
                           u163_20 0081                             u155_20 0048  
                           u171_21 00C1                             u163_21 0080  
                           u155_21 0047                             u172_20 00D1  
                           u164_20 008C                             u156_20 004C  
                           u172_21 00D0                             u164_21 008B  
                           u156_21 004B                             u180_24 010B  
                           u181_20 0111                             u173_20 00DA  
                           u165_20 0093                             u157_20 005B  
                           u149_20 000B                             u181_21 010E  
                           u173_21 00D9                             u165_21 0092  
                           u157_21 005A                             u149_21 000A  
                           u174_20 00E5                             u166_20 0099  
                           u158_20 0061                             u174_21 00E4  
                           u166_21 0098                             u158_21 0060  
                           u182_24 0113                             u175_20 00EF  
                           u167_20 009F                             u159_20 0065  
                           u175_21 00EE                             u167_21 009E  
                           u159_21 0064                             u176_20 00F5  
                           u168_20 00A9                             u176_21 00F4  
                           u168_21 00A8                             u177_20 00FB  
                           u169_20 00B6                             u177_21 00FA  
                           u169_21 00B5                             u178_20 0101  
                           u178_21 0100                             u179_20 0109  
                           u179_21 0106                             _NVMADR 081A  
                           _NVMDAT 081C                             _TMR0IE 38B5  
                           _TMR2IE 38BE                             _TRISA0 0090  
                           _TRISA1 0091                             _TRISA2 0092  
                           _TRISA3 0093                             _TRISA4 0094  
                           _TRISC0 00A0                             _TRISA5 0095  
                           _TRISC1 00A1                             _TRISC2 00A2  
                           _TRISC3 00A3                             _TRISC4 00A4  
                           _TRISC5 00A5                   __end_of_doTheArc 03ED  
                           _aPorts 0043                          ??___aldiv 0079  
                           _noGate 0062                   __end_of_playNote 0774  
          __end_of__initialization 012F            __end_of_chargeIndicator 06B2  
                   __pcstackCOMMON 0070                       __pidataBANK0 07EB  
                    __end_of_sheRa 04DD                      __end_of_notes 07C3  
            __end_of_blockingDelay 07E5                         _abortAbort 0038  
                       __pbssBANK0 0020        __size_of_ButtonDebounceInit 002B  
                       __pmaintext 04DD                         _goToLPmode 07C3  
                       __pintentry 0004                          ?_doTheArc 0070  
                     _clockDivider 0041                   ?_chargeIndicator 0070  
                        ?_playNote 0071                  __end_of_gargoyles 02F3  
                          ___aldiv 06B2                            __ptext1 07C3  
                          __ptext2 02F3                            __ptext3 0742  
                          __ptext4 05CC                            __ptext5 07D9  
                          __ptext6 06B2                            __ptext7 0774  
                          _lidOpen 002A                          _T2CONbits 028E  
                     __size_of_isr 0116                         ??_doTheArc 0075  
                 ___aldiv@dividend 0075                          _T2HLTbits 028F  
             _chargeIndicator$1122 0059                       _genericDelay 0032  
                          clrloop0 07E6               end_of_initialization 012F  
                    _calibrationMV 0020                         ??_playNote 0075  
                      ?_goToLPmode 0070                          _OSCENbits 0891  
                 ___aldiv@quotient 0051                         _showCharge 002E  
                        _PORTAbits 000C  ButtonDebounceInit@pulledUpButtons 0071  
                       _postscaler 0036                start_initialization 011C  
                      __end_of_isr 011A                __size_of_goToLPmode 0016  
                   _buttonDebounce 0040                 blockingDelay@mSecs 0071  
           ButtonDebounceInit@port 0074                        __pdataBANK0 0062  
                      __pbssCOMMON 007A                          ___latbits 0001  
                    __pcstackBANK0 004F                        _chargeCycle 003E  
                __size_of_doTheArc 00FA         __end_of_ButtonDebounceInit 079F  
                        _battVolts 0024                          _debugging 0042  
           __size_of_blockingDelay 000C                  __size_of_playNote 0032  
                         ?___aldiv 0071                          _gargoyles 0133  
                     playNote@note 0071                           _T2CLKCON 0290  
                  ___aldiv@divisor 0071                    ___aldiv@counter 004F  
                        _playIndex 0034                          clear_ram0 07E5  
                         _PIR0bits 070C                           _PIR1bits 070D  
                     ??_goToLPmode 0075           __size_of_chargeIndicator 00E6  
                        _poweredOn 0030                         _ADCON0bits 009D  
                       _ADCON1bits 009E                      _blockingDelay 07D9  
               __end_of_goToLPmode 07D9                       _lowPowerMode 002C  
                      _gotTheTouch 0028                   __size_of___aldiv 0090  
                         _adcVolts 0022                         _ANSELAbits 1F38  
                         _doTheArc 02F3                     ?_blockingDelay 0071  
                       _T0CON0bits 059E                         _T0CON1bits 059F  
                         _charging 0026                           _forceArc 003C  
                    __size_of_main 00EF                           _pinState 03E0  
                         _playNote 0742                           _runIndex 003F  
                         int$flags 007E                           main@argc 005D  
                         main@argv 005F                  ??_chargeIndicator 0055  
                      _NVMCON1bits 081E                         _FVRCONbits 090C  
                         intlevel1 0000                         _OSCFRQbits 0893  
               _ButtonDebounceInit 0774                      __pstringtext1 0133  
                    __pstringtext2 03ED                      __pstringtext3 079F  
                  ??_blockingDelay 0073                ?_ButtonDebounceInit 0071  
                     ___aldiv@sign 0050               ??_ButtonDebounceInit 0072  
